ARM GAS  /tmp/ccRg3cKS.s 			page 1


   1              		.syntax unified
   2              		.cpu cortex-m3
   3              		.fpu softvfp
   4              		.eabi_attribute 20, 1
   5              		.eabi_attribute 21, 1
   6              		.eabi_attribute 23, 3
   7              		.eabi_attribute 24, 1
   8              		.eabi_attribute 25, 1
   9              		.eabi_attribute 26, 1
  10              		.eabi_attribute 30, 2
  11              		.eabi_attribute 34, 1
  12              		.eabi_attribute 18, 4
  13              		.thumb
  14              		.file	"board.c"
  15              		.text
  16              	.Ltext0:
  17              		.cfi_sections	.debug_frame
  18              		.section	.text.__early_init,"ax",%progbits
  19              		.align	2
  20              		.p2align 4,,15
  21              		.global	__early_init
  22              		.thumb
  23              		.thumb_func
  24              		.type	__early_init, %function
  25              	__early_init:
  26              	.LFB36:
  27              		.file 1 "../third_party/ChibiOS/boards/ATMEL_SAM3S_CREATOR/board.c"
  28              		.loc 1 50 0
  29              		.cfi_startproc
  30              		@ args = 0, pretend = 0, frame = 0
  31              		@ frame_needed = 0, uses_anonymous_args = 0
  32              		@ link register save eliminated.
  33              		.loc 1 52 0
  34 0000 FFF7FEBF 		b	at91sam3_clock_init
  35              	.LVL0:
  36              		.cfi_endproc
  37              	.LFE36:
  38              		.size	__early_init, .-__early_init
  39              		.section	.text.boardInit,"ax",%progbits
  40              		.align	2
  41              		.p2align 4,,15
  42              		.global	boardInit
  43              		.thumb
  44              		.thumb_func
  45              		.type	boardInit, %function
  46              	boardInit:
  47              	.LFB37:
  48              		.loc 1 59 0
  49              		.cfi_startproc
  50              		@ args = 0, pretend = 0, frame = 0
  51              		@ frame_needed = 0, uses_anonymous_args = 0
  52 0000 10B5     		push	{r4, lr}
  53              		.cfi_def_cfa_offset 8
  54              		.cfi_offset 4, -8
  55              		.cfi_offset 14, -4
  56              		.loc 1 63 0
  57 0002 144C     		ldr	r4, .L4
ARM GAS  /tmp/ccRg3cKS.s 			page 2


  58 0004 4FF40021 		mov	r1, #524288
  59 0008 2163     		str	r1, [r4, #48]
  60              		.loc 1 64 0
  61 000a 2046     		mov	r0, r4
  62 000c 0622     		movs	r2, #6
  63 000e FFF7FEFF 		bl	_pal_lld_setgroupmode
  64              	.LVL1:
  65              		.loc 1 66 0
  66 0012 4FF48013 		mov	r3, #1048576
  67 0016 2363     		str	r3, [r4, #48]
  68              		.loc 1 67 0
  69 0018 2046     		mov	r0, r4
  70 001a 4FF00041 		mov	r1, #-2147483648
  71 001e 0622     		movs	r2, #6
  72 0020 FFF7FEFF 		bl	_pal_lld_setgroupmode
  73              	.LVL2:
  74              		.loc 1 69 0
  75 0024 4FF40031 		mov	r1, #131072
  76 0028 C4F83414 		str	r1, [r4, #1076]
  77 002c 04F58064 		add	r4, r4, #1024
  78              		.loc 1 70 0
  79 0030 2046     		mov	r0, r4
  80 0032 0622     		movs	r2, #6
  81 0034 FFF7FEFF 		bl	_pal_lld_setgroupmode
  82              	.LVL3:
  83              		.loc 1 75 0
  84 0038 0748     		ldr	r0, .L4+4
  85 003a 0821     		movs	r1, #8
  86 003c 0322     		movs	r2, #3
  87 003e FFF7FEFF 		bl	_pal_lld_setgroupmode
  88              	.LVL4:
  89              		.loc 1 76 0
  90 0042 2046     		mov	r0, r4
  91              		.loc 1 77 0
  92 0044 BDE81040 		pop	{r4, lr}
  93              		.cfi_restore 14
  94              		.cfi_restore 4
  95              		.cfi_def_cfa_offset 0
  96              		.loc 1 76 0
  97 0048 4FF48051 		mov	r1, #4096
  98 004c 0322     		movs	r2, #3
  99 004e FFF7FEBF 		b	_pal_lld_setgroupmode
 100              	.LVL5:
 101              	.L5:
 102 0052 00BF     		.align	2
 103              	.L4:
 104 0054 000E0E40 		.word	1074662912
 105 0058 00100E40 		.word	1074663424
 106              		.cfi_endproc
 107              	.LFE37:
 108              		.size	boardInit, .-boardInit
 109              		.global	pal_default_config
 110              		.section	.rodata.pal_default_config,"a",%progbits
 111              		.align	2
 112              		.type	pal_default_config, %object
 113              		.size	pal_default_config, 36
 114              	pal_default_config:
ARM GAS  /tmp/ccRg3cKS.s 			page 3


 115 0000 00000000 		.word	0
 116 0004 00000000 		.word	0
 117 0008 FFFFFFFF 		.word	-1
 118 000c 00000000 		.word	0
 119 0010 00000000 		.word	0
 120 0014 FFFFFFFF 		.word	-1
 121 0018 00000000 		.word	0
 122 001c 00000000 		.word	0
 123 0020 FFFFFFFF 		.word	-1
 124              		.text
 125              	.Letext0:
 126              		.file 2 "/usr/include/newlib/machine/_default_types.h"
 127              		.file 3 "/usr/include/newlib/sys/_stdint.h"
 128              		.file 4 "/usr/include/newlib/stdint.h"
 129              		.file 5 "../third_party/ChibiOS/os/hal/platforms/AT91SAM3S/at91lib/SAM3S.h"
 130              		.file 6 "../third_party/ChibiOS/os/hal/platforms/AT91SAM3S/pal_lld.h"
 131              		.file 7 "../third_party/ChibiOS/os/hal/platforms/AT91SAM3S/core_cm3.h"
 132              		.file 8 "../third_party/ChibiOS/os/hal/platforms/AT91SAM3S/hal_lld.h"