ARM GAS  /tmp/ccoI4Tqz.s 			page 1


   1              		.syntax unified
   2              		.cpu cortex-m3
   3              		.fpu softvfp
   4              		.eabi_attribute 20, 1
   5              		.eabi_attribute 21, 1
   6              		.eabi_attribute 23, 3
   7              		.eabi_attribute 24, 1
   8              		.eabi_attribute 25, 1
   9              		.eabi_attribute 26, 1
  10              		.eabi_attribute 30, 2
  11              		.eabi_attribute 34, 1
  12              		.eabi_attribute 18, 4
  13              		.thumb
  14              		.file	"lsm9ds1.cpp"
  15              		.text
  16              	.Ltext0:
  17              		.cfi_sections	.debug_frame
  18              		.section	.text._ZN7LSM9DS19magOffsetEhs.part.0,"ax",%progbits
  19              		.align	2
  20              		.p2align 4,,15
  21              		.thumb
  22              		.thumb_func
  23              		.type	_ZN7LSM9DS19magOffsetEhs.part.0, %function
  24              	_ZN7LSM9DS19magOffsetEhs.part.0:
  25              		.fnstart
  26              	.LFB67:
  27              		.file 1 "lsm9ds1.cpp"
  28              		.loc 1 363 0
  29              		.cfi_startproc
  30              		@ args = 0, pretend = 0, frame = 0
  31              		@ frame_needed = 0, uses_anonymous_args = 0
  32              	.LVL0:
  33 0000 70B5     		push	{r4, r5, r6, lr}
  34              		.save {r4, r5, r6, lr}
  35              		.cfi_def_cfa_offset 16
  36              		.cfi_offset 4, -16
  37              		.cfi_offset 5, -12
  38              		.cfi_offset 6, -8
  39              		.cfi_offset 14, -4
  40              		.loc 1 363 0
  41 0002 0546     		mov	r5, r0
  42 0004 1646     		mov	r6, r2
  43              	.LVL1:
  44 0006 0C46     		mov	r4, r1
  45              	.LBB203:
  46              		.loc 1 368 0
  47 0008 4A00     		lsls	r2, r1, #1
  48              	.LVL2:
  49 000a 0532     		adds	r2, r2, #5
  50              	.LBB204:
  51              	.LBB205:
  52              		.loc 1 891 0
  53 000c 95F87210 		ldrb	r1, [r5, #114]	@ zero_extendqisi2
  54              	.LVL3:
  55 0010 F3B2     		uxtb	r3, r6
  56 0012 D2B2     		uxtb	r2, r2
  57 0014 D0F88400 		ldr	r0, [r0, #132]
ARM GAS  /tmp/ccoI4Tqz.s 			page 2


  58              	.LVL4:
  59 0018 FFF7FEFF 		bl	_ZN7creator3I2C9WriteByteEhhh
  60              	.LVL5:
  61              	.LBE205:
  62              	.LBE204:
  63              		.loc 1 369 0
  64 001c E21C     		adds	r2, r4, #3
  65 001e 5200     		lsls	r2, r2, #1
  66              	.LBB206:
  67              	.LBB207:
  68              		.loc 1 891 0
  69 0020 C6F30723 		ubfx	r3, r6, #8, #8
  70 0024 D5F88400 		ldr	r0, [r5, #132]
  71 0028 95F87210 		ldrb	r1, [r5, #114]	@ zero_extendqisi2
  72 002c 02F0FE02 		and	r2, r2, #254
  73              	.LBE207:
  74              	.LBE206:
  75              	.LBE203:
  76              		.loc 1 370 0
  77 0030 BDE87040 		pop	{r4, r5, r6, lr}
  78              		.cfi_restore 14
  79              		.cfi_restore 6
  80              		.cfi_restore 5
  81              		.cfi_restore 4
  82              		.cfi_def_cfa_offset 0
  83              	.LVL6:
  84              	.LBB210:
  85              	.LBB209:
  86              	.LBB208:
  87              		.loc 1 891 0
  88 0034 FFF7FEBF 		b	_ZN7creator3I2C9WriteByteEhhh
  89              	.LVL7:
  90              	.LBE208:
  91              	.LBE209:
  92              	.LBE210:
  93              		.cfi_endproc
  94              	.LFE67:
  95              		.fnend
  96              		.size	_ZN7LSM9DS19magOffsetEhs.part.0, .-_ZN7LSM9DS19magOffsetEhs.part.0
  97              		.section	.text._ZN7LSM9DS14initE14interface_modehh,"ax",%progbits
  98              		.align	2
  99              		.p2align 4,,15
 100              		.global	_ZN7LSM9DS14initE14interface_modehh
 101              		.thumb
 102              		.thumb_func
 103              		.type	_ZN7LSM9DS14initE14interface_modehh, %function
 104              	_ZN7LSM9DS14initE14interface_modehh:
 105              		.fnstart
 106              	.LFB13:
 107              		.loc 1 42 0
 108              		.cfi_startproc
 109              		@ args = 0, pretend = 0, frame = 0
 110              		@ frame_needed = 0, uses_anonymous_args = 0
 111              	.LVL8:
 112 0000 2DE9F04F 		push	{r4, r5, r6, r7, r8, r9, r10, fp, lr}
 113              		.cfi_def_cfa_offset 36
 114              		.cfi_offset 4, -36
ARM GAS  /tmp/ccoI4Tqz.s 			page 3


 115              		.cfi_offset 5, -32
 116              		.cfi_offset 6, -28
 117              		.cfi_offset 7, -24
 118              		.cfi_offset 8, -20
 119              		.cfi_offset 9, -16
 120              		.cfi_offset 10, -12
 121              		.cfi_offset 11, -8
 122              		.cfi_offset 14, -4
 123              	.LBB211:
 124              		.loc 1 110 0
 125 0004 4FF0030C 		mov	ip, #3
 126              		.loc 1 61 0
 127 0008 0026     		movs	r6, #0
 128              		.loc 1 119 0
 129 000a E646     		mov	lr, ip
 130              	.LBB212:
 131              		.loc 1 124 0
 132 000c 3746     		mov	r7, r6
 133 000e 0546     		mov	r5, r0
 134              	.LBE212:
 135              		.loc 1 119 0
 136 0010 0446     		mov	r4, r0
 137              		.loc 1 52 0
 138 0012 4FF0F50B 		mov	fp, #245
 139              		.loc 1 43 0
 140 0016 0170     		strb	r1, [r0]
 141              		.loc 1 44 0
 142 0018 4270     		strb	r2, [r0, #1]
 143              		.loc 1 45 0
 144 001a 8370     		strb	r3, [r0, #2]
 145              		.loc 1 47 0
 146 001c 0122     		movs	r2, #1
 147              	.LVL9:
 148              		.loc 1 57 0
 149 001e 0623     		movs	r3, #6
 150              	.LVL10:
 151              		.loc 1 79 0
 152 0020 4FF0020A 		mov	r10, #2
 153              		.loc 1 89 0
 154 0024 4FF0FF09 		mov	r9, #255
 155              		.loc 1 99 0
 156 0028 4FF00408 		mov	r8, #4
 157              		.loc 1 105 0
 158 002c 0721     		movs	r1, #7
 159              	.LVL11:
 160              		.loc 1 52 0
 161 002e A0F806B0 		strh	fp, [r0, #6]	@ movhi
 162              		.loc 1 79 0
 163 0032 80F817A0 		strb	r10, [r0, #23]
 164              		.loc 1 89 0
 165 0036 80F81C90 		strb	r9, [r0, #28]
 166              		.loc 1 99 0
 167 003a 80F82080 		strb	r8, [r0, #32]
 168              		.loc 1 105 0
 169 003e 80F82110 		strb	r1, [r0, #33]
 170              		.loc 1 47 0
 171 0042 0271     		strb	r2, [r0, #4]
ARM GAS  /tmp/ccoI4Tqz.s 			page 4


 172              		.loc 1 48 0
 173 0044 4274     		strb	r2, [r0, #17]
 174              		.loc 1 49 0
 175 0046 8274     		strb	r2, [r0, #18]
 176              		.loc 1 50 0
 177 0048 C274     		strb	r2, [r0, #19]
 178              		.loc 1 72 0
 179 004a 0275     		strb	r2, [r0, #20]
 180              		.loc 1 74 0
 181 004c 8275     		strb	r2, [r0, #22]
 182              		.loc 1 75 0
 183 004e 4276     		strb	r2, [r0, #25]
 184              		.loc 1 76 0
 185 0050 8276     		strb	r2, [r0, #26]
 186              		.loc 1 77 0
 187 0052 C276     		strb	r2, [r0, #27]
 188              		.loc 1 97 0
 189 0054 C277     		strb	r2, [r0, #31]
 190              		.loc 1 57 0
 191 0056 0372     		strb	r3, [r0, #8]
 192              		.loc 1 84 0
 193 0058 0376     		strb	r3, [r0, #24]
 194              		.loc 1 61 0
 195 005a 4672     		strb	r6, [r0, #9]
 196              		.loc 1 62 0
 197 005c 8672     		strb	r6, [r0, #10]
 198              		.loc 1 63 0
 199 005e C672     		strb	r6, [r0, #11]
 200              		.loc 1 67 0
 201 0060 0673     		strb	r6, [r0, #12]
 202              		.loc 1 68 0
 203 0062 4673     		strb	r6, [r0, #13]
 204              		.loc 1 69 0
 205 0064 8673     		strb	r6, [r0, #14]
 206              		.loc 1 70 0
 207 0066 C673     		strb	r6, [r0, #15]
 208              		.loc 1 71 0
 209 0068 0674     		strb	r6, [r0, #16]
 210              		.loc 1 90 0
 211 006a 4677     		strb	r6, [r0, #29]
 212              		.loc 1 95 0
 213 006c 8677     		strb	r6, [r0, #30]
 214              		.loc 1 106 0
 215 006e 80F82260 		strb	r6, [r0, #34]
 216              		.loc 1 110 0
 217 0072 80F823C0 		strb	ip, [r0, #35]
 218              	.LBB213:
 219              		.loc 1 121 0
 220 0076 4FF0000B 		mov	fp, #0
 221              	.LBE213:
 222              		.loc 1 111 0
 223 007a 80F824C0 		strb	ip, [r0, #36]
 224              		.loc 1 112 0
 225 007e 80F82560 		strb	r6, [r0, #37]
 226              		.loc 1 119 0
 227 0082 80F82720 		strb	r2, [r0, #39]
 228              	.LVL12:
ARM GAS  /tmp/ccoI4Tqz.s 			page 5


 229              		.loc 1 117 0
 230 0086 80F82660 		strb	r6, [r0, #38]
 231              	.LVL13:
 232              	.L4:
 233              	.LBB214:
 234              		.loc 1 120 0 discriminator 3
 235 008a BEF1010E 		subs	lr, lr, #1
 236              	.LVL14:
 237              		.loc 1 121 0 discriminator 3
 238 008e C5F83CB0 		str	fp, [r5, #60]	@ float
 239              		.loc 1 122 0 discriminator 3
 240 0092 C5F848B0 		str	fp, [r5, #72]	@ float
 241              		.loc 1 123 0 discriminator 3
 242 0096 C5F854B0 		str	fp, [r5, #84]	@ float
 243              		.loc 1 124 0 discriminator 3
 244 009a 4FF00003 		mov	r3, #0	@ movhi
 245 009e A4F86070 		strh	r7, [r4, #96]	@ movhi
 246              		.loc 1 125 0 discriminator 3
 247 00a2 A4F86670 		strh	r7, [r4, #102]	@ movhi
 248              		.loc 1 126 0 discriminator 3
 249 00a6 A4F86C70 		strh	r7, [r4, #108]	@ movhi
 250              	.LVL15:
 251 00aa 05F10405 		add	r5, r5, #4
 252 00ae 04F10204 		add	r4, r4, #2
 253              		.loc 1 120 0 discriminator 3
 254 00b2 EAD1     		bne	.L4
 255              	.LBE214:
 256              		.loc 1 128 0
 257 00b4 80F88030 		strb	r3, [r0, #128]
 258 00b8 BDE8F08F 		pop	{r4, r5, r6, r7, r8, r9, r10, fp, pc}
 259              	.LBE211:
 260              		.cfi_endproc
 261              	.LFE13:
 262              		.cantunwind
 263              		.fnend
 264              		.size	_ZN7LSM9DS14initE14interface_modehh, .-_ZN7LSM9DS14initE14interface_modehh
 265              		.section	.text._ZN7LSM9DS1C2EPN7creator3I2CE,"ax",%progbits
 266              		.align	2
 267              		.p2align 4,,15
 268              		.global	_ZN7LSM9DS1C2EPN7creator3I2CE
 269              		.thumb
 270              		.thumb_func
 271              		.type	_ZN7LSM9DS1C2EPN7creator3I2CE, %function
 272              	_ZN7LSM9DS1C2EPN7creator3I2CE:
 273              		.fnstart
 274              	.LFB8:
 275              		.loc 1 32 0
 276              		.cfi_startproc
 277              		@ args = 0, pretend = 0, frame = 0
 278              		@ frame_needed = 0, uses_anonymous_args = 0
 279              	.LVL16:
 280 0000 10B5     		push	{r4, lr}
 281              		.cfi_def_cfa_offset 8
 282              		.cfi_offset 4, -8
 283              		.cfi_offset 14, -4
 284              		.loc 1 32 0
 285 0002 0446     		mov	r4, r0
ARM GAS  /tmp/ccoI4Tqz.s 			page 6


 286              	.LBB215:
 287 0004 C0F88410 		str	r1, [r0, #132]
 288              		.loc 1 33 0
 289 0008 6B22     		movs	r2, #107
 290 000a 1E23     		movs	r3, #30
 291 000c 0121     		movs	r1, #1
 292              	.LVL17:
 293 000e FFF7FEFF 		bl	_ZN7LSM9DS14initE14interface_modehh
 294              	.LVL18:
 295              	.LBE215:
 296              		.loc 1 34 0
 297 0012 2046     		mov	r0, r4
 298 0014 10BD     		pop	{r4, pc}
 299              		.cfi_endproc
 300              	.LFE8:
 301              		.cantunwind
 302              		.fnend
 303              		.size	_ZN7LSM9DS1C2EPN7creator3I2CE, .-_ZN7LSM9DS1C2EPN7creator3I2CE
 304              		.global	_ZN7LSM9DS1C1EPN7creator3I2CE
 305              		.thumb_set _ZN7LSM9DS1C1EPN7creator3I2CE,_ZN7LSM9DS1C2EPN7creator3I2CE
 306 0016 00BF     		.section	.text._ZN7LSM9DS1C2EPN7creator3I2CE14interface_modehh,"ax",%progbits
 307              		.align	2
 308              		.p2align 4,,15
 309              		.global	_ZN7LSM9DS1C2EPN7creator3I2CE14interface_modehh
 310              		.thumb
 311              		.thumb_func
 312              		.type	_ZN7LSM9DS1C2EPN7creator3I2CE14interface_modehh, %function
 313              	_ZN7LSM9DS1C2EPN7creator3I2CE14interface_modehh:
 314              		.fnstart
 315              	.LFB11:
 316              		.loc 1 36 0
 317              		.cfi_startproc
 318              		@ args = 4, pretend = 0, frame = 0
 319              		@ frame_needed = 0, uses_anonymous_args = 0
 320              	.LVL19:
 321 0000 38B5     		push	{r3, r4, r5, lr}
 322              		.cfi_def_cfa_offset 16
 323              		.cfi_offset 3, -16
 324              		.cfi_offset 4, -12
 325              		.cfi_offset 5, -8
 326              		.cfi_offset 14, -4
 327              		.loc 1 36 0
 328 0002 0446     		mov	r4, r0
 329 0004 9DF81050 		ldrb	r5, [sp, #16]	@ zero_extendqisi2
 330              	.LBB216:
 331              		.loc 1 38 0
 332 0008 C0F88410 		str	r1, [r0, #132]
 333              		.loc 1 39 0
 334 000c 1146     		mov	r1, r2
 335              	.LVL20:
 336 000e 1A46     		mov	r2, r3
 337              	.LVL21:
 338 0010 2B46     		mov	r3, r5
 339              	.LVL22:
 340 0012 FFF7FEFF 		bl	_ZN7LSM9DS14initE14interface_modehh
 341              	.LVL23:
 342              	.LBE216:
ARM GAS  /tmp/ccoI4Tqz.s 			page 7


 343              		.loc 1 40 0
 344 0016 2046     		mov	r0, r4
 345 0018 38BD     		pop	{r3, r4, r5, pc}
 346              		.cfi_endproc
 347              	.LFE11:
 348              		.cantunwind
 349              		.fnend
 350              		.size	_ZN7LSM9DS1C2EPN7creator3I2CE14interface_modehh, .-_ZN7LSM9DS1C2EPN7creator3I2CE14interface_
 351              		.global	_ZN7LSM9DS1C1EPN7creator3I2CE14interface_modehh
 352              		.thumb_set _ZN7LSM9DS1C1EPN7creator3I2CE14interface_modehh,_ZN7LSM9DS1C2EPN7creator3I2CE14interfac
 353 001a 00BF     		.section	.text._ZN7LSM9DS18initGyroEv,"ax",%progbits
 354              		.align	2
 355              		.p2align 4,,15
 356              		.global	_ZN7LSM9DS18initGyroEv
 357              		.thumb
 358              		.thumb_func
 359              		.type	_ZN7LSM9DS18initGyroEv, %function
 360              	_ZN7LSM9DS18initGyroEv:
 361              		.fnstart
 362              	.LFB15:
 363              		.loc 1 164 0
 364              		.cfi_startproc
 365              		@ args = 0, pretend = 0, frame = 0
 366              		@ frame_needed = 0, uses_anonymous_args = 0
 367              	.LVL24:
 368 0000 10B5     		push	{r4, lr}
 369              		.save {r4, lr}
 370              		.cfi_def_cfa_offset 8
 371              		.cfi_offset 4, -8
 372              		.cfi_offset 14, -4
 373              	.LBB217:
 374              		.loc 1 175 0
 375 0002 0279     		ldrb	r2, [r0, #4]	@ zero_extendqisi2
 376              	.LBE217:
 377              		.loc 1 164 0
 378 0004 0446     		mov	r4, r0
 379              	.LBB232:
 380              		.loc 1 175 0
 381 0006 12B1     		cbz	r2, .L13
 382              		.loc 1 176 0
 383 0008 027A     		ldrb	r2, [r0, #8]	@ zero_extendqisi2
 384 000a 5201     		lsls	r2, r2, #5
 385 000c D2B2     		uxtb	r2, r2
 386              	.LVL25:
 387              	.L13:
 388              		.loc 1 178 0
 389 000e E388     		ldrh	r3, [r4, #6]
 390 0010 B3F5FA7F 		cmp	r3, #500
 391 0014 5CD0     		beq	.L15
 392 0016 B3F5FA6F 		cmp	r3, #2000
 393 001a 56D0     		beq	.L16
 394              	.L14:
 395              		.loc 1 187 0
 396 001c 637A     		ldrb	r3, [r4, #9]	@ zero_extendqisi2
 397              	.LBB218:
 398              	.LBB219:
 399              		.loc 1 887 0
ARM GAS  /tmp/ccoI4Tqz.s 			page 8


 400 001e D4F88400 		ldr	r0, [r4, #132]
 401              	.LVL26:
 402              	.LBE219:
 403              	.LBE218:
 404              		.loc 1 187 0
 405 0022 03F00303 		and	r3, r3, #3
 406              	.LVL27:
 407              	.LBB221:
 408              	.LBB220:
 409              		.loc 1 887 0
 410 0026 1343     		orrs	r3, r3, r2
 411              	.LVL28:
 412 0028 94F87310 		ldrb	r1, [r4, #115]	@ zero_extendqisi2
 413 002c 1022     		movs	r2, #16
 414              	.LVL29:
 415 002e FFF7FEFF 		bl	_ZN7creator3I2C9WriteByteEhhh
 416              	.LVL30:
 417              	.LBE220:
 418              	.LBE221:
 419              	.LBB222:
 420              	.LBB223:
 421 0032 1122     		movs	r2, #17
 422 0034 0023     		movs	r3, #0
 423 0036 D4F88400 		ldr	r0, [r4, #132]
 424 003a 94F87310 		ldrb	r1, [r4, #115]	@ zero_extendqisi2
 425 003e FFF7FEFF 		bl	_ZN7creator3I2C9WriteByteEhhh
 426              	.LVL31:
 427              	.LBE223:
 428              	.LBE222:
 429              		.loc 1 201 0
 430 0042 A37A     		ldrb	r3, [r4, #10]	@ zero_extendqisi2
 431              		.loc 1 202 0
 432 0044 E27A     		ldrb	r2, [r4, #11]	@ zero_extendqisi2
 433              		.loc 1 201 0
 434 0046 002B     		cmp	r3, #0
 435 0048 14BF     		ite	ne
 436 004a 8023     		movne	r3, #128
 437 004c 0023     		moveq	r3, #0
 438              	.LVL32:
 439              		.loc 1 202 0
 440 004e 2AB1     		cbz	r2, .L18
 441              		.loc 1 203 0
 442 0050 227B     		ldrb	r2, [r4, #12]	@ zero_extendqisi2
 443 0052 02F00F02 		and	r2, r2, #15
 444 0056 42F04002 		orr	r2, r2, #64
 445 005a 1343     		orrs	r3, r3, r2
 446              	.LVL33:
 447              	.L18:
 448              	.LBB224:
 449              	.LBB225:
 450              		.loc 1 887 0
 451 005c 1222     		movs	r2, #18
 452 005e D4F88400 		ldr	r0, [r4, #132]
 453 0062 94F87310 		ldrb	r1, [r4, #115]	@ zero_extendqisi2
 454 0066 FFF7FEFF 		bl	_ZN7creator3I2C9WriteByteEhhh
 455              	.LVL34:
 456              	.LBE225:
ARM GAS  /tmp/ccoI4Tqz.s 			page 9


 457              	.LBE224:
 458              		.loc 1 215 0
 459 006a E37C     		ldrb	r3, [r4, #19]	@ zero_extendqisi2
 460              		.loc 1 216 0
 461 006c A27C     		ldrb	r2, [r4, #18]	@ zero_extendqisi2
 462              		.loc 1 215 0
 463 006e 002B     		cmp	r3, #0
 464 0070 0CBF     		ite	eq
 465 0072 0023     		moveq	r3, #0
 466 0074 2023     		movne	r3, #32
 467              	.LVL35:
 468              		.loc 1 216 0
 469 0076 12B1     		cbz	r2, .L20
 470              		.loc 1 216 0 is_stmt 0 discriminator 1
 471 0078 43F01003 		orr	r3, r3, #16
 472              	.LVL36:
 473 007c DBB2     		uxtb	r3, r3
 474              	.LVL37:
 475              	.L20:
 476              		.loc 1 217 0 is_stmt 1
 477 007e 627C     		ldrb	r2, [r4, #17]	@ zero_extendqisi2
 478 0080 0AB1     		cbz	r2, .L21
 479              		.loc 1 217 0 is_stmt 0 discriminator 1
 480 0082 43F00803 		orr	r3, r3, #8
 481              	.LVL38:
 482              	.L21:
 483              		.loc 1 218 0 is_stmt 1
 484 0086 227D     		ldrb	r2, [r4, #20]	@ zero_extendqisi2
 485 0088 0AB1     		cbz	r2, .L22
 486              		.loc 1 218 0 is_stmt 0 discriminator 1
 487 008a 43F00203 		orr	r3, r3, #2
 488              	.LVL39:
 489              	.L22:
 490              	.LBB226:
 491              	.LBB227:
 492              		.loc 1 887 0 is_stmt 1
 493 008e 1E22     		movs	r2, #30
 494 0090 D4F88400 		ldr	r0, [r4, #132]
 495 0094 94F87310 		ldrb	r1, [r4, #115]	@ zero_extendqisi2
 496 0098 FFF7FEFF 		bl	_ZN7creator3I2C9WriteByteEhhh
 497              	.LVL40:
 498              	.LBE227:
 499              	.LBE226:
 500              		.loc 1 226 0
 501 009c 637B     		ldrb	r3, [r4, #13]	@ zero_extendqisi2
 502              		.loc 1 227 0
 503 009e A27B     		ldrb	r2, [r4, #14]	@ zero_extendqisi2
 504              		.loc 1 226 0
 505 00a0 002B     		cmp	r3, #0
 506 00a2 0CBF     		ite	eq
 507 00a4 0023     		moveq	r3, #0
 508 00a6 2023     		movne	r3, #32
 509              	.LVL41:
 510              		.loc 1 227 0
 511 00a8 12B1     		cbz	r2, .L24
 512              		.loc 1 227 0 is_stmt 0 discriminator 1
 513 00aa 43F01003 		orr	r3, r3, #16
ARM GAS  /tmp/ccoI4Tqz.s 			page 10


 514              	.LVL42:
 515 00ae DBB2     		uxtb	r3, r3
 516              	.LVL43:
 517              	.L24:
 518              		.loc 1 228 0 is_stmt 1
 519 00b0 E27B     		ldrb	r2, [r4, #15]	@ zero_extendqisi2
 520 00b2 0AB1     		cbz	r2, .L25
 521              		.loc 1 228 0 is_stmt 0 discriminator 1
 522 00b4 43F00803 		orr	r3, r3, #8
 523              	.LVL44:
 524              	.L25:
 525              	.LBB228:
 526              	.LBB229:
 527              		.loc 1 887 0 is_stmt 1
 528 00b8 D4F88400 		ldr	r0, [r4, #132]
 529 00bc 94F87310 		ldrb	r1, [r4, #115]	@ zero_extendqisi2
 530 00c0 1322     		movs	r2, #19
 531              	.LBE229:
 532              	.LBE228:
 533              	.LBE232:
 534              		.loc 1 230 0
 535 00c2 BDE81040 		pop	{r4, lr}
 536              		.cfi_remember_state
 537              		.cfi_restore 14
 538              		.cfi_restore 4
 539              		.cfi_def_cfa_offset 0
 540              	.LVL45:
 541              	.LBB233:
 542              	.LBB231:
 543              	.LBB230:
 544              		.loc 1 887 0
 545 00c6 FFF7FEBF 		b	_ZN7creator3I2C9WriteByteEhhh
 546              	.LVL46:
 547              	.L16:
 548              		.cfi_restore_state
 549              	.LBE230:
 550              	.LBE231:
 551              		.loc 1 183 0
 552 00ca 42F01802 		orr	r2, r2, #24
 553              	.LVL47:
 554              		.loc 1 184 0
 555 00ce A5E7     		b	.L14
 556              	.L15:
 557              		.loc 1 180 0
 558 00d0 42F00802 		orr	r2, r2, #8
 559              	.LVL48:
 560              		.loc 1 181 0
 561 00d4 A2E7     		b	.L14
 562              	.LBE233:
 563              		.cfi_endproc
 564              	.LFE15:
 565              		.fnend
 566              		.size	_ZN7LSM9DS18initGyroEv, .-_ZN7LSM9DS18initGyroEv
 567              		.section	.text._ZN7LSM9DS19initAccelEv,"ax",%progbits
 568              		.align	2
 569              		.p2align 4,,15
 570              		.global	_ZN7LSM9DS19initAccelEv
ARM GAS  /tmp/ccoI4Tqz.s 			page 11


 571              		.thumb
 572              		.thumb_func
 573              		.type	_ZN7LSM9DS19initAccelEv, %function
 574              	_ZN7LSM9DS19initAccelEv:
 575              		.fnstart
 576              	.LFB16:
 577              		.loc 1 232 0
 578              		.cfi_startproc
 579              		@ args = 0, pretend = 0, frame = 0
 580              		@ frame_needed = 0, uses_anonymous_args = 0
 581              	.LVL49:
 582 0000 10B5     		push	{r4, lr}
 583              		.save {r4, lr}
 584              		.cfi_def_cfa_offset 8
 585              		.cfi_offset 4, -8
 586              		.cfi_offset 14, -4
 587              	.LBB234:
 588              		.loc 1 242 0
 589 0002 C37E     		ldrb	r3, [r0, #27]	@ zero_extendqisi2
 590              		.loc 1 243 0
 591 0004 827E     		ldrb	r2, [r0, #26]	@ zero_extendqisi2
 592              		.loc 1 242 0
 593 0006 002B     		cmp	r3, #0
 594              	.LBE234:
 595              		.loc 1 232 0
 596 0008 0446     		mov	r4, r0
 597              	.LBB243:
 598              		.loc 1 242 0
 599 000a 0CBF     		ite	eq
 600 000c 0023     		moveq	r3, #0
 601 000e 2023     		movne	r3, #32
 602              	.LVL50:
 603              		.loc 1 243 0
 604 0010 12B1     		cbz	r2, .L51
 605              		.loc 1 243 0 is_stmt 0 discriminator 1
 606 0012 43F01003 		orr	r3, r3, #16
 607              	.LVL51:
 608 0016 DBB2     		uxtb	r3, r3
 609              	.LVL52:
 610              	.L51:
 611              		.loc 1 244 0 is_stmt 1
 612 0018 627E     		ldrb	r2, [r4, #25]	@ zero_extendqisi2
 613 001a 0AB1     		cbz	r2, .L52
 614              		.loc 1 244 0 is_stmt 0 discriminator 1
 615 001c 43F00803 		orr	r3, r3, #8
 616              	.LVL53:
 617              	.L52:
 618              	.LBB235:
 619              	.LBB236:
 620              		.loc 1 887 0 is_stmt 1
 621 0020 D4F88400 		ldr	r0, [r4, #132]
 622              	.LVL54:
 623 0024 94F87310 		ldrb	r1, [r4, #115]	@ zero_extendqisi2
 624 0028 1F22     		movs	r2, #31
 625 002a FFF7FEFF 		bl	_ZN7creator3I2C9WriteByteEhhh
 626              	.LVL55:
 627              	.LBE236:
ARM GAS  /tmp/ccoI4Tqz.s 			page 12


 628              	.LBE235:
 629              		.loc 1 256 0
 630 002e A37D     		ldrb	r3, [r4, #22]	@ zero_extendqisi2
 631 0030 13B1     		cbz	r3, .L53
 632              		.loc 1 257 0
 633 0032 237E     		ldrb	r3, [r4, #24]	@ zero_extendqisi2
 634 0034 5B01     		lsls	r3, r3, #5
 635 0036 DBB2     		uxtb	r3, r3
 636              	.LVL56:
 637              	.L53:
 638              		.loc 1 259 0
 639 0038 E27D     		ldrb	r2, [r4, #23]	@ zero_extendqisi2
 640 003a 082A     		cmp	r2, #8
 641 003c 2AD0     		beq	.L55
 642 003e 102A     		cmp	r2, #16
 643 0040 25D0     		beq	.L56
 644 0042 042A     		cmp	r2, #4
 645 0044 20D0     		beq	.L70
 646              	.L54:
 647              		.loc 1 271 0
 648 0046 227F     		ldrb	r2, [r4, #28]	@ zero_extendqisi2
 649 0048 1106     		lsls	r1, r2, #24
 650 004a 05D4     		bmi	.L58
 651              	.LVL57:
 652              		.loc 1 273 0
 653 004c 02F00302 		and	r2, r2, #3
 654 0050 1343     		orrs	r3, r3, r2
 655              	.LVL58:
 656 0052 43F00403 		orr	r3, r3, #4
 657 0056 DBB2     		uxtb	r3, r3
 658              	.LVL59:
 659              	.L58:
 660              	.LBB237:
 661              	.LBB238:
 662              		.loc 1 887 0
 663 0058 D4F88400 		ldr	r0, [r4, #132]
 664 005c 94F87310 		ldrb	r1, [r4, #115]	@ zero_extendqisi2
 665 0060 2022     		movs	r2, #32
 666 0062 FFF7FEFF 		bl	_ZN7creator3I2C9WriteByteEhhh
 667              	.LVL60:
 668              	.LBE238:
 669              	.LBE237:
 670              		.loc 1 284 0
 671 0066 637F     		ldrb	r3, [r4, #29]	@ zero_extendqisi2
 672 0068 2BB1     		cbz	r3, .L59
 673              	.LVL61:
 674              		.loc 1 286 0
 675 006a A37F     		ldrb	r3, [r4, #30]	@ zero_extendqisi2
 676 006c 03F00303 		and	r3, r3, #3
 677 0070 5B01     		lsls	r3, r3, #5
 678 0072 43F08003 		orr	r3, r3, #128
 679              	.LVL62:
 680              	.L59:
 681              	.LBB239:
 682              	.LBB240:
 683              		.loc 1 887 0
 684 0076 D4F88400 		ldr	r0, [r4, #132]
ARM GAS  /tmp/ccoI4Tqz.s 			page 13


 685 007a 94F87310 		ldrb	r1, [r4, #115]	@ zero_extendqisi2
 686 007e 2122     		movs	r2, #33
 687              	.LBE240:
 688              	.LBE239:
 689              	.LBE243:
 690              		.loc 1 289 0
 691 0080 BDE81040 		pop	{r4, lr}
 692              		.cfi_remember_state
 693              		.cfi_restore 14
 694              		.cfi_restore 4
 695              		.cfi_def_cfa_offset 0
 696              	.LVL63:
 697              	.LBB244:
 698              	.LBB242:
 699              	.LBB241:
 700              		.loc 1 887 0
 701 0084 FFF7FEBF 		b	_ZN7creator3I2C9WriteByteEhhh
 702              	.LVL64:
 703              	.L70:
 704              		.cfi_restore_state
 705              	.LBE241:
 706              	.LBE242:
 707              		.loc 1 261 0
 708 0088 43F01003 		orr	r3, r3, #16
 709              	.LVL65:
 710              		.loc 1 262 0
 711 008c DBE7     		b	.L54
 712              	.L56:
 713              		.loc 1 267 0
 714 008e 43F00803 		orr	r3, r3, #8
 715              	.LVL66:
 716              		.loc 1 268 0
 717 0092 D8E7     		b	.L54
 718              	.L55:
 719              		.loc 1 264 0
 720 0094 43F01803 		orr	r3, r3, #24
 721              	.LVL67:
 722              		.loc 1 265 0
 723 0098 D5E7     		b	.L54
 724              	.LBE244:
 725              		.cfi_endproc
 726              	.LFE16:
 727              		.fnend
 728              		.size	_ZN7LSM9DS19initAccelEv, .-_ZN7LSM9DS19initAccelEv
 729 009a 00BF     		.section	.text._ZN7LSM9DS19magOffsetEhs,"ax",%progbits
 730              		.align	2
 731              		.p2align 4,,15
 732              		.global	_ZN7LSM9DS19magOffsetEhs
 733              		.thumb
 734              		.thumb_func
 735              		.type	_ZN7LSM9DS19magOffsetEhs, %function
 736              	_ZN7LSM9DS19magOffsetEhs:
 737              		.fnstart
 738              	.LFB19:
 739              		.loc 1 363 0
 740              		.cfi_startproc
 741              		@ args = 0, pretend = 0, frame = 0
ARM GAS  /tmp/ccoI4Tqz.s 			page 14


 742              		@ frame_needed = 0, uses_anonymous_args = 0
 743              		@ link register save eliminated.
 744              	.LVL68:
 745              	.LBB245:
 746              		.loc 1 364 0
 747 0000 0229     		cmp	r1, #2
 748 0002 00D9     		bls	.L73
 749 0004 7047     		bx	lr
 750              	.L73:
 751              	.LBE245:
 752 0006 FFF7FEBF 		b	_ZN7LSM9DS19magOffsetEhs.part.0
 753              	.LVL69:
 754              		.cfi_endproc
 755              	.LFE19:
 756              		.cantunwind
 757              		.fnend
 758              		.size	_ZN7LSM9DS19magOffsetEhs, .-_ZN7LSM9DS19magOffsetEhs
 759 000a 00BF     		.section	.text._ZN7LSM9DS17initMagEv,"ax",%progbits
 760              		.align	2
 761              		.p2align 4,,15
 762              		.global	_ZN7LSM9DS17initMagEv
 763              		.thumb
 764              		.thumb_func
 765              		.type	_ZN7LSM9DS17initMagEv, %function
 766              	_ZN7LSM9DS17initMagEv:
 767              		.fnstart
 768              	.LFB20:
 769              		.loc 1 372 0
 770              		.cfi_startproc
 771              		@ args = 0, pretend = 0, frame = 0
 772              		@ frame_needed = 0, uses_anonymous_args = 0
 773              	.LVL70:
 774 0000 10B5     		push	{r4, lr}
 775              		.save {r4, lr}
 776              		.cfi_def_cfa_offset 8
 777              		.cfi_offset 4, -8
 778              		.cfi_offset 14, -4
 779              		.loc 1 372 0
 780 0002 0446     		mov	r4, r0
 781              	.LBB246:
 782              		.loc 1 383 0
 783 0004 90F82230 		ldrb	r3, [r0, #34]	@ zero_extendqisi2
 784              		.loc 1 384 0
 785 0008 90F82320 		ldrb	r2, [r0, #35]	@ zero_extendqisi2
 786              		.loc 1 383 0
 787 000c 002B     		cmp	r3, #0
 788              		.loc 1 385 0
 789 000e 90F82130 		ldrb	r3, [r0, #33]	@ zero_extendqisi2
 790              		.loc 1 384 0
 791 0012 02F00302 		and	r2, r2, #3
 792 0016 4FEA4212 		lsl	r2, r2, #5
 793              		.loc 1 385 0
 794 001a 03F00703 		and	r3, r3, #7
 795              		.loc 1 383 0
 796 001e 0CBF     		ite	eq
 797 0020 0021     		moveq	r1, #0
 798 0022 8021     		movne	r1, #128
ARM GAS  /tmp/ccoI4Tqz.s 			page 15


 799              	.LVL71:
 800 0024 42EA8303 		orr	r3, r2, r3, lsl #2
 801              	.LBB247:
 802              	.LBB248:
 803              		.loc 1 891 0
 804 0028 0B43     		orrs	r3, r3, r1
 805 002a 2022     		movs	r2, #32
 806 002c 94F87210 		ldrb	r1, [r4, #114]	@ zero_extendqisi2
 807              	.LVL72:
 808 0030 D0F88400 		ldr	r0, [r0, #132]
 809              	.LVL73:
 810 0034 FFF7FEFF 		bl	_ZN7creator3I2C9WriteByteEhhh
 811              	.LVL74:
 812 0038 94F82030 		ldrb	r3, [r4, #32]	@ zero_extendqisi2
 813              	.LBE248:
 814              	.LBE247:
 815              	.LBB249:
 816              	.LBB250:
 817 003c D4F88400 		ldr	r0, [r4, #132]
 818 0040 083B     		subs	r3, r3, #8
 819 0042 DBB2     		uxtb	r3, r3
 820 0044 082B     		cmp	r3, #8
 821 0046 96BF     		itet	ls
 822 0048 174A     		ldrls	r2, .L82
 823              	.LBE250:
 824              	.LBE249:
 825              		.loc 1 394 0
 826 004a 0023     		movhi	r3, #0
 827 004c D35C     		ldrbls	r3, [r2, r3]	@ zero_extendqisi2
 828              	.LVL75:
 829              	.LBB252:
 830              	.LBB251:
 831              		.loc 1 891 0
 832 004e 94F87210 		ldrb	r1, [r4, #114]	@ zero_extendqisi2
 833 0052 2122     		movs	r2, #33
 834 0054 FFF7FEFF 		bl	_ZN7creator3I2C9WriteByteEhhh
 835              	.LVL76:
 836              	.LBE251:
 837              	.LBE252:
 838              		.loc 1 417 0
 839 0058 94F82520 		ldrb	r2, [r4, #37]	@ zero_extendqisi2
 840              		.loc 1 418 0
 841 005c 94F82630 		ldrb	r3, [r4, #38]	@ zero_extendqisi2
 842              		.loc 1 417 0
 843 0060 002A     		cmp	r2, #0
 844 0062 0CBF     		ite	eq
 845 0064 0022     		moveq	r2, #0
 846 0066 2022     		movne	r2, #32
 847              	.LVL77:
 848              		.loc 1 418 0
 849 0068 03F00303 		and	r3, r3, #3
 850              	.LBB253:
 851              	.LBB254:
 852              		.loc 1 891 0
 853 006c 1343     		orrs	r3, r3, r2
 854 006e D4F88400 		ldr	r0, [r4, #132]
 855 0072 94F87210 		ldrb	r1, [r4, #114]	@ zero_extendqisi2
ARM GAS  /tmp/ccoI4Tqz.s 			page 16


 856 0076 2222     		movs	r2, #34
 857              	.LVL78:
 858 0078 FFF7FEFF 		bl	_ZN7creator3I2C9WriteByteEhhh
 859              	.LVL79:
 860              	.LBE254:
 861              	.LBE253:
 862              		.loc 1 428 0
 863 007c 94F82430 		ldrb	r3, [r4, #36]	@ zero_extendqisi2
 864              	.LBB255:
 865              	.LBB256:
 866              		.loc 1 891 0
 867 0080 D4F88400 		ldr	r0, [r4, #132]
 868              	.LBE256:
 869              	.LBE255:
 870              		.loc 1 428 0
 871 0084 03F00303 		and	r3, r3, #3
 872              	.LBB258:
 873              	.LBB257:
 874              		.loc 1 891 0
 875 0088 94F87210 		ldrb	r1, [r4, #114]	@ zero_extendqisi2
 876 008c 9B00     		lsls	r3, r3, #2
 877 008e 2322     		movs	r2, #35
 878 0090 FFF7FEFF 		bl	_ZN7creator3I2C9WriteByteEhhh
 879              	.LVL80:
 880              	.LBE257:
 881              	.LBE258:
 882              	.LBB259:
 883              	.LBB260:
 884 0094 D4F88400 		ldr	r0, [r4, #132]
 885 0098 94F87210 		ldrb	r1, [r4, #114]	@ zero_extendqisi2
 886 009c 2422     		movs	r2, #36
 887 009e 0023     		movs	r3, #0
 888              	.LBE260:
 889              	.LBE259:
 890              	.LBE246:
 891              		.loc 1 437 0
 892 00a0 BDE81040 		pop	{r4, lr}
 893              		.cfi_restore 14
 894              		.cfi_restore 4
 895              		.cfi_def_cfa_offset 0
 896              	.LVL81:
 897              	.LBB263:
 898              	.LBB262:
 899              	.LBB261:
 900              		.loc 1 891 0
 901 00a4 FFF7FEBF 		b	_ZN7creator3I2C9WriteByteEhhh
 902              	.LVL82:
 903              	.L83:
 904              		.align	2
 905              	.L82:
 906 00a8 00000000 		.word	.LANCHOR0
 907              	.LBE261:
 908              	.LBE262:
 909              	.LBE263:
 910              		.cfi_endproc
 911              	.LFE20:
 912              		.fnend
ARM GAS  /tmp/ccoI4Tqz.s 			page 17


 913              		.size	_ZN7LSM9DS17initMagEv, .-_ZN7LSM9DS17initMagEv
 914              		.section	.text._ZN7LSM9DS114accelAvailableEv,"ax",%progbits
 915              		.align	2
 916              		.p2align 4,,15
 917              		.global	_ZN7LSM9DS114accelAvailableEv
 918              		.thumb
 919              		.thumb_func
 920              		.type	_ZN7LSM9DS114accelAvailableEv, %function
 921              	_ZN7LSM9DS114accelAvailableEv:
 922              		.fnstart
 923              	.LFB21:
 924              		.loc 1 439 0
 925              		.cfi_startproc
 926              		@ args = 0, pretend = 0, frame = 0
 927              		@ frame_needed = 0, uses_anonymous_args = 0
 928              	.LVL83:
 929 0000 08B5     		push	{r3, lr}
 930              		.save {r3, lr}
 931              		.cfi_def_cfa_offset 8
 932              		.cfi_offset 3, -8
 933              		.cfi_offset 14, -4
 934              		.loc 1 439 0
 935 0002 0346     		mov	r3, r0
 936              	.LVL84:
 937              	.LBB264:
 938              	.LBB265:
 939              	.LBB266:
 940              		.loc 1 895 0
 941 0004 2722     		movs	r2, #39
 942 0006 93F87310 		ldrb	r1, [r3, #115]	@ zero_extendqisi2
 943 000a D0F88400 		ldr	r0, [r0, #132]
 944              	.LVL85:
 945 000e FFF7FEFF 		bl	_ZN7creator3I2C8ReadByteEhh
 946              	.LVL86:
 947              	.LBE266:
 948              	.LBE265:
 949              	.LBE264:
 950              		.loc 1 443 0
 951 0012 00F00100 		and	r0, r0, #1
 952              	.LVL87:
 953 0016 08BD     		pop	{r3, pc}
 954              		.cfi_endproc
 955              	.LFE21:
 956              		.fnend
 957              		.size	_ZN7LSM9DS114accelAvailableEv, .-_ZN7LSM9DS114accelAvailableEv
 958              		.section	.text._ZN7LSM9DS113gyroAvailableEv,"ax",%progbits
 959              		.align	2
 960              		.p2align 4,,15
 961              		.global	_ZN7LSM9DS113gyroAvailableEv
 962              		.thumb
 963              		.thumb_func
 964              		.type	_ZN7LSM9DS113gyroAvailableEv, %function
 965              	_ZN7LSM9DS113gyroAvailableEv:
 966              		.fnstart
 967              	.LFB22:
 968              		.loc 1 445 0
 969              		.cfi_startproc
ARM GAS  /tmp/ccoI4Tqz.s 			page 18


 970              		@ args = 0, pretend = 0, frame = 0
 971              		@ frame_needed = 0, uses_anonymous_args = 0
 972              	.LVL88:
 973 0000 08B5     		push	{r3, lr}
 974              		.save {r3, lr}
 975              		.cfi_def_cfa_offset 8
 976              		.cfi_offset 3, -8
 977              		.cfi_offset 14, -4
 978              		.loc 1 445 0
 979 0002 0346     		mov	r3, r0
 980              	.LVL89:
 981              	.LBB267:
 982              	.LBB268:
 983              	.LBB269:
 984              		.loc 1 895 0
 985 0004 2722     		movs	r2, #39
 986 0006 93F87310 		ldrb	r1, [r3, #115]	@ zero_extendqisi2
 987 000a D0F88400 		ldr	r0, [r0, #132]
 988              	.LVL90:
 989 000e FFF7FEFF 		bl	_ZN7creator3I2C8ReadByteEhh
 990              	.LVL91:
 991              	.LBE269:
 992              	.LBE268:
 993              	.LBE267:
 994              		.loc 1 449 0
 995 0012 C0F34000 		ubfx	r0, r0, #1, #1
 996              	.LVL92:
 997 0016 08BD     		pop	{r3, pc}
 998              		.cfi_endproc
 999              	.LFE22:
 1000              		.fnend
 1001              		.size	_ZN7LSM9DS113gyroAvailableEv, .-_ZN7LSM9DS113gyroAvailableEv
 1002              		.section	.text._ZN7LSM9DS113tempAvailableEv,"ax",%progbits
 1003              		.align	2
 1004              		.p2align 4,,15
 1005              		.global	_ZN7LSM9DS113tempAvailableEv
 1006              		.thumb
 1007              		.thumb_func
 1008              		.type	_ZN7LSM9DS113tempAvailableEv, %function
 1009              	_ZN7LSM9DS113tempAvailableEv:
 1010              		.fnstart
 1011              	.LFB23:
 1012              		.loc 1 451 0
 1013              		.cfi_startproc
 1014              		@ args = 0, pretend = 0, frame = 0
 1015              		@ frame_needed = 0, uses_anonymous_args = 0
 1016              	.LVL93:
 1017 0000 08B5     		push	{r3, lr}
 1018              		.save {r3, lr}
 1019              		.cfi_def_cfa_offset 8
 1020              		.cfi_offset 3, -8
 1021              		.cfi_offset 14, -4
 1022              		.loc 1 451 0
 1023 0002 0346     		mov	r3, r0
 1024              	.LVL94:
 1025              	.LBB270:
 1026              	.LBB271:
ARM GAS  /tmp/ccoI4Tqz.s 			page 19


 1027              	.LBB272:
 1028              		.loc 1 895 0
 1029 0004 2722     		movs	r2, #39
 1030 0006 93F87310 		ldrb	r1, [r3, #115]	@ zero_extendqisi2
 1031 000a D0F88400 		ldr	r0, [r0, #132]
 1032              	.LVL95:
 1033 000e FFF7FEFF 		bl	_ZN7creator3I2C8ReadByteEhh
 1034              	.LVL96:
 1035              	.LBE272:
 1036              	.LBE271:
 1037              	.LBE270:
 1038              		.loc 1 455 0
 1039 0012 C0F38000 		ubfx	r0, r0, #2, #1
 1040              	.LVL97:
 1041 0016 08BD     		pop	{r3, pc}
 1042              		.cfi_endproc
 1043              	.LFE23:
 1044              		.fnend
 1045              		.size	_ZN7LSM9DS113tempAvailableEv, .-_ZN7LSM9DS113tempAvailableEv
 1046              		.section	.text._ZN7LSM9DS112magAvailableE12lsm9ds1_axis,"ax",%progbits
 1047              		.align	2
 1048              		.p2align 4,,15
 1049              		.global	_ZN7LSM9DS112magAvailableE12lsm9ds1_axis
 1050              		.thumb
 1051              		.thumb_func
 1052              		.type	_ZN7LSM9DS112magAvailableE12lsm9ds1_axis, %function
 1053              	_ZN7LSM9DS112magAvailableE12lsm9ds1_axis:
 1054              		.fnstart
 1055              	.LFB24:
 1056              		.loc 1 457 0
 1057              		.cfi_startproc
 1058              		@ args = 0, pretend = 0, frame = 0
 1059              		@ frame_needed = 0, uses_anonymous_args = 0
 1060              	.LVL98:
 1061 0000 0346     		mov	r3, r0
 1062              	.LVL99:
 1063 0002 10B5     		push	{r4, lr}
 1064              		.save {r4, lr}
 1065              		.cfi_def_cfa_offset 8
 1066              		.cfi_offset 4, -8
 1067              		.cfi_offset 14, -4
 1068              	.LBB273:
 1069              	.LBB274:
 1070              	.LBB275:
 1071              		.loc 1 903 0
 1072 0004 2722     		movs	r2, #39
 1073              	.LBE275:
 1074              	.LBE274:
 1075              	.LBE273:
 1076              		.loc 1 457 0
 1077 0006 0C46     		mov	r4, r1
 1078              	.LBB278:
 1079              	.LBB277:
 1080              	.LBB276:
 1081              		.loc 1 903 0
 1082 0008 D0F88400 		ldr	r0, [r0, #132]
 1083              	.LVL100:
ARM GAS  /tmp/ccoI4Tqz.s 			page 20


 1084 000c 93F87210 		ldrb	r1, [r3, #114]	@ zero_extendqisi2
 1085              	.LVL101:
 1086 0010 FFF7FEFF 		bl	_ZN7creator3I2C8ReadByteEhh
 1087              	.LVL102:
 1088              	.LBE276:
 1089              	.LBE277:
 1090              		.loc 1 461 0
 1091 0014 0123     		movs	r3, #1
 1092 0016 A340     		lsls	r3, r3, r4
 1093 0018 1840     		ands	r0, r0, r3
 1094              	.LVL103:
 1095 001a 2041     		asrs	r0, r0, r4
 1096              	.LBE278:
 1097              		.loc 1 462 0
 1098 001c C0B2     		uxtb	r0, r0
 1099 001e 10BD     		pop	{r4, pc}
 1100              		.cfi_endproc
 1101              	.LFE24:
 1102              		.fnend
 1103              		.size	_ZN7LSM9DS112magAvailableE12lsm9ds1_axis, .-_ZN7LSM9DS112magAvailableE12lsm9ds1_axis
 1104              		.section	.text._ZN7LSM9DS19readAccelEv,"ax",%progbits
 1105              		.align	2
 1106              		.p2align 4,,15
 1107              		.global	_ZN7LSM9DS19readAccelEv
 1108              		.thumb
 1109              		.thumb_func
 1110              		.type	_ZN7LSM9DS19readAccelEv, %function
 1111              	_ZN7LSM9DS19readAccelEv:
 1112              		.fnstart
 1113              	.LFB25:
 1114              		.loc 1 464 0
 1115              		.cfi_startproc
 1116              		@ args = 0, pretend = 0, frame = 8
 1117              		@ frame_needed = 0, uses_anonymous_args = 0
 1118              	.LVL104:
 1119 0000 F0B5     		push	{r4, r5, r6, r7, lr}
 1120              		.save {r4, r5, r6, r7, lr}
 1121              		.cfi_def_cfa_offset 20
 1122              		.cfi_offset 4, -20
 1123              		.cfi_offset 5, -16
 1124              		.cfi_offset 6, -12
 1125              		.cfi_offset 7, -8
 1126              		.cfi_offset 14, -4
 1127 0002 0446     		mov	r4, r0
 1128              	.LVL105:
 1129              		.pad #20
 1130 0004 85B0     		sub	sp, sp, #20
 1131              		.cfi_def_cfa_offset 40
 1132              	.LVL106:
 1133              	.LBB279:
 1134              	.LBB280:
 1135              	.LBB281:
 1136              		.loc 1 899 0
 1137 0006 0623     		movs	r3, #6
 1138 0008 94F87310 		ldrb	r1, [r4, #115]	@ zero_extendqisi2
 1139 000c D0F88400 		ldr	r0, [r0, #132]
 1140              	.LVL107:
ARM GAS  /tmp/ccoI4Tqz.s 			page 21


 1141 0010 2822     		movs	r2, #40
 1142 0012 0093     		str	r3, [sp]
 1143 0014 02AB     		add	r3, sp, #8
 1144              	.LVL108:
 1145 0016 FFF7FEFF 		bl	_ZN7creator3I2C9ReadBytesEhhPhh
 1146              	.LVL109:
 1147              	.LBE281:
 1148              	.LBE280:
 1149              		.loc 1 467 0
 1150 001a 9DF80970 		ldrb	r7, [sp, #9]	@ zero_extendqisi2
 1151 001e 9DF80810 		ldrb	r1, [sp, #8]	@ zero_extendqisi2
 1152              		.loc 1 468 0
 1153 0022 9DF80B60 		ldrb	r6, [sp, #11]	@ zero_extendqisi2
 1154 0026 9DF80A20 		ldrb	r2, [sp, #10]	@ zero_extendqisi2
 1155              		.loc 1 469 0
 1156 002a 9DF80D50 		ldrb	r5, [sp, #13]	@ zero_extendqisi2
 1157 002e 9DF80C30 		ldrb	r3, [sp, #12]	@ zero_extendqisi2
 1158              		.loc 1 470 0
 1159 0032 94F88000 		ldrb	r0, [r4, #128]	@ zero_extendqisi2
 1160              		.loc 1 467 0
 1161 0036 41EA0721 		orr	r1, r1, r7, lsl #8
 1162              		.loc 1 468 0
 1163 003a 42EA0622 		orr	r2, r2, r6, lsl #8
 1164              		.loc 1 469 0
 1165 003e 43EA0523 		orr	r3, r3, r5, lsl #8
 1166              		.loc 1 467 0
 1167 0042 E185     		strh	r1, [r4, #46]	@ movhi
 1168              		.loc 1 468 0
 1169 0044 2286     		strh	r2, [r4, #48]	@ movhi
 1170              		.loc 1 469 0
 1171 0046 6386     		strh	r3, [r4, #50]	@ movhi
 1172              		.loc 1 470 0
 1173 0048 58B1     		cbz	r0, .L92
 1174              		.loc 1 471 0
 1175 004a B4F86660 		ldrh	r6, [r4, #102]
 1176              		.loc 1 472 0
 1177 004e B4F86850 		ldrh	r5, [r4, #104]
 1178              		.loc 1 473 0
 1179 0052 B4F86A00 		ldrh	r0, [r4, #106]
 1180              		.loc 1 471 0
 1181 0056 891B     		subs	r1, r1, r6
 1182              		.loc 1 472 0
 1183 0058 521B     		subs	r2, r2, r5
 1184              		.loc 1 473 0
 1185 005a 1B1A     		subs	r3, r3, r0
 1186              		.loc 1 471 0
 1187 005c E185     		strh	r1, [r4, #46]	@ movhi
 1188              		.loc 1 472 0
 1189 005e 2286     		strh	r2, [r4, #48]	@ movhi
 1190              		.loc 1 473 0
 1191 0060 6386     		strh	r3, [r4, #50]	@ movhi
 1192              	.L92:
 1193              	.LBE279:
 1194              		.loc 1 475 0
 1195 0062 05B0     		add	sp, sp, #20
 1196              		.cfi_def_cfa_offset 20
 1197              		@ sp needed
ARM GAS  /tmp/ccoI4Tqz.s 			page 22


 1198 0064 F0BD     		pop	{r4, r5, r6, r7, pc}
 1199              		.cfi_endproc
 1200              	.LFE25:
 1201              		.fnend
 1202              		.size	_ZN7LSM9DS19readAccelEv, .-_ZN7LSM9DS19readAccelEv
 1203 0066 00BF     		.section	.text._ZN7LSM9DS19readAccelE12lsm9ds1_axis,"ax",%progbits
 1204              		.align	2
 1205              		.p2align 4,,15
 1206              		.global	_ZN7LSM9DS19readAccelE12lsm9ds1_axis
 1207              		.thumb
 1208              		.thumb_func
 1209              		.type	_ZN7LSM9DS19readAccelE12lsm9ds1_axis, %function
 1210              	_ZN7LSM9DS19readAccelE12lsm9ds1_axis:
 1211              		.fnstart
 1212              	.LFB26:
 1213              		.loc 1 477 0
 1214              		.cfi_startproc
 1215              		@ args = 0, pretend = 0, frame = 8
 1216              		@ frame_needed = 0, uses_anonymous_args = 0
 1217              	.LVL110:
 1218 0000 30B5     		push	{r4, r5, lr}
 1219              		.save {r4, r5, lr}
 1220              		.cfi_def_cfa_offset 12
 1221              		.cfi_offset 4, -12
 1222              		.cfi_offset 5, -8
 1223              		.cfi_offset 14, -4
 1224 0002 0446     		mov	r4, r0
 1225              	.LVL111:
 1226              	.LBB282:
 1227              		.loc 1 480 0
 1228 0004 01F11402 		add	r2, r1, #20
 1229              	.LBE282:
 1230              		.loc 1 477 0
 1231              		.pad #20
 1232 0008 85B0     		sub	sp, sp, #20
 1233              		.cfi_def_cfa_offset 32
 1234              	.LVL112:
 1235              	.LBB289:
 1236              	.LBB283:
 1237              	.LBB284:
 1238              		.loc 1 899 0
 1239 000a 0223     		movs	r3, #2
 1240              	.LBE284:
 1241              	.LBE283:
 1242              		.loc 1 480 0
 1243 000c 5200     		lsls	r2, r2, #1
 1244              	.LBB287:
 1245              	.LBB285:
 1246              		.loc 1 899 0
 1247 000e D0F88400 		ldr	r0, [r0, #132]
 1248              	.LVL113:
 1249 0012 02F0FE02 		and	r2, r2, #254
 1250              	.LBE285:
 1251              	.LBE287:
 1252              	.LBE289:
 1253              		.loc 1 477 0
 1254 0016 0D46     		mov	r5, r1
ARM GAS  /tmp/ccoI4Tqz.s 			page 23


 1255              	.LBB290:
 1256              	.LBB288:
 1257              	.LBB286:
 1258              		.loc 1 899 0
 1259 0018 94F87310 		ldrb	r1, [r4, #115]	@ zero_extendqisi2
 1260              	.LVL114:
 1261 001c 0093     		str	r3, [sp]
 1262 001e 03AB     		add	r3, sp, #12
 1263              	.LVL115:
 1264 0020 FFF7FEFF 		bl	_ZN7creator3I2C9ReadBytesEhhPhh
 1265              	.LVL116:
 1266              	.LBE286:
 1267              	.LBE288:
 1268              		.loc 1 481 0
 1269 0024 9DF80D00 		ldrb	r0, [sp, #13]	@ zero_extendqisi2
 1270 0028 9DF80C30 		ldrb	r3, [sp, #12]	@ zero_extendqisi2
 1271              		.loc 1 483 0
 1272 002c 94F88020 		ldrb	r2, [r4, #128]	@ zero_extendqisi2
 1273              		.loc 1 481 0
 1274 0030 43EA0020 		orr	r0, r3, r0, lsl #8
 1275              	.LVL117:
 1276              		.loc 1 483 0
 1277 0034 2AB1     		cbz	r2, .L99
 1278              		.loc 1 483 0 is_stmt 0 discriminator 1
 1279 0036 04EB4504 		add	r4, r4, r5, lsl #1
 1280              	.LVL118:
 1281 003a B4F86630 		ldrh	r3, [r4, #102]
 1282 003e C01A     		subs	r0, r0, r3
 1283              	.LVL119:
 1284 0040 80B2     		uxth	r0, r0
 1285              	.LVL120:
 1286              	.L99:
 1287              	.LBE290:
 1288              		.loc 1 486 0 is_stmt 1
 1289 0042 00B2     		sxth	r0, r0
 1290 0044 05B0     		add	sp, sp, #20
 1291              		.cfi_def_cfa_offset 12
 1292              		@ sp needed
 1293 0046 30BD     		pop	{r4, r5, pc}
 1294              		.cfi_endproc
 1295              	.LFE26:
 1296              		.fnend
 1297              		.size	_ZN7LSM9DS19readAccelE12lsm9ds1_axis, .-_ZN7LSM9DS19readAccelE12lsm9ds1_axis
 1298              		.section	.text._ZN7LSM9DS17readMagEv,"ax",%progbits
 1299              		.align	2
 1300              		.p2align 4,,15
 1301              		.global	_ZN7LSM9DS17readMagEv
 1302              		.thumb
 1303              		.thumb_func
 1304              		.type	_ZN7LSM9DS17readMagEv, %function
 1305              	_ZN7LSM9DS17readMagEv:
 1306              		.fnstart
 1307              	.LFB27:
 1308              		.loc 1 488 0
 1309              		.cfi_startproc
 1310              		@ args = 0, pretend = 0, frame = 8
 1311              		@ frame_needed = 0, uses_anonymous_args = 0
ARM GAS  /tmp/ccoI4Tqz.s 			page 24


 1312              	.LVL121:
 1313 0000 70B5     		push	{r4, r5, r6, lr}
 1314              		.save {r4, r5, r6, lr}
 1315              		.cfi_def_cfa_offset 16
 1316              		.cfi_offset 4, -16
 1317              		.cfi_offset 5, -12
 1318              		.cfi_offset 6, -8
 1319              		.cfi_offset 14, -4
 1320 0002 0446     		mov	r4, r0
 1321              	.LVL122:
 1322              		.pad #16
 1323 0004 84B0     		sub	sp, sp, #16
 1324              		.cfi_def_cfa_offset 32
 1325              	.LVL123:
 1326              	.LBB291:
 1327              	.LBB292:
 1328              	.LBB293:
 1329              		.loc 1 907 0
 1330 0006 0623     		movs	r3, #6
 1331 0008 94F87210 		ldrb	r1, [r4, #114]	@ zero_extendqisi2
 1332 000c D0F88400 		ldr	r0, [r0, #132]
 1333              	.LVL124:
 1334 0010 2822     		movs	r2, #40
 1335 0012 0093     		str	r3, [sp]
 1336 0014 02AB     		add	r3, sp, #8
 1337              	.LVL125:
 1338 0016 FFF7FEFF 		bl	_ZN7creator3I2C9ReadBytesEhhPhh
 1339              	.LVL126:
 1340              	.LBE293:
 1341              	.LBE292:
 1342              		.loc 1 491 0
 1343 001a 9DF80960 		ldrb	r6, [sp, #9]	@ zero_extendqisi2
 1344 001e 9DF80810 		ldrb	r1, [sp, #8]	@ zero_extendqisi2
 1345              		.loc 1 492 0
 1346 0022 9DF80B50 		ldrb	r5, [sp, #11]	@ zero_extendqisi2
 1347 0026 9DF80A20 		ldrb	r2, [sp, #10]	@ zero_extendqisi2
 1348              		.loc 1 493 0
 1349 002a 9DF80D00 		ldrb	r0, [sp, #13]	@ zero_extendqisi2
 1350 002e 9DF80C30 		ldrb	r3, [sp, #12]	@ zero_extendqisi2
 1351              		.loc 1 491 0
 1352 0032 41EA0621 		orr	r1, r1, r6, lsl #8
 1353              		.loc 1 492 0
 1354 0036 42EA0522 		orr	r2, r2, r5, lsl #8
 1355              		.loc 1 493 0
 1356 003a 43EA0023 		orr	r3, r3, r0, lsl #8
 1357              		.loc 1 491 0
 1358 003e A186     		strh	r1, [r4, #52]	@ movhi
 1359              		.loc 1 492 0
 1360 0040 E286     		strh	r2, [r4, #54]	@ movhi
 1361              		.loc 1 493 0
 1362 0042 2387     		strh	r3, [r4, #56]	@ movhi
 1363              	.LBE291:
 1364              		.loc 1 494 0
 1365 0044 04B0     		add	sp, sp, #16
 1366              		.cfi_def_cfa_offset 16
 1367              		@ sp needed
 1368 0046 70BD     		pop	{r4, r5, r6, pc}
ARM GAS  /tmp/ccoI4Tqz.s 			page 25


 1369              		.cfi_endproc
 1370              	.LFE27:
 1371              		.fnend
 1372              		.size	_ZN7LSM9DS17readMagEv, .-_ZN7LSM9DS17readMagEv
 1373              		.global	__aeabi_i2f
 1374              		.global	__aeabi_fmul
 1375              		.section	.text._ZN7LSM9DS112calibrateMagEb,"ax",%progbits
 1376              		.align	2
 1377              		.p2align 4,,15
 1378              		.global	_ZN7LSM9DS112calibrateMagEb
 1379              		.thumb
 1380              		.thumb_func
 1381              		.type	_ZN7LSM9DS112calibrateMagEb, %function
 1382              	_ZN7LSM9DS112calibrateMagEb:
 1383              		.fnstart
 1384              	.LFB18:
 1385              		.loc 1 339 0
 1386              		.cfi_startproc
 1387              		@ args = 0, pretend = 0, frame = 24
 1388              		@ frame_needed = 0, uses_anonymous_args = 0
 1389              	.LVL127:
 1390 0000 2DE9F047 		push	{r4, r5, r6, r7, r8, r9, r10, lr}
 1391              		.save {r4, r5, r6, r7, r8, r9, r10, lr}
 1392              		.cfi_def_cfa_offset 32
 1393              		.cfi_offset 4, -32
 1394              		.cfi_offset 5, -28
 1395              		.cfi_offset 6, -24
 1396              		.cfi_offset 7, -20
 1397              		.cfi_offset 8, -16
 1398              		.cfi_offset 9, -12
 1399              		.cfi_offset 10, -8
 1400              		.cfi_offset 14, -4
 1401 0004 0446     		mov	r4, r0
 1402 0006 0F46     		mov	r7, r1
 1403              		.pad #24
 1404 0008 86B0     		sub	sp, sp, #24
 1405              		.cfi_def_cfa_offset 56
 1406              	.LBB294:
 1407              		.loc 1 341 0
 1408 000a 0023     		movs	r3, #0
 1409 000c ADF80030 		strh	r3, [sp]	@ movhi
 1410 0010 ADF80230 		strh	r3, [sp, #2]	@ movhi
 1411 0014 ADF80430 		strh	r3, [sp, #4]	@ movhi
 1412              		.loc 1 342 0
 1413 0018 ADF80830 		strh	r3, [sp, #8]	@ movhi
 1414 001c ADF80A30 		strh	r3, [sp, #10]	@ movhi
 1415 0020 ADF80C30 		strh	r3, [sp, #12]	@ movhi
 1416              	.LVL128:
 1417 0024 8026     		movs	r6, #128
 1418 0026 02AD     		add	r5, sp, #8
 1419              	.LVL129:
 1420              	.L107:
 1421              	.LBB295:
 1422              	.LBB296:
 1423              	.LBB297:
 1424              	.LBB298:
 1425              	.LBB299:
ARM GAS  /tmp/ccoI4Tqz.s 			page 26


 1426              	.LBB300:
 1427              		.loc 1 903 0 discriminator 2
 1428 0028 D4F88400 		ldr	r0, [r4, #132]
 1429 002c 94F87210 		ldrb	r1, [r4, #114]	@ zero_extendqisi2
 1430 0030 2722     		movs	r2, #39
 1431 0032 FFF7FEFF 		bl	_ZN7creator3I2C8ReadByteEhh
 1432              	.LVL130:
 1433              	.LBE300:
 1434              	.LBE299:
 1435              	.LBE298:
 1436              	.LBE297:
 1437              		.loc 1 345 0 discriminator 2
 1438 0036 0307     		lsls	r3, r0, #28
 1439 0038 F6D5     		bpl	.L107
 1440              		.loc 1 347 0
 1441 003a 2046     		mov	r0, r4
 1442              	.LVL131:
 1443 003c FFF7FEFF 		bl	_ZN7LSM9DS17readMagEv
 1444              	.LVL132:
 1445              		.loc 1 351 0
 1446 0040 238F     		ldrh	r3, [r4, #56]
 1447              		.loc 1 349 0
 1448 0042 A28E     		ldrh	r2, [r4, #52]
 1449              		.loc 1 350 0
 1450 0044 E18E     		ldrh	r1, [r4, #54]
 1451              		.loc 1 351 0
 1452 0046 ADF81430 		strh	r3, [sp, #20]	@ movhi
 1453              	.LVL133:
 1454              		.loc 1 349 0
 1455 004a ADF81020 		strh	r2, [sp, #16]	@ movhi
 1456              		.loc 1 350 0
 1457 004e ADF81210 		strh	r1, [sp, #18]	@ movhi
 1458              		.loc 1 352 0
 1459 0052 0023     		movs	r3, #0
 1460              	.LVL134:
 1461              	.L111:
 1462              		.loc 1 353 0
 1463 0054 35F91300 		ldrsh	r0, [r5, r3, lsl #1]
 1464 0058 11B2     		sxth	r1, r2
 1465 005a 8842     		cmp	r0, r1
 1466              		.loc 1 354 0
 1467 005c 3DF91300 		ldrsh	r0, [sp, r3, lsl #1]
 1468              		.loc 1 353 0
 1469 0060 B8BF     		it	lt
 1470 0062 25F81320 		strhlt	r2, [r5, r3, lsl #1]	@ movhi
 1471              		.loc 1 354 0
 1472 0066 8842     		cmp	r0, r1
 1473 0068 C8BF     		it	gt
 1474 006a 2DF81320 		strhgt	r2, [sp, r3, lsl #1]	@ movhi
 1475              		.loc 1 352 0
 1476 006e 0133     		adds	r3, r3, #1
 1477              	.LVL135:
 1478 0070 032B     		cmp	r3, #3
 1479 0072 03D0     		beq	.L110
 1480 0074 04AA     		add	r2, sp, #16
 1481 0076 32F81320 		ldrh	r2, [r2, r3, lsl #1]
 1482 007a EBE7     		b	.L111
ARM GAS  /tmp/ccoI4Tqz.s 			page 27


 1483              	.L110:
 1484              	.LVL136:
 1485              	.LBE296:
 1486              		.loc 1 344 0 discriminator 2
 1487 007c 013E     		subs	r6, r6, #1
 1488              	.LVL137:
 1489 007e D3D1     		bne	.L107
 1490 0080 04F16A09 		add	r9, r4, #106
 1491 0084 04F15008 		add	r8, r4, #80
 1492              	.LVL138:
 1493              	.L114:
 1494              	.LBE295:
 1495              		.loc 1 358 0
 1496 0088 35F91620 		ldrsh	r2, [r5, r6, lsl #1]
 1497 008c 3DF91630 		ldrsh	r3, [sp, r6, lsl #1]
 1498 0090 1344     		add	r3, r3, r2
 1499 0092 03EBD373 		add	r3, r3, r3, lsr #31
 1500 0096 C3F34F03 		ubfx	r3, r3, #1, #16
 1501              	.LBB301:
 1502              	.LBB302:
 1503              		.loc 1 547 0
 1504 009a 0FFA83FA 		sxth	r10, r3
 1505              	.LBE302:
 1506              	.LBE301:
 1507              		.loc 1 358 0
 1508 009e 29F8023F 		strh	r3, [r9, #2]!	@ movhi
 1509              	.LVL139:
 1510              	.LBB304:
 1511              	.LBB303:
 1512              		.loc 1 547 0
 1513 00a2 5046     		mov	r0, r10
 1514 00a4 FFF7FEFF 		bl	__aeabi_i2f
 1515              	.LVL140:
 1516 00a8 0146     		mov	r1, r0
 1517 00aa E06F     		ldr	r0, [r4, #124]	@ float
 1518 00ac FFF7FEFF 		bl	__aeabi_fmul
 1519              	.LVL141:
 1520              	.LBE303:
 1521              	.LBE304:
 1522              	.LBB305:
 1523              	.LBB306:
 1524 00b0 F1B2     		uxtb	r1, r6
 1525              	.LBE306:
 1526              	.LBE305:
 1527              		.loc 1 359 0
 1528 00b2 48F8040F 		str	r0, [r8, #4]!	@ float
 1529              		.loc 1 357 0
 1530 00b6 0136     		adds	r6, r6, #1
 1531              	.LVL142:
 1532              		.loc 1 360 0
 1533 00b8 1FB1     		cbz	r7, .L113
 1534              	.LBB308:
 1535              	.LBB307:
 1536 00ba 5246     		mov	r2, r10
 1537 00bc 2046     		mov	r0, r4
 1538 00be FFF7FEFF 		bl	_ZN7LSM9DS19magOffsetEhs.part.0
 1539              	.LVL143:
ARM GAS  /tmp/ccoI4Tqz.s 			page 28


 1540              	.L113:
 1541              	.LBE307:
 1542              	.LBE308:
 1543              		.loc 1 357 0 discriminator 2
 1544 00c2 032E     		cmp	r6, #3
 1545 00c4 E0D1     		bne	.L114
 1546              	.LBE294:
 1547              		.loc 1 362 0
 1548 00c6 06B0     		add	sp, sp, #24
 1549              		.cfi_def_cfa_offset 32
 1550              		@ sp needed
 1551 00c8 BDE8F087 		pop	{r4, r5, r6, r7, r8, r9, r10, pc}
 1552              		.cfi_endproc
 1553              	.LFE18:
 1554              		.fnend
 1555              		.size	_ZN7LSM9DS112calibrateMagEb, .-_ZN7LSM9DS112calibrateMagEb
 1556              		.section	.text._ZN7LSM9DS17readMagE12lsm9ds1_axis,"ax",%progbits
 1557              		.align	2
 1558              		.p2align 4,,15
 1559              		.global	_ZN7LSM9DS17readMagE12lsm9ds1_axis
 1560              		.thumb
 1561              		.thumb_func
 1562              		.type	_ZN7LSM9DS17readMagE12lsm9ds1_axis, %function
 1563              	_ZN7LSM9DS17readMagE12lsm9ds1_axis:
 1564              		.fnstart
 1565              	.LFB28:
 1566              		.loc 1 496 0
 1567              		.cfi_startproc
 1568              		@ args = 0, pretend = 0, frame = 8
 1569              		@ frame_needed = 0, uses_anonymous_args = 0
 1570              	.LVL144:
 1571 0000 0346     		mov	r3, r0
 1572              	.LVL145:
 1573 0002 00B5     		push	{lr}
 1574              		.save {lr}
 1575              		.cfi_def_cfa_offset 4
 1576              		.cfi_offset 14, -4
 1577              	.LBB309:
 1578              		.loc 1 498 0
 1579 0004 01F11402 		add	r2, r1, #20
 1580              	.LBE309:
 1581              		.loc 1 496 0
 1582              		.pad #20
 1583 0008 85B0     		sub	sp, sp, #20
 1584              		.cfi_def_cfa_offset 24
 1585              	.LVL146:
 1586              	.LBB314:
 1587              	.LBB310:
 1588              	.LBB311:
 1589              		.loc 1 907 0
 1590 000a 93F87210 		ldrb	r1, [r3, #114]	@ zero_extendqisi2
 1591              	.LVL147:
 1592              	.LBE311:
 1593              	.LBE310:
 1594              		.loc 1 498 0
 1595 000e 5200     		lsls	r2, r2, #1
 1596              	.LBB313:
ARM GAS  /tmp/ccoI4Tqz.s 			page 29


 1597              	.LBB312:
 1598              		.loc 1 907 0
 1599 0010 0223     		movs	r3, #2
 1600 0012 D0F88400 		ldr	r0, [r0, #132]
 1601              	.LVL148:
 1602 0016 02F0FE02 		and	r2, r2, #254
 1603 001a 0093     		str	r3, [sp]
 1604 001c 03AB     		add	r3, sp, #12
 1605              	.LVL149:
 1606 001e FFF7FEFF 		bl	_ZN7creator3I2C9ReadBytesEhhPhh
 1607              	.LVL150:
 1608              	.LBE312:
 1609              	.LBE313:
 1610              		.loc 1 499 0
 1611 0022 9DF80D00 		ldrb	r0, [sp, #13]	@ zero_extendqisi2
 1612 0026 9DF80C30 		ldrb	r3, [sp, #12]	@ zero_extendqisi2
 1613 002a 43EA0020 		orr	r0, r3, r0, lsl #8
 1614              	.LBE314:
 1615              		.loc 1 500 0
 1616 002e 00B2     		sxth	r0, r0
 1617 0030 05B0     		add	sp, sp, #20
 1618              		.cfi_def_cfa_offset 4
 1619              		@ sp needed
 1620 0032 5DF804FB 		ldr	pc, [sp], #4
 1621              		.cfi_endproc
 1622              	.LFE28:
 1623              		.fnend
 1624              		.size	_ZN7LSM9DS17readMagE12lsm9ds1_axis, .-_ZN7LSM9DS17readMagE12lsm9ds1_axis
 1625 0036 00BF     		.section	.text._ZN7LSM9DS18readTempEv,"ax",%progbits
 1626              		.align	2
 1627              		.p2align 4,,15
 1628              		.global	_ZN7LSM9DS18readTempEv
 1629              		.thumb
 1630              		.thumb_func
 1631              		.type	_ZN7LSM9DS18readTempEv, %function
 1632              	_ZN7LSM9DS18readTempEv:
 1633              		.fnstart
 1634              	.LFB29:
 1635              		.loc 1 502 0
 1636              		.cfi_startproc
 1637              		@ args = 0, pretend = 0, frame = 8
 1638              		@ frame_needed = 0, uses_anonymous_args = 0
 1639              	.LVL151:
 1640 0000 10B5     		push	{r4, lr}
 1641              		.save {r4, lr}
 1642              		.cfi_def_cfa_offset 8
 1643              		.cfi_offset 4, -8
 1644              		.cfi_offset 14, -4
 1645 0002 0446     		mov	r4, r0
 1646              	.LVL152:
 1647              		.pad #16
 1648 0004 84B0     		sub	sp, sp, #16
 1649              		.cfi_def_cfa_offset 24
 1650              	.LVL153:
 1651              	.LBB315:
 1652              	.LBB316:
 1653              	.LBB317:
ARM GAS  /tmp/ccoI4Tqz.s 			page 30


 1654              		.loc 1 899 0
 1655 0006 0223     		movs	r3, #2
 1656 0008 94F87310 		ldrb	r1, [r4, #115]	@ zero_extendqisi2
 1657 000c D0F88400 		ldr	r0, [r0, #132]
 1658              	.LVL154:
 1659 0010 1522     		movs	r2, #21
 1660 0012 0093     		str	r3, [sp]
 1661 0014 03AB     		add	r3, sp, #12
 1662              	.LVL155:
 1663 0016 FFF7FEFF 		bl	_ZN7creator3I2C9ReadBytesEhhPhh
 1664              	.LVL156:
 1665              	.LBE317:
 1666              	.LBE316:
 1667              		.loc 1 506 0
 1668 001a 9DF80D20 		ldrb	r2, [sp, #13]	@ zero_extendqisi2
 1669 001e 9DF80C30 		ldrb	r3, [sp, #12]	@ zero_extendqisi2
 1670 0022 43EA0223 		orr	r3, r3, r2, lsl #8
 1671 0026 6387     		strh	r3, [r4, #58]	@ movhi
 1672              	.LBE315:
 1673              		.loc 1 507 0
 1674 0028 04B0     		add	sp, sp, #16
 1675              		.cfi_def_cfa_offset 8
 1676              		@ sp needed
 1677 002a 10BD     		pop	{r4, pc}
 1678              		.cfi_endproc
 1679              	.LFE29:
 1680              		.fnend
 1681              		.size	_ZN7LSM9DS18readTempEv, .-_ZN7LSM9DS18readTempEv
 1682              		.section	.text._ZN7LSM9DS18readGyroEv,"ax",%progbits
 1683              		.align	2
 1684              		.p2align 4,,15
 1685              		.global	_ZN7LSM9DS18readGyroEv
 1686              		.thumb
 1687              		.thumb_func
 1688              		.type	_ZN7LSM9DS18readGyroEv, %function
 1689              	_ZN7LSM9DS18readGyroEv:
 1690              		.fnstart
 1691              	.LFB30:
 1692              		.loc 1 509 0
 1693              		.cfi_startproc
 1694              		@ args = 0, pretend = 0, frame = 8
 1695              		@ frame_needed = 0, uses_anonymous_args = 0
 1696              	.LVL157:
 1697 0000 F0B5     		push	{r4, r5, r6, r7, lr}
 1698              		.save {r4, r5, r6, r7, lr}
 1699              		.cfi_def_cfa_offset 20
 1700              		.cfi_offset 4, -20
 1701              		.cfi_offset 5, -16
 1702              		.cfi_offset 6, -12
 1703              		.cfi_offset 7, -8
 1704              		.cfi_offset 14, -4
 1705 0002 0446     		mov	r4, r0
 1706              	.LVL158:
 1707              		.pad #20
 1708 0004 85B0     		sub	sp, sp, #20
 1709              		.cfi_def_cfa_offset 40
 1710              	.LVL159:
ARM GAS  /tmp/ccoI4Tqz.s 			page 31


 1711              	.LBB318:
 1712              	.LBB319:
 1713              	.LBB320:
 1714              		.loc 1 899 0
 1715 0006 0623     		movs	r3, #6
 1716 0008 94F87310 		ldrb	r1, [r4, #115]	@ zero_extendqisi2
 1717 000c D0F88400 		ldr	r0, [r0, #132]
 1718              	.LVL160:
 1719 0010 1822     		movs	r2, #24
 1720 0012 0093     		str	r3, [sp]
 1721 0014 02AB     		add	r3, sp, #8
 1722              	.LVL161:
 1723 0016 FFF7FEFF 		bl	_ZN7creator3I2C9ReadBytesEhhPhh
 1724              	.LVL162:
 1725              	.LBE320:
 1726              	.LBE319:
 1727              		.loc 1 512 0
 1728 001a 9DF80970 		ldrb	r7, [sp, #9]	@ zero_extendqisi2
 1729 001e 9DF80810 		ldrb	r1, [sp, #8]	@ zero_extendqisi2
 1730              		.loc 1 513 0
 1731 0022 9DF80B60 		ldrb	r6, [sp, #11]	@ zero_extendqisi2
 1732 0026 9DF80A20 		ldrb	r2, [sp, #10]	@ zero_extendqisi2
 1733              		.loc 1 514 0
 1734 002a 9DF80D50 		ldrb	r5, [sp, #13]	@ zero_extendqisi2
 1735 002e 9DF80C30 		ldrb	r3, [sp, #12]	@ zero_extendqisi2
 1736              		.loc 1 515 0
 1737 0032 94F88000 		ldrb	r0, [r4, #128]	@ zero_extendqisi2
 1738              		.loc 1 512 0
 1739 0036 41EA0721 		orr	r1, r1, r7, lsl #8
 1740              		.loc 1 513 0
 1741 003a 42EA0622 		orr	r2, r2, r6, lsl #8
 1742              		.loc 1 514 0
 1743 003e 43EA0523 		orr	r3, r3, r5, lsl #8
 1744              		.loc 1 512 0
 1745 0042 2185     		strh	r1, [r4, #40]	@ movhi
 1746              		.loc 1 513 0
 1747 0044 6285     		strh	r2, [r4, #42]	@ movhi
 1748              		.loc 1 514 0
 1749 0046 A385     		strh	r3, [r4, #44]	@ movhi
 1750              		.loc 1 515 0
 1751 0048 58B1     		cbz	r0, .L127
 1752              		.loc 1 516 0
 1753 004a B4F86060 		ldrh	r6, [r4, #96]
 1754              		.loc 1 517 0
 1755 004e B4F86250 		ldrh	r5, [r4, #98]
 1756              		.loc 1 518 0
 1757 0052 B4F86400 		ldrh	r0, [r4, #100]
 1758              		.loc 1 516 0
 1759 0056 891B     		subs	r1, r1, r6
 1760              		.loc 1 517 0
 1761 0058 521B     		subs	r2, r2, r5
 1762              		.loc 1 518 0
 1763 005a 1B1A     		subs	r3, r3, r0
 1764              		.loc 1 516 0
 1765 005c 2185     		strh	r1, [r4, #40]	@ movhi
 1766              		.loc 1 517 0
 1767 005e 6285     		strh	r2, [r4, #42]	@ movhi
ARM GAS  /tmp/ccoI4Tqz.s 			page 32


 1768              		.loc 1 518 0
 1769 0060 A385     		strh	r3, [r4, #44]	@ movhi
 1770              	.L127:
 1771              	.LBE318:
 1772              		.loc 1 520 0
 1773 0062 05B0     		add	sp, sp, #20
 1774              		.cfi_def_cfa_offset 20
 1775              		@ sp needed
 1776 0064 F0BD     		pop	{r4, r5, r6, r7, pc}
 1777              		.cfi_endproc
 1778              	.LFE30:
 1779              		.fnend
 1780              		.size	_ZN7LSM9DS18readGyroEv, .-_ZN7LSM9DS18readGyroEv
 1781 0066 00BF     		.section	.text._ZN7LSM9DS18readGyroE12lsm9ds1_axis,"ax",%progbits
 1782              		.align	2
 1783              		.p2align 4,,15
 1784              		.global	_ZN7LSM9DS18readGyroE12lsm9ds1_axis
 1785              		.thumb
 1786              		.thumb_func
 1787              		.type	_ZN7LSM9DS18readGyroE12lsm9ds1_axis, %function
 1788              	_ZN7LSM9DS18readGyroE12lsm9ds1_axis:
 1789              		.fnstart
 1790              	.LFB31:
 1791              		.loc 1 522 0
 1792              		.cfi_startproc
 1793              		@ args = 0, pretend = 0, frame = 8
 1794              		@ frame_needed = 0, uses_anonymous_args = 0
 1795              	.LVL163:
 1796 0000 30B5     		push	{r4, r5, lr}
 1797              		.save {r4, r5, lr}
 1798              		.cfi_def_cfa_offset 12
 1799              		.cfi_offset 4, -12
 1800              		.cfi_offset 5, -8
 1801              		.cfi_offset 14, -4
 1802 0002 0446     		mov	r4, r0
 1803              	.LVL164:
 1804              	.LBB321:
 1805              		.loc 1 526 0
 1806 0004 01F10C02 		add	r2, r1, #12
 1807              	.LBE321:
 1808              		.loc 1 522 0
 1809              		.pad #20
 1810 0008 85B0     		sub	sp, sp, #20
 1811              		.cfi_def_cfa_offset 32
 1812              	.LVL165:
 1813              	.LBB328:
 1814              	.LBB322:
 1815              	.LBB323:
 1816              		.loc 1 899 0
 1817 000a 0223     		movs	r3, #2
 1818              	.LBE323:
 1819              	.LBE322:
 1820              		.loc 1 526 0
 1821 000c 5200     		lsls	r2, r2, #1
 1822              	.LBB326:
 1823              	.LBB324:
 1824              		.loc 1 899 0
ARM GAS  /tmp/ccoI4Tqz.s 			page 33


 1825 000e D0F88400 		ldr	r0, [r0, #132]
 1826              	.LVL166:
 1827 0012 02F0FE02 		and	r2, r2, #254
 1828              	.LBE324:
 1829              	.LBE326:
 1830              	.LBE328:
 1831              		.loc 1 522 0
 1832 0016 0D46     		mov	r5, r1
 1833              	.LBB329:
 1834              	.LBB327:
 1835              	.LBB325:
 1836              		.loc 1 899 0
 1837 0018 94F87310 		ldrb	r1, [r4, #115]	@ zero_extendqisi2
 1838              	.LVL167:
 1839 001c 0093     		str	r3, [sp]
 1840 001e 03AB     		add	r3, sp, #12
 1841              	.LVL168:
 1842 0020 FFF7FEFF 		bl	_ZN7creator3I2C9ReadBytesEhhPhh
 1843              	.LVL169:
 1844              	.LBE325:
 1845              	.LBE327:
 1846              		.loc 1 528 0
 1847 0024 9DF80D00 		ldrb	r0, [sp, #13]	@ zero_extendqisi2
 1848 0028 9DF80C30 		ldrb	r3, [sp, #12]	@ zero_extendqisi2
 1849              		.loc 1 530 0
 1850 002c 94F88020 		ldrb	r2, [r4, #128]	@ zero_extendqisi2
 1851              		.loc 1 528 0
 1852 0030 43EA0020 		orr	r0, r3, r0, lsl #8
 1853              	.LVL170:
 1854              		.loc 1 530 0
 1855 0034 22B1     		cbz	r2, .L134
 1856              		.loc 1 530 0 is_stmt 0 discriminator 1
 1857 0036 3035     		adds	r5, r5, #48
 1858 0038 34F81530 		ldrh	r3, [r4, r5, lsl #1]
 1859 003c C01A     		subs	r0, r0, r3
 1860              	.LVL171:
 1861 003e 80B2     		uxth	r0, r0
 1862              	.LVL172:
 1863              	.L134:
 1864              	.LBE329:
 1865              		.loc 1 533 0 is_stmt 1
 1866 0040 00B2     		sxth	r0, r0
 1867 0042 05B0     		add	sp, sp, #20
 1868              		.cfi_def_cfa_offset 12
 1869              		@ sp needed
 1870 0044 30BD     		pop	{r4, r5, pc}
 1871              		.cfi_endproc
 1872              	.LFE31:
 1873              		.fnend
 1874              		.size	_ZN7LSM9DS18readGyroE12lsm9ds1_axis, .-_ZN7LSM9DS18readGyroE12lsm9ds1_axis
 1875 0046 00BF     		.section	.text._ZN7LSM9DS18calcGyroEs,"ax",%progbits
 1876              		.align	2
 1877              		.p2align 4,,15
 1878              		.global	_ZN7LSM9DS18calcGyroEs
 1879              		.thumb
 1880              		.thumb_func
 1881              		.type	_ZN7LSM9DS18calcGyroEs, %function
ARM GAS  /tmp/ccoI4Tqz.s 			page 34


 1882              	_ZN7LSM9DS18calcGyroEs:
 1883              		.fnstart
 1884              	.LFB32:
 1885              		.loc 1 535 0
 1886              		.cfi_startproc
 1887              		@ args = 0, pretend = 0, frame = 0
 1888              		@ frame_needed = 0, uses_anonymous_args = 0
 1889              	.LVL173:
 1890 0000 10B5     		push	{r4, lr}
 1891              		.cfi_def_cfa_offset 8
 1892              		.cfi_offset 4, -8
 1893              		.cfi_offset 14, -4
 1894              		.loc 1 535 0
 1895 0002 0446     		mov	r4, r0
 1896              		.loc 1 537 0
 1897 0004 0846     		mov	r0, r1
 1898              	.LVL174:
 1899 0006 FFF7FEFF 		bl	__aeabi_i2f
 1900              	.LVL175:
 1901 000a 616F     		ldr	r1, [r4, #116]	@ float
 1902 000c FFF7FEFF 		bl	__aeabi_fmul
 1903              	.LVL176:
 1904              		.loc 1 538 0
 1905 0010 10BD     		pop	{r4, pc}
 1906              		.cfi_endproc
 1907              	.LFE32:
 1908              		.cantunwind
 1909              		.fnend
 1910              		.size	_ZN7LSM9DS18calcGyroEs, .-_ZN7LSM9DS18calcGyroEs
 1911 0012 00BF     		.section	.text._ZN7LSM9DS19calcAccelEs,"ax",%progbits
 1912              		.align	2
 1913              		.p2align 4,,15
 1914              		.global	_ZN7LSM9DS19calcAccelEs
 1915              		.thumb
 1916              		.thumb_func
 1917              		.type	_ZN7LSM9DS19calcAccelEs, %function
 1918              	_ZN7LSM9DS19calcAccelEs:
 1919              		.fnstart
 1920              	.LFB33:
 1921              		.loc 1 540 0
 1922              		.cfi_startproc
 1923              		@ args = 0, pretend = 0, frame = 0
 1924              		@ frame_needed = 0, uses_anonymous_args = 0
 1925              	.LVL177:
 1926 0000 10B5     		push	{r4, lr}
 1927              		.cfi_def_cfa_offset 8
 1928              		.cfi_offset 4, -8
 1929              		.cfi_offset 14, -4
 1930              		.loc 1 540 0
 1931 0002 0446     		mov	r4, r0
 1932              		.loc 1 542 0
 1933 0004 0846     		mov	r0, r1
 1934              	.LVL178:
 1935 0006 FFF7FEFF 		bl	__aeabi_i2f
 1936              	.LVL179:
 1937 000a A16F     		ldr	r1, [r4, #120]	@ float
 1938 000c FFF7FEFF 		bl	__aeabi_fmul
ARM GAS  /tmp/ccoI4Tqz.s 			page 35


 1939              	.LVL180:
 1940              		.loc 1 543 0
 1941 0010 10BD     		pop	{r4, pc}
 1942              		.cfi_endproc
 1943              	.LFE33:
 1944              		.cantunwind
 1945              		.fnend
 1946              		.size	_ZN7LSM9DS19calcAccelEs, .-_ZN7LSM9DS19calcAccelEs
 1947 0012 00BF     		.section	.text._ZN7LSM9DS17calcMagEs,"ax",%progbits
 1948              		.align	2
 1949              		.p2align 4,,15
 1950              		.global	_ZN7LSM9DS17calcMagEs
 1951              		.thumb
 1952              		.thumb_func
 1953              		.type	_ZN7LSM9DS17calcMagEs, %function
 1954              	_ZN7LSM9DS17calcMagEs:
 1955              		.fnstart
 1956              	.LFB34:
 1957              		.loc 1 545 0
 1958              		.cfi_startproc
 1959              		@ args = 0, pretend = 0, frame = 0
 1960              		@ frame_needed = 0, uses_anonymous_args = 0
 1961              	.LVL181:
 1962 0000 10B5     		push	{r4, lr}
 1963              		.cfi_def_cfa_offset 8
 1964              		.cfi_offset 4, -8
 1965              		.cfi_offset 14, -4
 1966              		.loc 1 545 0
 1967 0002 0446     		mov	r4, r0
 1968              		.loc 1 547 0
 1969 0004 0846     		mov	r0, r1
 1970              	.LVL182:
 1971 0006 FFF7FEFF 		bl	__aeabi_i2f
 1972              	.LVL183:
 1973 000a E16F     		ldr	r1, [r4, #124]	@ float
 1974 000c FFF7FEFF 		bl	__aeabi_fmul
 1975              	.LVL184:
 1976              		.loc 1 548 0
 1977 0010 10BD     		pop	{r4, pc}
 1978              		.cfi_endproc
 1979              	.LFE34:
 1980              		.cantunwind
 1981              		.fnend
 1982              		.size	_ZN7LSM9DS17calcMagEs, .-_ZN7LSM9DS17calcMagEs
 1983              		.global	__aeabi_ui2f
 1984 0012 00BF     		.section	.text._ZN7LSM9DS112setGyroScaleEt,"ax",%progbits
 1985              		.align	2
 1986              		.p2align 4,,15
 1987              		.global	_ZN7LSM9DS112setGyroScaleEt
 1988              		.thumb
 1989              		.thumb_func
 1990              		.type	_ZN7LSM9DS112setGyroScaleEt, %function
 1991              	_ZN7LSM9DS112setGyroScaleEt:
 1992              		.fnstart
 1993              	.LFB35:
 1994              		.loc 1 550 0
 1995              		.cfi_startproc
ARM GAS  /tmp/ccoI4Tqz.s 			page 36


 1996              		@ args = 0, pretend = 0, frame = 0
 1997              		@ frame_needed = 0, uses_anonymous_args = 0
 1998              	.LVL185:
 1999 0000 38B5     		push	{r3, r4, r5, lr}
 2000              		.save {r3, r4, r5, lr}
 2001              		.cfi_def_cfa_offset 16
 2002              		.cfi_offset 3, -16
 2003              		.cfi_offset 4, -12
 2004              		.cfi_offset 5, -8
 2005              		.cfi_offset 14, -4
 2006              		.loc 1 550 0
 2007 0002 0446     		mov	r4, r0
 2008              	.LVL186:
 2009 0004 0D46     		mov	r5, r1
 2010              	.LBB330:
 2011              	.LBB331:
 2012              	.LBB332:
 2013              		.loc 1 895 0
 2014 0006 D0F88400 		ldr	r0, [r0, #132]
 2015              	.LVL187:
 2016 000a 94F87310 		ldrb	r1, [r4, #115]	@ zero_extendqisi2
 2017              	.LVL188:
 2018 000e 1022     		movs	r2, #16
 2019 0010 FFF7FEFF 		bl	_ZN7creator3I2C8ReadByteEhh
 2020              	.LVL189:
 2021              	.LBE332:
 2022              	.LBE331:
 2023              		.loc 1 555 0
 2024 0014 B5F5FA7F 		cmp	r5, #500
 2025              		.loc 1 554 0
 2026 0018 00F0E703 		and	r3, r0, #231
 2027              	.LVL190:
 2028              		.loc 1 555 0
 2029 001c 18D0     		beq	.L147
 2030 001e B5F5FA6F 		cmp	r5, #2000
 2031 0022 11D0     		beq	.L148
 2032              		.loc 1 565 0
 2033 0024 F522     		movs	r2, #245
 2034 0026 E280     		strh	r2, [r4, #6]	@ movhi
 2035              	.L149:
 2036              	.LVL191:
 2037              	.LBB333:
 2038              	.LBB334:
 2039              		.loc 1 887 0
 2040 0028 94F87310 		ldrb	r1, [r4, #115]	@ zero_extendqisi2
 2041 002c 1022     		movs	r2, #16
 2042 002e D4F88400 		ldr	r0, [r4, #132]
 2043 0032 FFF7FEFF 		bl	_ZN7creator3I2C9WriteByteEhhh
 2044              	.LVL192:
 2045              	.LBE334:
 2046              	.LBE333:
 2047              	.LBB335:
 2048              	.LBB336:
 2049              		.loc 1 678 0
 2050 0036 E088     		ldrh	r0, [r4, #6]
 2051 0038 FFF7FEFF 		bl	__aeabi_ui2f
 2052              	.LVL193:
ARM GAS  /tmp/ccoI4Tqz.s 			page 37


 2053 003c 4FF06051 		mov	r1, #939524096
 2054 0040 FFF7FEFF 		bl	__aeabi_fmul
 2055              	.LVL194:
 2056 0044 6067     		str	r0, [r4, #116]	@ float
 2057 0046 38BD     		pop	{r3, r4, r5, pc}
 2058              	.LVL195:
 2059              	.L148:
 2060              	.LBE336:
 2061              	.LBE335:
 2062              		.loc 1 561 0
 2063 0048 43F01803 		orr	r3, r3, #24
 2064              	.LVL196:
 2065              		.loc 1 562 0
 2066 004c E580     		strh	r5, [r4, #6]	@ movhi
 2067              		.loc 1 563 0
 2068 004e EBE7     		b	.L149
 2069              	.L147:
 2070              		.loc 1 557 0
 2071 0050 43F00803 		orr	r3, r3, #8
 2072              	.LVL197:
 2073              		.loc 1 558 0
 2074 0054 E580     		strh	r5, [r4, #6]	@ movhi
 2075              		.loc 1 559 0
 2076 0056 E7E7     		b	.L149
 2077              	.LBE330:
 2078              		.cfi_endproc
 2079              	.LFE35:
 2080              		.fnend
 2081              		.size	_ZN7LSM9DS112setGyroScaleEt, .-_ZN7LSM9DS112setGyroScaleEt
 2082              		.section	.text._ZN7LSM9DS113setAccelScaleEh,"ax",%progbits
 2083              		.align	2
 2084              		.p2align 4,,15
 2085              		.global	_ZN7LSM9DS113setAccelScaleEh
 2086              		.thumb
 2087              		.thumb_func
 2088              		.type	_ZN7LSM9DS113setAccelScaleEh, %function
 2089              	_ZN7LSM9DS113setAccelScaleEh:
 2090              		.fnstart
 2091              	.LFB36:
 2092              		.loc 1 573 0
 2093              		.cfi_startproc
 2094              		@ args = 0, pretend = 0, frame = 0
 2095              		@ frame_needed = 0, uses_anonymous_args = 0
 2096              	.LVL198:
 2097 0000 38B5     		push	{r3, r4, r5, lr}
 2098              		.save {r3, r4, r5, lr}
 2099              		.cfi_def_cfa_offset 16
 2100              		.cfi_offset 3, -16
 2101              		.cfi_offset 4, -12
 2102              		.cfi_offset 5, -8
 2103              		.cfi_offset 14, -4
 2104              		.loc 1 573 0
 2105 0002 0446     		mov	r4, r0
 2106              	.LVL199:
 2107 0004 0D46     		mov	r5, r1
 2108              	.LBB337:
 2109              	.LBB338:
ARM GAS  /tmp/ccoI4Tqz.s 			page 38


 2110              	.LBB339:
 2111              		.loc 1 895 0
 2112 0006 D0F88400 		ldr	r0, [r0, #132]
 2113              	.LVL200:
 2114 000a 94F87310 		ldrb	r1, [r4, #115]	@ zero_extendqisi2
 2115              	.LVL201:
 2116 000e 2022     		movs	r2, #32
 2117 0010 FFF7FEFF 		bl	_ZN7creator3I2C8ReadByteEhh
 2118              	.LVL202:
 2119              	.LBE339:
 2120              	.LBE338:
 2121              		.loc 1 579 0
 2122 0014 082D     		cmp	r5, #8
 2123              		.loc 1 577 0
 2124 0016 00F0E703 		and	r3, r0, #231
 2125              	.LVL203:
 2126              		.loc 1 579 0
 2127 001a 1DD0     		beq	.L155
 2128 001c 102D     		cmp	r5, #16
 2129 001e 17D0     		beq	.L156
 2130 0020 042D     		cmp	r5, #4
 2131 0022 11D0     		beq	.L161
 2132              		.loc 1 593 0
 2133 0024 0222     		movs	r2, #2
 2134 0026 E275     		strb	r2, [r4, #23]
 2135              	.L158:
 2136              	.LVL204:
 2137              	.LBB340:
 2138              	.LBB341:
 2139              		.loc 1 887 0
 2140 0028 94F87310 		ldrb	r1, [r4, #115]	@ zero_extendqisi2
 2141 002c 2022     		movs	r2, #32
 2142 002e D4F88400 		ldr	r0, [r4, #132]
 2143 0032 FFF7FEFF 		bl	_ZN7creator3I2C9WriteByteEhhh
 2144              	.LVL205:
 2145              	.LBE341:
 2146              	.LBE340:
 2147              	.LBB342:
 2148              	.LBB343:
 2149              		.loc 1 680 0
 2150 0036 E07D     		ldrb	r0, [r4, #23]	@ zero_extendqisi2
 2151 0038 FFF7FEFF 		bl	__aeabi_ui2f
 2152              	.LVL206:
 2153 003c 4FF06051 		mov	r1, #939524096
 2154 0040 FFF7FEFF 		bl	__aeabi_fmul
 2155              	.LVL207:
 2156 0044 A067     		str	r0, [r4, #120]	@ float
 2157 0046 38BD     		pop	{r3, r4, r5, pc}
 2158              	.LVL208:
 2159              	.L161:
 2160              	.LBE343:
 2161              	.LBE342:
 2162              		.loc 1 581 0
 2163 0048 43F01003 		orr	r3, r3, #16
 2164              	.LVL209:
 2165              		.loc 1 582 0
 2166 004c E575     		strb	r5, [r4, #23]
ARM GAS  /tmp/ccoI4Tqz.s 			page 39


 2167              		.loc 1 583 0
 2168 004e EBE7     		b	.L158
 2169              	.L156:
 2170              		.loc 1 589 0
 2171 0050 43F00803 		orr	r3, r3, #8
 2172              	.LVL210:
 2173              		.loc 1 590 0
 2174 0054 E575     		strb	r5, [r4, #23]
 2175              		.loc 1 591 0
 2176 0056 E7E7     		b	.L158
 2177              	.L155:
 2178              		.loc 1 585 0
 2179 0058 43F01803 		orr	r3, r3, #24
 2180              	.LVL211:
 2181              		.loc 1 586 0
 2182 005c E575     		strb	r5, [r4, #23]
 2183              		.loc 1 587 0
 2184 005e E3E7     		b	.L158
 2185              	.LBE337:
 2186              		.cfi_endproc
 2187              	.LFE36:
 2188              		.fnend
 2189              		.size	_ZN7LSM9DS113setAccelScaleEh, .-_ZN7LSM9DS113setAccelScaleEh
 2190              		.section	.text._ZN7LSM9DS110setGyroODREh,"ax",%progbits
 2191              		.align	2
 2192              		.p2align 4,,15
 2193              		.global	_ZN7LSM9DS110setGyroODREh
 2194              		.thumb
 2195              		.thumb_func
 2196              		.type	_ZN7LSM9DS110setGyroODREh, %function
 2197              	_ZN7LSM9DS110setGyroODREh:
 2198              		.fnstart
 2199              	.LFB38:
 2200              		.loc 1 636 0
 2201              		.cfi_startproc
 2202              		@ args = 0, pretend = 0, frame = 0
 2203              		@ frame_needed = 0, uses_anonymous_args = 0
 2204              	.LVL212:
 2205 0000 70B5     		push	{r4, r5, r6, lr}
 2206              		.save {r4, r5, r6, lr}
 2207              		.cfi_def_cfa_offset 16
 2208              		.cfi_offset 4, -16
 2209              		.cfi_offset 5, -12
 2210              		.cfi_offset 6, -8
 2211              		.cfi_offset 14, -4
 2212              	.LBB344:
 2213              		.loc 1 638 0
 2214 0002 11F00706 		ands	r6, r1, #7
 2215 0006 00D1     		bne	.L165
 2216 0008 70BD     		pop	{r4, r5, r6, pc}
 2217              	.L165:
 2218              	.LVL213:
 2219 000a 0546     		mov	r5, r0
 2220 000c 0C46     		mov	r4, r1
 2221              	.LBB345:
 2222              	.LBB346:
 2223              	.LBB347:
ARM GAS  /tmp/ccoI4Tqz.s 			page 40


 2224              		.loc 1 895 0
 2225 000e 1022     		movs	r2, #16
 2226 0010 95F87310 		ldrb	r1, [r5, #115]	@ zero_extendqisi2
 2227              	.LVL214:
 2228 0014 D0F88400 		ldr	r0, [r0, #132]
 2229              	.LVL215:
 2230 0018 FFF7FEFF 		bl	_ZN7creator3I2C8ReadByteEhh
 2231              	.LVL216:
 2232              	.LBE347:
 2233              	.LBE346:
 2234              		.loc 1 642 0
 2235 001c 00F01F00 		and	r0, r0, #31
 2236              	.LVL217:
 2237              		.loc 1 643 0
 2238 0020 40EA4413 		orr	r3, r0, r4, lsl #5
 2239              	.LVL218:
 2240              		.loc 1 645 0
 2241 0024 2E72     		strb	r6, [r5, #8]
 2242              	.LVL219:
 2243              	.LBB348:
 2244              	.LBB349:
 2245              		.loc 1 887 0
 2246 0026 D5F88400 		ldr	r0, [r5, #132]
 2247 002a 95F87310 		ldrb	r1, [r5, #115]	@ zero_extendqisi2
 2248 002e DBB2     		uxtb	r3, r3
 2249              	.LVL220:
 2250 0030 1022     		movs	r2, #16
 2251              	.LBE349:
 2252              	.LBE348:
 2253              	.LBE345:
 2254              	.LBE344:
 2255              		.loc 1 649 0
 2256 0032 BDE87040 		pop	{r4, r5, r6, lr}
 2257              		.cfi_restore 14
 2258              		.cfi_restore 6
 2259              		.cfi_restore 5
 2260              		.cfi_restore 4
 2261              		.cfi_def_cfa_offset 0
 2262              	.LVL221:
 2263              	.LBB353:
 2264              	.LBB352:
 2265              	.LBB351:
 2266              	.LBB350:
 2267              		.loc 1 887 0
 2268 0036 FFF7FEBF 		b	_ZN7creator3I2C9WriteByteEhhh
 2269              	.LVL222:
 2270              	.LBE350:
 2271              	.LBE351:
 2272              	.LBE352:
 2273              	.LBE353:
 2274              		.cfi_endproc
 2275              	.LFE38:
 2276              		.fnend
 2277              		.size	_ZN7LSM9DS110setGyroODREh, .-_ZN7LSM9DS110setGyroODREh
 2278 003a 00BF     		.section	.text._ZN7LSM9DS111setAccelODREh,"ax",%progbits
 2279              		.align	2
 2280              		.p2align 4,,15
ARM GAS  /tmp/ccoI4Tqz.s 			page 41


 2281              		.global	_ZN7LSM9DS111setAccelODREh
 2282              		.thumb
 2283              		.thumb_func
 2284              		.type	_ZN7LSM9DS111setAccelODREh, %function
 2285              	_ZN7LSM9DS111setAccelODREh:
 2286              		.fnstart
 2287              	.LFB39:
 2288              		.loc 1 651 0
 2289              		.cfi_startproc
 2290              		@ args = 0, pretend = 0, frame = 0
 2291              		@ frame_needed = 0, uses_anonymous_args = 0
 2292              	.LVL223:
 2293 0000 70B5     		push	{r4, r5, r6, lr}
 2294              		.save {r4, r5, r6, lr}
 2295              		.cfi_def_cfa_offset 16
 2296              		.cfi_offset 4, -16
 2297              		.cfi_offset 5, -12
 2298              		.cfi_offset 6, -8
 2299              		.cfi_offset 14, -4
 2300              	.LBB354:
 2301              		.loc 1 653 0
 2302 0002 11F00706 		ands	r6, r1, #7
 2303 0006 00D1     		bne	.L169
 2304 0008 70BD     		pop	{r4, r5, r6, pc}
 2305              	.L169:
 2306              	.LVL224:
 2307 000a 0546     		mov	r5, r0
 2308 000c 0C46     		mov	r4, r1
 2309              	.LBB355:
 2310              	.LBB356:
 2311              	.LBB357:
 2312              		.loc 1 895 0
 2313 000e 2022     		movs	r2, #32
 2314 0010 95F87310 		ldrb	r1, [r5, #115]	@ zero_extendqisi2
 2315              	.LVL225:
 2316 0014 D0F88400 		ldr	r0, [r0, #132]
 2317              	.LVL226:
 2318 0018 FFF7FEFF 		bl	_ZN7creator3I2C8ReadByteEhh
 2319              	.LVL227:
 2320              	.LBE357:
 2321              	.LBE356:
 2322              		.loc 1 657 0
 2323 001c 00F01F00 		and	r0, r0, #31
 2324              	.LVL228:
 2325              		.loc 1 659 0
 2326 0020 40EA4413 		orr	r3, r0, r4, lsl #5
 2327              	.LVL229:
 2328              		.loc 1 660 0
 2329 0024 2E76     		strb	r6, [r5, #24]
 2330              	.LVL230:
 2331              	.LBB358:
 2332              	.LBB359:
 2333              		.loc 1 887 0
 2334 0026 D5F88400 		ldr	r0, [r5, #132]
 2335 002a 95F87310 		ldrb	r1, [r5, #115]	@ zero_extendqisi2
 2336 002e DBB2     		uxtb	r3, r3
 2337              	.LVL231:
ARM GAS  /tmp/ccoI4Tqz.s 			page 42


 2338 0030 2022     		movs	r2, #32
 2339              	.LBE359:
 2340              	.LBE358:
 2341              	.LBE355:
 2342              	.LBE354:
 2343              		.loc 1 664 0
 2344 0032 BDE87040 		pop	{r4, r5, r6, lr}
 2345              		.cfi_restore 14
 2346              		.cfi_restore 6
 2347              		.cfi_restore 5
 2348              		.cfi_restore 4
 2349              		.cfi_def_cfa_offset 0
 2350              	.LVL232:
 2351              	.LBB363:
 2352              	.LBB362:
 2353              	.LBB361:
 2354              	.LBB360:
 2355              		.loc 1 887 0
 2356 0036 FFF7FEBF 		b	_ZN7creator3I2C9WriteByteEhhh
 2357              	.LVL233:
 2358              	.LBE360:
 2359              	.LBE361:
 2360              	.LBE362:
 2361              	.LBE363:
 2362              		.cfi_endproc
 2363              	.LFE39:
 2364              		.fnend
 2365              		.size	_ZN7LSM9DS111setAccelODREh, .-_ZN7LSM9DS111setAccelODREh
 2366 003a 00BF     		.section	.text._ZN7LSM9DS19setMagODREh,"ax",%progbits
 2367              		.align	2
 2368              		.p2align 4,,15
 2369              		.global	_ZN7LSM9DS19setMagODREh
 2370              		.thumb
 2371              		.thumb_func
 2372              		.type	_ZN7LSM9DS19setMagODREh, %function
 2373              	_ZN7LSM9DS19setMagODREh:
 2374              		.fnstart
 2375              	.LFB40:
 2376              		.loc 1 666 0
 2377              		.cfi_startproc
 2378              		@ args = 0, pretend = 0, frame = 0
 2379              		@ frame_needed = 0, uses_anonymous_args = 0
 2380              	.LVL234:
 2381 0000 70B5     		push	{r4, r5, r6, lr}
 2382              		.save {r4, r5, r6, lr}
 2383              		.cfi_def_cfa_offset 16
 2384              		.cfi_offset 4, -16
 2385              		.cfi_offset 5, -12
 2386              		.cfi_offset 6, -8
 2387              		.cfi_offset 14, -4
 2388              		.loc 1 666 0
 2389 0002 0446     		mov	r4, r0
 2390              	.LVL235:
 2391 0004 0D46     		mov	r5, r1
 2392              	.LBB364:
 2393              	.LBB365:
 2394              	.LBB366:
ARM GAS  /tmp/ccoI4Tqz.s 			page 43


 2395              		.loc 1 903 0
 2396 0006 2022     		movs	r2, #32
 2397 0008 94F87210 		ldrb	r1, [r4, #114]	@ zero_extendqisi2
 2398              	.LVL236:
 2399 000c D0F88400 		ldr	r0, [r0, #132]
 2400              	.LVL237:
 2401 0010 FFF7FEFF 		bl	_ZN7creator3I2C8ReadByteEhh
 2402              	.LVL238:
 2403              	.LBE366:
 2404              	.LBE365:
 2405              		.loc 1 672 0
 2406 0014 05F00701 		and	r1, r5, #7
 2407              		.loc 1 670 0
 2408 0018 20F01C00 		bic	r0, r0, #28
 2409              	.LVL239:
 2410              		.loc 1 672 0
 2411 001c 40EA8103 		orr	r3, r0, r1, lsl #2
 2412              	.LVL240:
 2413              		.loc 1 673 0
 2414 0020 84F82110 		strb	r1, [r4, #33]
 2415              	.LVL241:
 2416              	.LBB367:
 2417              	.LBB368:
 2418              		.loc 1 891 0
 2419 0024 D4F88400 		ldr	r0, [r4, #132]
 2420 0028 94F87210 		ldrb	r1, [r4, #114]	@ zero_extendqisi2
 2421 002c DBB2     		uxtb	r3, r3
 2422              	.LVL242:
 2423 002e 2022     		movs	r2, #32
 2424              	.LBE368:
 2425              	.LBE367:
 2426              	.LBE364:
 2427              		.loc 1 676 0
 2428 0030 BDE87040 		pop	{r4, r5, r6, lr}
 2429              		.cfi_restore 14
 2430              		.cfi_restore 6
 2431              		.cfi_restore 5
 2432              		.cfi_restore 4
 2433              		.cfi_def_cfa_offset 0
 2434              	.LVL243:
 2435              	.LBB371:
 2436              	.LBB370:
 2437              	.LBB369:
 2438              		.loc 1 891 0
 2439 0034 FFF7FEBF 		b	_ZN7creator3I2C9WriteByteEhhh
 2440              	.LVL244:
 2441              	.LBE369:
 2442              	.LBE370:
 2443              	.LBE371:
 2444              		.cfi_endproc
 2445              	.LFE40:
 2446              		.fnend
 2447              		.size	_ZN7LSM9DS19setMagODREh, .-_ZN7LSM9DS19setMagODREh
 2448              		.section	.text._ZN7LSM9DS18calcgResEv,"ax",%progbits
 2449              		.align	2
 2450              		.p2align 4,,15
 2451              		.global	_ZN7LSM9DS18calcgResEv
ARM GAS  /tmp/ccoI4Tqz.s 			page 44


 2452              		.thumb
 2453              		.thumb_func
 2454              		.type	_ZN7LSM9DS18calcgResEv, %function
 2455              	_ZN7LSM9DS18calcgResEv:
 2456              		.fnstart
 2457              	.LFB41:
 2458              		.loc 1 678 0
 2459              		.cfi_startproc
 2460              		@ args = 0, pretend = 0, frame = 0
 2461              		@ frame_needed = 0, uses_anonymous_args = 0
 2462              	.LVL245:
 2463 0000 10B5     		push	{r4, lr}
 2464              		.cfi_def_cfa_offset 8
 2465              		.cfi_offset 4, -8
 2466              		.cfi_offset 14, -4
 2467              		.loc 1 678 0
 2468 0002 0446     		mov	r4, r0
 2469 0004 C088     		ldrh	r0, [r0, #6]
 2470              	.LVL246:
 2471 0006 FFF7FEFF 		bl	__aeabi_ui2f
 2472              	.LVL247:
 2473 000a 4FF06051 		mov	r1, #939524096
 2474 000e FFF7FEFF 		bl	__aeabi_fmul
 2475              	.LVL248:
 2476 0012 6067     		str	r0, [r4, #116]	@ float
 2477 0014 10BD     		pop	{r4, pc}
 2478              		.cfi_endproc
 2479              	.LFE41:
 2480              		.cantunwind
 2481              		.fnend
 2482              		.size	_ZN7LSM9DS18calcgResEv, .-_ZN7LSM9DS18calcgResEv
 2483 0016 00BF     		.section	.text._ZN7LSM9DS18calcaResEv,"ax",%progbits
 2484              		.align	2
 2485              		.p2align 4,,15
 2486              		.global	_ZN7LSM9DS18calcaResEv
 2487              		.thumb
 2488              		.thumb_func
 2489              		.type	_ZN7LSM9DS18calcaResEv, %function
 2490              	_ZN7LSM9DS18calcaResEv:
 2491              		.fnstart
 2492              	.LFB42:
 2493              		.loc 1 680 0
 2494              		.cfi_startproc
 2495              		@ args = 0, pretend = 0, frame = 0
 2496              		@ frame_needed = 0, uses_anonymous_args = 0
 2497              	.LVL249:
 2498 0000 10B5     		push	{r4, lr}
 2499              		.cfi_def_cfa_offset 8
 2500              		.cfi_offset 4, -8
 2501              		.cfi_offset 14, -4
 2502              		.loc 1 680 0
 2503 0002 0446     		mov	r4, r0
 2504 0004 C07D     		ldrb	r0, [r0, #23]	@ zero_extendqisi2
 2505              	.LVL250:
 2506 0006 FFF7FEFF 		bl	__aeabi_ui2f
 2507              	.LVL251:
 2508 000a 4FF06051 		mov	r1, #939524096
ARM GAS  /tmp/ccoI4Tqz.s 			page 45


 2509 000e FFF7FEFF 		bl	__aeabi_fmul
 2510              	.LVL252:
 2511 0012 A067     		str	r0, [r4, #120]	@ float
 2512 0014 10BD     		pop	{r4, pc}
 2513              		.cfi_endproc
 2514              	.LFE42:
 2515              		.cantunwind
 2516              		.fnend
 2517              		.size	_ZN7LSM9DS18calcaResEv, .-_ZN7LSM9DS18calcaResEv
 2518 0016 00BF     		.section	.text._ZN7LSM9DS18calcmResEv,"ax",%progbits
 2519              		.align	2
 2520              		.p2align 4,,15
 2521              		.global	_ZN7LSM9DS18calcmResEv
 2522              		.thumb
 2523              		.thumb_func
 2524              		.type	_ZN7LSM9DS18calcmResEv, %function
 2525              	_ZN7LSM9DS18calcmResEv:
 2526              		.fnstart
 2527              	.LFB43:
 2528              		.loc 1 682 0
 2529              		.cfi_startproc
 2530              		@ args = 0, pretend = 0, frame = 0
 2531              		@ frame_needed = 0, uses_anonymous_args = 0
 2532              		@ link register save eliminated.
 2533              	.LVL253:
 2534              		.loc 1 684 0
 2535 0000 90F82030 		ldrb	r3, [r0, #32]	@ zero_extendqisi2
 2536 0004 043B     		subs	r3, r3, #4
 2537 0006 0C2B     		cmp	r3, #12
 2538 0008 0BD8     		bhi	.L176
 2539 000a DFE803F0 		tbb	[pc, r3]
 2540              	.L179:
 2541 000e 13       		.byte	(.L178-.L179)/2
 2542 000f 0A       		.byte	(.L176-.L179)/2
 2543 0010 0A       		.byte	(.L176-.L179)/2
 2544 0011 0A       		.byte	(.L176-.L179)/2
 2545 0012 0F       		.byte	(.L180-.L179)/2
 2546 0013 0A       		.byte	(.L176-.L179)/2
 2547 0014 0A       		.byte	(.L176-.L179)/2
 2548 0015 0A       		.byte	(.L176-.L179)/2
 2549 0016 0B       		.byte	(.L181-.L179)/2
 2550 0017 0A       		.byte	(.L176-.L179)/2
 2551 0018 0A       		.byte	(.L176-.L179)/2
 2552 0019 0A       		.byte	(.L176-.L179)/2
 2553 001a 07       		.byte	(.L182-.L179)/2
 2554 001b 00       		.p2align 1
 2555              	.L182:
 2556              		.loc 1 695 0
 2557 001c 074B     		ldr	r3, .L183
 2558 001e DB68     		ldr	r3, [r3, #12]	@ float
 2559 0020 C367     		str	r3, [r0, #124]	@ float
 2560              	.L176:
 2561 0022 7047     		bx	lr
 2562              	.L181:
 2563              		.loc 1 692 0
 2564 0024 054B     		ldr	r3, .L183
 2565 0026 9B68     		ldr	r3, [r3, #8]	@ float
ARM GAS  /tmp/ccoI4Tqz.s 			page 46


 2566 0028 C367     		str	r3, [r0, #124]	@ float
 2567              		.loc 1 693 0
 2568 002a 7047     		bx	lr
 2569              	.L180:
 2570              		.loc 1 689 0
 2571 002c 034B     		ldr	r3, .L183
 2572 002e 5B68     		ldr	r3, [r3, #4]	@ float
 2573 0030 C367     		str	r3, [r0, #124]	@ float
 2574              		.loc 1 690 0
 2575 0032 7047     		bx	lr
 2576              	.L178:
 2577              		.loc 1 686 0
 2578 0034 014B     		ldr	r3, .L183
 2579 0036 1B68     		ldr	r3, [r3]	@ float
 2580 0038 C367     		str	r3, [r0, #124]	@ float
 2581              		.loc 1 687 0
 2582 003a 7047     		bx	lr
 2583              	.L184:
 2584              		.align	2
 2585              	.L183:
 2586 003c 00000000 		.word	.LANCHOR1
 2587              		.cfi_endproc
 2588              	.LFE43:
 2589              		.cantunwind
 2590              		.fnend
 2591              		.size	_ZN7LSM9DS18calcmResEv, .-_ZN7LSM9DS18calcmResEv
 2592              		.section	.text._ZN7LSM9DS111setMagScaleEh,"ax",%progbits
 2593              		.align	2
 2594              		.p2align 4,,15
 2595              		.global	_ZN7LSM9DS111setMagScaleEh
 2596              		.thumb
 2597              		.thumb_func
 2598              		.type	_ZN7LSM9DS111setMagScaleEh, %function
 2599              	_ZN7LSM9DS111setMagScaleEh:
 2600              		.fnstart
 2601              	.LFB37:
 2602              		.loc 1 602 0
 2603              		.cfi_startproc
 2604              		@ args = 0, pretend = 0, frame = 0
 2605              		@ frame_needed = 0, uses_anonymous_args = 0
 2606              	.LVL254:
 2607 0000 38B5     		push	{r3, r4, r5, lr}
 2608              		.save {r3, r4, r5, lr}
 2609              		.cfi_def_cfa_offset 16
 2610              		.cfi_offset 3, -16
 2611              		.cfi_offset 4, -12
 2612              		.cfi_offset 5, -8
 2613              		.cfi_offset 14, -4
 2614              		.loc 1 602 0
 2615 0002 0446     		mov	r4, r0
 2616              	.LVL255:
 2617 0004 0D46     		mov	r5, r1
 2618              	.LBB372:
 2619              	.LBB373:
 2620              	.LBB374:
 2621              		.loc 1 903 0
 2622 0006 D0F88400 		ldr	r0, [r0, #132]
ARM GAS  /tmp/ccoI4Tqz.s 			page 47


 2623              	.LVL256:
 2624 000a 94F87210 		ldrb	r1, [r4, #114]	@ zero_extendqisi2
 2625              	.LVL257:
 2626 000e 2122     		movs	r2, #33
 2627 0010 FFF7FEFF 		bl	_ZN7creator3I2C8ReadByteEhh
 2628              	.LVL258:
 2629              	.LBE374:
 2630              	.LBE373:
 2631              		.loc 1 608 0
 2632 0014 0C2D     		cmp	r5, #12
 2633              		.loc 1 606 0
 2634 0016 00F09F03 		and	r3, r0, #159
 2635              	.LVL259:
 2636              		.loc 1 608 0
 2637 001a 1CD0     		beq	.L187
 2638 001c 102D     		cmp	r5, #16
 2639 001e 15D0     		beq	.L188
 2640 0020 082D     		cmp	r5, #8
 2641 0022 0ED0     		beq	.L193
 2642              		.loc 1 622 0
 2643 0024 0422     		movs	r2, #4
 2644 0026 84F82020 		strb	r2, [r4, #32]
 2645              	.L190:
 2646              	.LVL260:
 2647              	.LBB375:
 2648              	.LBB376:
 2649              		.loc 1 891 0
 2650 002a D4F88400 		ldr	r0, [r4, #132]
 2651 002e 94F87210 		ldrb	r1, [r4, #114]	@ zero_extendqisi2
 2652 0032 2122     		movs	r2, #33
 2653 0034 FFF7FEFF 		bl	_ZN7creator3I2C9WriteByteEhhh
 2654              	.LVL261:
 2655              	.LBE376:
 2656              	.LBE375:
 2657              		.loc 1 633 0
 2658 0038 2046     		mov	r0, r4
 2659              	.LBE372:
 2660              		.loc 1 634 0
 2661 003a BDE83840 		pop	{r3, r4, r5, lr}
 2662              		.cfi_remember_state
 2663              		.cfi_restore 14
 2664              		.cfi_restore 5
 2665              		.cfi_restore 4
 2666              		.cfi_restore 3
 2667              		.cfi_def_cfa_offset 0
 2668              	.LVL262:
 2669              	.LBB377:
 2670              		.loc 1 633 0
 2671 003e FFF7FEBF 		b	_ZN7LSM9DS18calcmResEv
 2672              	.LVL263:
 2673              	.L193:
 2674              		.cfi_restore_state
 2675              		.loc 1 610 0
 2676 0042 43F02003 		orr	r3, r3, #32
 2677              	.LVL264:
 2678              		.loc 1 611 0
 2679 0046 84F82050 		strb	r5, [r4, #32]
ARM GAS  /tmp/ccoI4Tqz.s 			page 48


 2680              		.loc 1 612 0
 2681 004a EEE7     		b	.L190
 2682              	.L188:
 2683              		.loc 1 618 0
 2684 004c 43F06003 		orr	r3, r3, #96
 2685              	.LVL265:
 2686              		.loc 1 619 0
 2687 0050 84F82050 		strb	r5, [r4, #32]
 2688              		.loc 1 620 0
 2689 0054 E9E7     		b	.L190
 2690              	.L187:
 2691              		.loc 1 614 0
 2692 0056 43F04003 		orr	r3, r3, #64
 2693              	.LVL266:
 2694              		.loc 1 615 0
 2695 005a 84F82050 		strb	r5, [r4, #32]
 2696              		.loc 1 616 0
 2697 005e E4E7     		b	.L190
 2698              	.LBE377:
 2699              		.cfi_endproc
 2700              	.LFE37:
 2701              		.fnend
 2702              		.size	_ZN7LSM9DS111setMagScaleEh, .-_ZN7LSM9DS111setMagScaleEh
 2703              		.section	.text._ZN7LSM9DS19configIntE16interrupt_selecth9h_lactive5pp_od,"ax",%progbits
 2704              		.align	2
 2705              		.p2align 4,,15
 2706              		.global	_ZN7LSM9DS19configIntE16interrupt_selecth9h_lactive5pp_od
 2707              		.thumb
 2708              		.thumb_func
 2709              		.type	_ZN7LSM9DS19configIntE16interrupt_selecth9h_lactive5pp_od, %function
 2710              	_ZN7LSM9DS19configIntE16interrupt_selecth9h_lactive5pp_od:
 2711              		.fnstart
 2712              	.LFB44:
 2713              		.loc 1 701 0
 2714              		.cfi_startproc
 2715              		@ args = 4, pretend = 0, frame = 0
 2716              		@ frame_needed = 0, uses_anonymous_args = 0
 2717              	.LVL267:
 2718 0000 70B5     		push	{r4, r5, r6, lr}
 2719              		.save {r4, r5, r6, lr}
 2720              		.cfi_def_cfa_offset 16
 2721              		.cfi_offset 4, -16
 2722              		.cfi_offset 5, -12
 2723              		.cfi_offset 6, -8
 2724              		.cfi_offset 14, -4
 2725              		.loc 1 701 0
 2726 0002 0446     		mov	r4, r0
 2727              	.LVL268:
 2728 0004 1046     		mov	r0, r2
 2729              	.LVL269:
 2730 0006 1E46     		mov	r6, r3
 2731              	.LBB378:
 2732              	.LBB379:
 2733              	.LBB380:
 2734              		.loc 1 887 0
 2735 0008 0A46     		mov	r2, r1
 2736              	.LVL270:
ARM GAS  /tmp/ccoI4Tqz.s 			page 49


 2737 000a 0346     		mov	r3, r0
 2738              	.LVL271:
 2739 000c 94F87310 		ldrb	r1, [r4, #115]	@ zero_extendqisi2
 2740              	.LVL272:
 2741 0010 D4F88400 		ldr	r0, [r4, #132]
 2742              	.LVL273:
 2743              	.LBE380:
 2744              	.LBE379:
 2745              	.LBE378:
 2746              		.loc 1 701 0
 2747 0014 9DF81050 		ldrb	r5, [sp, #16]	@ zero_extendqisi2
 2748              	.LBB389:
 2749              	.LBB382:
 2750              	.LBB381:
 2751              		.loc 1 887 0
 2752 0018 FFF7FEFF 		bl	_ZN7creator3I2C9WriteByteEhhh
 2753              	.LVL274:
 2754              	.LBE381:
 2755              	.LBE382:
 2756              	.LBB383:
 2757              	.LBB384:
 2758              		.loc 1 895 0
 2759 001c D4F88400 		ldr	r0, [r4, #132]
 2760 0020 94F87310 		ldrb	r1, [r4, #115]	@ zero_extendqisi2
 2761 0024 2222     		movs	r2, #34
 2762 0026 FFF7FEFF 		bl	_ZN7creator3I2C8ReadByteEhh
 2763              	.LVL275:
 2764              	.LBE384:
 2765              	.LBE383:
 2766              		.loc 1 712 0
 2767 002a 76B1     		cbz	r6, .L195
 2768              		.loc 1 713 0
 2769 002c 40F02003 		orr	r3, r0, #32
 2770 0030 DBB2     		uxtb	r3, r3
 2771              	.LVL276:
 2772              		.loc 1 717 0
 2773 0032 75B9     		cbnz	r5, .L200
 2774              	.L197:
 2775              		.loc 1 720 0
 2776 0034 43F01003 		orr	r3, r3, #16
 2777              	.LVL277:
 2778              	.L198:
 2779              	.LBB385:
 2780              	.LBB386:
 2781              		.loc 1 887 0
 2782 0038 D4F88400 		ldr	r0, [r4, #132]
 2783 003c 94F87310 		ldrb	r1, [r4, #115]	@ zero_extendqisi2
 2784 0040 2222     		movs	r2, #34
 2785              	.LBE386:
 2786              	.LBE385:
 2787              	.LBE389:
 2788              		.loc 1 723 0
 2789 0042 BDE87040 		pop	{r4, r5, r6, lr}
 2790              		.cfi_remember_state
 2791              		.cfi_restore 14
 2792              		.cfi_restore 6
 2793              		.cfi_restore 5
ARM GAS  /tmp/ccoI4Tqz.s 			page 50


 2794              		.cfi_restore 4
 2795              		.cfi_def_cfa_offset 0
 2796              	.LVL278:
 2797              	.LBB390:
 2798              	.LBB388:
 2799              	.LBB387:
 2800              		.loc 1 887 0
 2801 0046 FFF7FEBF 		b	_ZN7creator3I2C9WriteByteEhhh
 2802              	.LVL279:
 2803              	.L195:
 2804              		.cfi_restore_state
 2805              	.LBE387:
 2806              	.LBE388:
 2807              		.loc 1 715 0
 2808 004a 00F0DF03 		and	r3, r0, #223
 2809              	.LVL280:
 2810              		.loc 1 717 0
 2811 004e 002D     		cmp	r5, #0
 2812 0050 F0D0     		beq	.L197
 2813              	.L200:
 2814              		.loc 1 718 0
 2815 0052 03F0EF03 		and	r3, r3, #239
 2816              	.LVL281:
 2817 0056 EFE7     		b	.L198
 2818              	.LBE390:
 2819              		.cfi_endproc
 2820              	.LFE44:
 2821              		.fnend
 2822              		.size	_ZN7LSM9DS19configIntE16interrupt_selecth9h_lactive5pp_od, .-_ZN7LSM9DS19configIntE16interru
 2823              		.section	.text._ZN7LSM9DS116configInactivityEhhb,"ax",%progbits
 2824              		.align	2
 2825              		.p2align 4,,15
 2826              		.global	_ZN7LSM9DS116configInactivityEhhb
 2827              		.thumb
 2828              		.thumb_func
 2829              		.type	_ZN7LSM9DS116configInactivityEhhb, %function
 2830              	_ZN7LSM9DS116configInactivityEhhb:
 2831              		.fnstart
 2832              	.LFB45:
 2833              		.loc 1 726 0
 2834              		.cfi_startproc
 2835              		@ args = 0, pretend = 0, frame = 0
 2836              		@ frame_needed = 0, uses_anonymous_args = 0
 2837              	.LVL282:
 2838 0000 70B5     		push	{r4, r5, r6, lr}
 2839              		.save {r4, r5, r6, lr}
 2840              		.cfi_def_cfa_offset 16
 2841              		.cfi_offset 4, -16
 2842              		.cfi_offset 5, -12
 2843              		.cfi_offset 6, -8
 2844              		.cfi_offset 14, -4
 2845              	.LBB391:
 2846              		.loc 1 729 0
 2847 0002 02F07F02 		and	r2, r2, #127
 2848              	.LVL283:
 2849              	.LBE391:
 2850              		.loc 1 726 0
ARM GAS  /tmp/ccoI4Tqz.s 			page 51


 2851 0006 0446     		mov	r4, r0
 2852 0008 0D46     		mov	r5, r1
 2853              	.LBB398:
 2854              		.loc 1 730 0
 2855 000a 0BB1     		cbz	r3, .L202
 2856              		.loc 1 730 0 is_stmt 0 discriminator 1
 2857 000c 42F08002 		orr	r2, r2, #128
 2858              	.LVL284:
 2859              	.L202:
 2860              	.LBB392:
 2861              	.LBB393:
 2862              		.loc 1 887 0 is_stmt 1
 2863 0010 1346     		mov	r3, r2
 2864              	.LVL285:
 2865 0012 D4F88400 		ldr	r0, [r4, #132]
 2866              	.LVL286:
 2867 0016 94F87310 		ldrb	r1, [r4, #115]	@ zero_extendqisi2
 2868              	.LVL287:
 2869 001a 0422     		movs	r2, #4
 2870              	.LVL288:
 2871 001c FFF7FEFF 		bl	_ZN7creator3I2C9WriteByteEhhh
 2872              	.LVL289:
 2873              	.LBE393:
 2874              	.LBE392:
 2875              	.LBB394:
 2876              	.LBB395:
 2877 0020 2B46     		mov	r3, r5
 2878 0022 D4F88400 		ldr	r0, [r4, #132]
 2879 0026 94F87310 		ldrb	r1, [r4, #115]	@ zero_extendqisi2
 2880 002a 0522     		movs	r2, #5
 2881              	.LBE395:
 2882              	.LBE394:
 2883              	.LBE398:
 2884              		.loc 1 734 0
 2885 002c BDE87040 		pop	{r4, r5, r6, lr}
 2886              		.cfi_restore 14
 2887              		.cfi_restore 6
 2888              		.cfi_restore 5
 2889              		.cfi_restore 4
 2890              		.cfi_def_cfa_offset 0
 2891              	.LVL290:
 2892              	.LBB399:
 2893              	.LBB397:
 2894              	.LBB396:
 2895              		.loc 1 887 0
 2896 0030 FFF7FEBF 		b	_ZN7creator3I2C9WriteByteEhhh
 2897              	.LVL291:
 2898              	.LBE396:
 2899              	.LBE397:
 2900              	.LBE399:
 2901              		.cfi_endproc
 2902              	.LFE45:
 2903              		.fnend
 2904              		.size	_ZN7LSM9DS116configInactivityEhhb, .-_ZN7LSM9DS116configInactivityEhhb
 2905              		.section	.text._ZN7LSM9DS113getInactivityEv,"ax",%progbits
 2906              		.align	2
 2907              		.p2align 4,,15
ARM GAS  /tmp/ccoI4Tqz.s 			page 52


 2908              		.global	_ZN7LSM9DS113getInactivityEv
 2909              		.thumb
 2910              		.thumb_func
 2911              		.type	_ZN7LSM9DS113getInactivityEv, %function
 2912              	_ZN7LSM9DS113getInactivityEv:
 2913              		.fnstart
 2914              	.LFB46:
 2915              		.loc 1 736 0
 2916              		.cfi_startproc
 2917              		@ args = 0, pretend = 0, frame = 0
 2918              		@ frame_needed = 0, uses_anonymous_args = 0
 2919              	.LVL292:
 2920 0000 08B5     		push	{r3, lr}
 2921              		.save {r3, lr}
 2922              		.cfi_def_cfa_offset 8
 2923              		.cfi_offset 3, -8
 2924              		.cfi_offset 14, -4
 2925              		.loc 1 736 0
 2926 0002 0346     		mov	r3, r0
 2927              	.LVL293:
 2928              	.LBB400:
 2929              	.LBB401:
 2930              	.LBB402:
 2931              		.loc 1 895 0
 2932 0004 1722     		movs	r2, #23
 2933 0006 93F87310 		ldrb	r1, [r3, #115]	@ zero_extendqisi2
 2934 000a D0F88400 		ldr	r0, [r0, #132]
 2935              	.LVL294:
 2936 000e FFF7FEFF 		bl	_ZN7creator3I2C8ReadByteEhh
 2937              	.LVL295:
 2938              	.LBE402:
 2939              	.LBE401:
 2940              	.LBE400:
 2941              		.loc 1 740 0
 2942 0012 00F01000 		and	r0, r0, #16
 2943              	.LVL296:
 2944 0016 08BD     		pop	{r3, pc}
 2945              		.cfi_endproc
 2946              	.LFE46:
 2947              		.fnend
 2948              		.size	_ZN7LSM9DS113getInactivityEv, .-_ZN7LSM9DS113getInactivityEv
 2949              		.section	.text._ZN7LSM9DS114configAccelIntEhb,"ax",%progbits
 2950              		.align	2
 2951              		.p2align 4,,15
 2952              		.global	_ZN7LSM9DS114configAccelIntEhb
 2953              		.thumb
 2954              		.thumb_func
 2955              		.type	_ZN7LSM9DS114configAccelIntEhb, %function
 2956              	_ZN7LSM9DS114configAccelIntEhb:
 2957              		.fnstart
 2958              	.LFB47:
 2959              		.loc 1 742 0
 2960              		.cfi_startproc
 2961              		@ args = 0, pretend = 0, frame = 0
 2962              		@ frame_needed = 0, uses_anonymous_args = 0
 2963              		@ link register save eliminated.
 2964              	.LVL297:
ARM GAS  /tmp/ccoI4Tqz.s 			page 53


 2965 0000 10B4     		push	{r4}
 2966              		.cfi_def_cfa_offset 4
 2967              		.cfi_offset 4, -4
 2968              		.loc 1 742 0
 2969 0002 0B46     		mov	r3, r1
 2970              	.LVL298:
 2971 0004 0446     		mov	r4, r0
 2972              	.LBB403:
 2973              		.loc 1 746 0
 2974 0006 0AB1     		cbz	r2, .L210
 2975              		.loc 1 746 0 is_stmt 0 discriminator 1
 2976 0008 41F08003 		orr	r3, r1, #128
 2977              	.LVL299:
 2978              	.L210:
 2979              	.LBB404:
 2980              	.LBB405:
 2981              		.loc 1 887 0 is_stmt 1
 2982 000c D4F88400 		ldr	r0, [r4, #132]
 2983              	.LVL300:
 2984 0010 94F87310 		ldrb	r1, [r4, #115]	@ zero_extendqisi2
 2985              	.LVL301:
 2986 0014 0622     		movs	r2, #6
 2987              	.LVL302:
 2988              	.LBE405:
 2989              	.LBE404:
 2990              	.LBE403:
 2991              		.loc 1 748 0
 2992 0016 5DF8044B 		ldr	r4, [sp], #4
 2993              		.cfi_restore 4
 2994              		.cfi_def_cfa_offset 0
 2995              	.LVL303:
 2996              	.LBB408:
 2997              	.LBB407:
 2998              	.LBB406:
 2999              		.loc 1 887 0
 3000 001a FFF7FEBF 		b	_ZN7creator3I2C9WriteByteEhhh
 3001              	.LVL304:
 3002              	.LBE406:
 3003              	.LBE407:
 3004              	.LBE408:
 3005              		.cfi_endproc
 3006              	.LFE47:
 3007              		.cantunwind
 3008              		.fnend
 3009              		.size	_ZN7LSM9DS114configAccelIntEhb, .-_ZN7LSM9DS114configAccelIntEhb
 3010 001e 00BF     		.section	.text._ZN7LSM9DS114configAccelThsEh12lsm9ds1_axishb,"ax",%progbits
 3011              		.align	2
 3012              		.p2align 4,,15
 3013              		.global	_ZN7LSM9DS114configAccelThsEh12lsm9ds1_axishb
 3014              		.thumb
 3015              		.thumb_func
 3016              		.type	_ZN7LSM9DS114configAccelThsEh12lsm9ds1_axishb, %function
 3017              	_ZN7LSM9DS114configAccelThsEh12lsm9ds1_axishb:
 3018              		.fnstart
 3019              	.LFB48:
 3020              		.loc 1 751 0
 3021              		.cfi_startproc
ARM GAS  /tmp/ccoI4Tqz.s 			page 54


 3022              		@ args = 4, pretend = 0, frame = 0
 3023              		@ frame_needed = 0, uses_anonymous_args = 0
 3024              	.LVL305:
 3025 0000 70B5     		push	{r4, r5, r6, lr}
 3026              		.save {r4, r5, r6, lr}
 3027              		.cfi_def_cfa_offset 16
 3028              		.cfi_offset 4, -16
 3029              		.cfi_offset 5, -12
 3030              		.cfi_offset 6, -8
 3031              		.cfi_offset 14, -4
 3032              		.loc 1 751 0
 3033 0002 0546     		mov	r5, r0
 3034              	.LVL306:
 3035 0004 1C46     		mov	r4, r3
 3036              	.LBB409:
 3037              		.loc 1 754 0
 3038 0006 0732     		adds	r2, r2, #7
 3039              	.LVL307:
 3040              	.LBE409:
 3041              		.loc 1 751 0
 3042 0008 9DF81060 		ldrb	r6, [sp, #16]	@ zero_extendqisi2
 3043              	.LBB416:
 3044              	.LBB410:
 3045              	.LBB411:
 3046              		.loc 1 887 0
 3047 000c 0B46     		mov	r3, r1
 3048              	.LVL308:
 3049 000e D2B2     		uxtb	r2, r2
 3050 0010 D0F88400 		ldr	r0, [r0, #132]
 3051              	.LVL309:
 3052 0014 95F87310 		ldrb	r1, [r5, #115]	@ zero_extendqisi2
 3053              	.LVL310:
 3054 0018 FFF7FEFF 		bl	_ZN7creator3I2C9WriteByteEhhh
 3055              	.LVL311:
 3056              	.LBE411:
 3057              	.LBE410:
 3058              		.loc 1 758 0
 3059 001c 04F07F03 		and	r3, r4, #127
 3060              	.LVL312:
 3061              		.loc 1 759 0
 3062 0020 0EB1     		cbz	r6, .L216
 3063              		.loc 1 759 0 is_stmt 0 discriminator 1
 3064 0022 43F08003 		orr	r3, r3, #128
 3065              	.LVL313:
 3066              	.L216:
 3067              	.LBB412:
 3068              	.LBB413:
 3069              		.loc 1 887 0 is_stmt 1
 3070 0026 D5F88400 		ldr	r0, [r5, #132]
 3071 002a 95F87310 		ldrb	r1, [r5, #115]	@ zero_extendqisi2
 3072 002e 0A22     		movs	r2, #10
 3073              	.LBE413:
 3074              	.LBE412:
 3075              	.LBE416:
 3076              		.loc 1 761 0
 3077 0030 BDE87040 		pop	{r4, r5, r6, lr}
 3078              		.cfi_restore 14
ARM GAS  /tmp/ccoI4Tqz.s 			page 55


 3079              		.cfi_restore 6
 3080              		.cfi_restore 5
 3081              		.cfi_restore 4
 3082              		.cfi_def_cfa_offset 0
 3083              	.LVL314:
 3084              	.LBB417:
 3085              	.LBB415:
 3086              	.LBB414:
 3087              		.loc 1 887 0
 3088 0034 FFF7FEBF 		b	_ZN7creator3I2C9WriteByteEhhh
 3089              	.LVL315:
 3090              	.LBE414:
 3091              	.LBE415:
 3092              	.LBE417:
 3093              		.cfi_endproc
 3094              	.LFE48:
 3095              		.fnend
 3096              		.size	_ZN7LSM9DS114configAccelThsEh12lsm9ds1_axishb, .-_ZN7LSM9DS114configAccelThsEh12lsm9ds1_axis
 3097              		.section	.text._ZN7LSM9DS114getAccelIntSrcEv,"ax",%progbits
 3098              		.align	2
 3099              		.p2align 4,,15
 3100              		.global	_ZN7LSM9DS114getAccelIntSrcEv
 3101              		.thumb
 3102              		.thumb_func
 3103              		.type	_ZN7LSM9DS114getAccelIntSrcEv, %function
 3104              	_ZN7LSM9DS114getAccelIntSrcEv:
 3105              		.fnstart
 3106              	.LFB49:
 3107              		.loc 1 763 0
 3108              		.cfi_startproc
 3109              		@ args = 0, pretend = 0, frame = 0
 3110              		@ frame_needed = 0, uses_anonymous_args = 0
 3111              	.LVL316:
 3112 0000 08B5     		push	{r3, lr}
 3113              		.save {r3, lr}
 3114              		.cfi_def_cfa_offset 8
 3115              		.cfi_offset 3, -8
 3116              		.cfi_offset 14, -4
 3117              		.loc 1 763 0
 3118 0002 0346     		mov	r3, r0
 3119              	.LVL317:
 3120              	.LBB418:
 3121              	.LBB419:
 3122              	.LBB420:
 3123              		.loc 1 895 0
 3124 0004 2622     		movs	r2, #38
 3125 0006 93F87310 		ldrb	r1, [r3, #115]	@ zero_extendqisi2
 3126 000a D0F88400 		ldr	r0, [r0, #132]
 3127              	.LVL318:
 3128 000e FFF7FEFF 		bl	_ZN7creator3I2C8ReadByteEhh
 3129              	.LVL319:
 3130              	.LBE420:
 3131              	.LBE419:
 3132              		.loc 1 767 0
 3133 0012 00F04003 		and	r3, r0, #64
 3134 0016 03F0FF02 		and	r2, r3, #255
 3135 001a 0BB1     		cbz	r3, .L222
ARM GAS  /tmp/ccoI4Tqz.s 			page 56


 3136              		.loc 1 768 0
 3137 001c 00F03F02 		and	r2, r0, #63
 3138              	.L222:
 3139              	.LBE418:
 3140              		.loc 1 772 0
 3141 0020 1046     		mov	r0, r2
 3142              	.LVL320:
 3143 0022 08BD     		pop	{r3, pc}
 3144              		.cfi_endproc
 3145              	.LFE49:
 3146              		.fnend
 3147              		.size	_ZN7LSM9DS114getAccelIntSrcEv, .-_ZN7LSM9DS114getAccelIntSrcEv
 3148              		.section	.text._ZN7LSM9DS113configGyroIntEhbb,"ax",%progbits
 3149              		.align	2
 3150              		.p2align 4,,15
 3151              		.global	_ZN7LSM9DS113configGyroIntEhbb
 3152              		.thumb
 3153              		.thumb_func
 3154              		.type	_ZN7LSM9DS113configGyroIntEhbb, %function
 3155              	_ZN7LSM9DS113configGyroIntEhbb:
 3156              		.fnstart
 3157              	.LFB50:
 3158              		.loc 1 774 0
 3159              		.cfi_startproc
 3160              		@ args = 0, pretend = 0, frame = 0
 3161              		@ frame_needed = 0, uses_anonymous_args = 0
 3162              		@ link register save eliminated.
 3163              	.LVL321:
 3164 0000 10B4     		push	{r4}
 3165              		.cfi_def_cfa_offset 4
 3166              		.cfi_offset 4, -4
 3167              		.loc 1 774 0
 3168 0002 0446     		mov	r4, r0
 3169              	.LVL322:
 3170              	.LBB421:
 3171              		.loc 1 778 0
 3172 0004 0AB1     		cbz	r2, .L228
 3173              		.loc 1 778 0 is_stmt 0 discriminator 1
 3174 0006 41F08001 		orr	r1, r1, #128
 3175              	.LVL323:
 3176              	.L228:
 3177              		.loc 1 779 0 is_stmt 1
 3178 000a 0BB1     		cbz	r3, .L229
 3179              		.loc 1 779 0 is_stmt 0 discriminator 1
 3180 000c 41F04001 		orr	r1, r1, #64
 3181              	.LVL324:
 3182              	.L229:
 3183              	.LBB422:
 3184              	.LBB423:
 3185              		.loc 1 887 0 is_stmt 1
 3186 0010 0B46     		mov	r3, r1
 3187              	.LVL325:
 3188 0012 D4F88400 		ldr	r0, [r4, #132]
 3189              	.LVL326:
 3190 0016 94F87310 		ldrb	r1, [r4, #115]	@ zero_extendqisi2
 3191              	.LVL327:
 3192 001a 3022     		movs	r2, #48
ARM GAS  /tmp/ccoI4Tqz.s 			page 57


 3193              	.LVL328:
 3194              	.LBE423:
 3195              	.LBE422:
 3196              	.LBE421:
 3197              		.loc 1 781 0
 3198 001c 5DF8044B 		ldr	r4, [sp], #4
 3199              		.cfi_restore 4
 3200              		.cfi_def_cfa_offset 0
 3201              	.LVL329:
 3202              	.LBB426:
 3203              	.LBB425:
 3204              	.LBB424:
 3205              		.loc 1 887 0
 3206 0020 FFF7FEBF 		b	_ZN7creator3I2C9WriteByteEhhh
 3207              	.LVL330:
 3208              	.LBE424:
 3209              	.LBE425:
 3210              	.LBE426:
 3211              		.cfi_endproc
 3212              	.LFE50:
 3213              		.cantunwind
 3214              		.fnend
 3215              		.size	_ZN7LSM9DS113configGyroIntEhbb, .-_ZN7LSM9DS113configGyroIntEhbb
 3216              		.section	.text._ZN7LSM9DS113configGyroThsEs12lsm9ds1_axishb,"ax",%progbits
 3217              		.align	2
 3218              		.p2align 4,,15
 3219              		.global	_ZN7LSM9DS113configGyroThsEs12lsm9ds1_axishb
 3220              		.thumb
 3221              		.thumb_func
 3222              		.type	_ZN7LSM9DS113configGyroThsEs12lsm9ds1_axishb, %function
 3223              	_ZN7LSM9DS113configGyroThsEs12lsm9ds1_axishb:
 3224              		.fnstart
 3225              	.LFB51:
 3226              		.loc 1 784 0
 3227              		.cfi_startproc
 3228              		@ args = 4, pretend = 0, frame = 0
 3229              		@ frame_needed = 0, uses_anonymous_args = 0
 3230              	.LVL331:
 3231 0000 2DE9F041 		push	{r4, r5, r6, r7, r8, lr}
 3232              		.save {r4, r5, r6, r7, r8, lr}
 3233              		.cfi_def_cfa_offset 24
 3234              		.cfi_offset 4, -24
 3235              		.cfi_offset 5, -20
 3236              		.cfi_offset 6, -16
 3237              		.cfi_offset 7, -12
 3238              		.cfi_offset 8, -8
 3239              		.cfi_offset 14, -4
 3240              		.loc 1 784 0
 3241 0004 0446     		mov	r4, r0
 3242 0006 0F46     		mov	r7, r1
 3243              	.LVL332:
 3244 0008 1546     		mov	r5, r2
 3245 000a 1E46     		mov	r6, r3
 3246              	.LBB427:
 3247              		.loc 1 790 0
 3248 000c 5200     		lsls	r2, r2, #1
 3249              	.LVL333:
ARM GAS  /tmp/ccoI4Tqz.s 			page 58


 3250 000e 3132     		adds	r2, r2, #49
 3251              	.LBB428:
 3252              	.LBB429:
 3253              		.loc 1 887 0
 3254 0010 D2B2     		uxtb	r2, r2
 3255 0012 D0F88400 		ldr	r0, [r0, #132]
 3256              	.LVL334:
 3257 0016 94F87310 		ldrb	r1, [r4, #115]	@ zero_extendqisi2
 3258              	.LVL335:
 3259 001a C7F30623 		ubfx	r3, r7, #8, #7
 3260              	.LVL336:
 3261              	.LBE429:
 3262              	.LBE428:
 3263              	.LBE427:
 3264              		.loc 1 784 0
 3265 001e 9DF81880 		ldrb	r8, [sp, #24]	@ zero_extendqisi2
 3266              	.LBB438:
 3267              	.LBB431:
 3268              	.LBB430:
 3269              		.loc 1 887 0
 3270 0022 FFF7FEFF 		bl	_ZN7creator3I2C9WriteByteEhhh
 3271              	.LVL337:
 3272              	.LBE430:
 3273              	.LBE431:
 3274              		.loc 1 791 0
 3275 0026 05F11902 		add	r2, r5, #25
 3276 002a 5200     		lsls	r2, r2, #1
 3277              	.LBB432:
 3278              	.LBB433:
 3279              		.loc 1 887 0
 3280 002c FBB2     		uxtb	r3, r7
 3281 002e 02F0FE02 		and	r2, r2, #254
 3282 0032 D4F88400 		ldr	r0, [r4, #132]
 3283 0036 94F87310 		ldrb	r1, [r4, #115]	@ zero_extendqisi2
 3284 003a FFF7FEFF 		bl	_ZN7creator3I2C9WriteByteEhhh
 3285              	.LVL338:
 3286              	.LBE433:
 3287              	.LBE432:
 3288              		.loc 1 795 0
 3289 003e 06F07F03 		and	r3, r6, #127
 3290              	.LVL339:
 3291              		.loc 1 796 0
 3292 0042 B8F1000F 		cmp	r8, #0
 3293 0046 01D0     		beq	.L238
 3294              		.loc 1 796 0 is_stmt 0 discriminator 1
 3295 0048 43F08003 		orr	r3, r3, #128
 3296              	.LVL340:
 3297              	.L238:
 3298              	.LBB434:
 3299              	.LBB435:
 3300              		.loc 1 887 0 is_stmt 1
 3301 004c D4F88400 		ldr	r0, [r4, #132]
 3302 0050 94F87310 		ldrb	r1, [r4, #115]	@ zero_extendqisi2
 3303 0054 3722     		movs	r2, #55
 3304              	.LBE435:
 3305              	.LBE434:
 3306              	.LBE438:
ARM GAS  /tmp/ccoI4Tqz.s 			page 59


 3307              		.loc 1 798 0
 3308 0056 BDE8F041 		pop	{r4, r5, r6, r7, r8, lr}
 3309              		.cfi_restore 14
 3310              		.cfi_restore 8
 3311              		.cfi_restore 7
 3312              		.cfi_restore 6
 3313              		.cfi_restore 5
 3314              		.cfi_restore 4
 3315              		.cfi_def_cfa_offset 0
 3316              	.LVL341:
 3317              	.LBB439:
 3318              	.LBB437:
 3319              	.LBB436:
 3320              		.loc 1 887 0
 3321 005a FFF7FEBF 		b	_ZN7creator3I2C9WriteByteEhhh
 3322              	.LVL342:
 3323              	.LBE436:
 3324              	.LBE437:
 3325              	.LBE439:
 3326              		.cfi_endproc
 3327              	.LFE51:
 3328              		.fnend
 3329              		.size	_ZN7LSM9DS113configGyroThsEs12lsm9ds1_axishb, .-_ZN7LSM9DS113configGyroThsEs12lsm9ds1_axishb
 3330 005e 00BF     		.section	.text._ZN7LSM9DS113getGyroIntSrcEv,"ax",%progbits
 3331              		.align	2
 3332              		.p2align 4,,15
 3333              		.global	_ZN7LSM9DS113getGyroIntSrcEv
 3334              		.thumb
 3335              		.thumb_func
 3336              		.type	_ZN7LSM9DS113getGyroIntSrcEv, %function
 3337              	_ZN7LSM9DS113getGyroIntSrcEv:
 3338              		.fnstart
 3339              	.LFB52:
 3340              		.loc 1 800 0
 3341              		.cfi_startproc
 3342              		@ args = 0, pretend = 0, frame = 0
 3343              		@ frame_needed = 0, uses_anonymous_args = 0
 3344              	.LVL343:
 3345 0000 08B5     		push	{r3, lr}
 3346              		.save {r3, lr}
 3347              		.cfi_def_cfa_offset 8
 3348              		.cfi_offset 3, -8
 3349              		.cfi_offset 14, -4
 3350              		.loc 1 800 0
 3351 0002 0346     		mov	r3, r0
 3352              	.LVL344:
 3353              	.LBB440:
 3354              	.LBB441:
 3355              	.LBB442:
 3356              		.loc 1 895 0
 3357 0004 1422     		movs	r2, #20
 3358 0006 93F87310 		ldrb	r1, [r3, #115]	@ zero_extendqisi2
 3359 000a D0F88400 		ldr	r0, [r0, #132]
 3360              	.LVL345:
 3361 000e FFF7FEFF 		bl	_ZN7creator3I2C8ReadByteEhh
 3362              	.LVL346:
 3363              	.LBE442:
ARM GAS  /tmp/ccoI4Tqz.s 			page 60


 3364              	.LBE441:
 3365              		.loc 1 804 0
 3366 0012 00F04003 		and	r3, r0, #64
 3367 0016 03F0FF02 		and	r2, r3, #255
 3368 001a 0BB1     		cbz	r3, .L244
 3369              		.loc 1 805 0
 3370 001c 00F03F02 		and	r2, r0, #63
 3371              	.L244:
 3372              	.LBE440:
 3373              		.loc 1 809 0
 3374 0020 1046     		mov	r0, r2
 3375              	.LVL347:
 3376 0022 08BD     		pop	{r3, pc}
 3377              		.cfi_endproc
 3378              	.LFE52:
 3379              		.fnend
 3380              		.size	_ZN7LSM9DS113getGyroIntSrcEv, .-_ZN7LSM9DS113getGyroIntSrcEv
 3381              		.section	.text._ZN7LSM9DS112configMagIntEh9h_lactiveb,"ax",%progbits
 3382              		.align	2
 3383              		.p2align 4,,15
 3384              		.global	_ZN7LSM9DS112configMagIntEh9h_lactiveb
 3385              		.thumb
 3386              		.thumb_func
 3387              		.type	_ZN7LSM9DS112configMagIntEh9h_lactiveb, %function
 3388              	_ZN7LSM9DS112configMagIntEh9h_lactiveb:
 3389              		.fnstart
 3390              	.LFB53:
 3391              		.loc 1 811 0
 3392              		.cfi_startproc
 3393              		@ args = 0, pretend = 0, frame = 0
 3394              		@ frame_needed = 0, uses_anonymous_args = 0
 3395              		@ link register save eliminated.
 3396              	.LVL348:
 3397 0000 10B4     		push	{r4}
 3398              		.cfi_def_cfa_offset 4
 3399              		.cfi_offset 4, -4
 3400              		.loc 1 811 0
 3401 0002 0446     		mov	r4, r0
 3402 0004 1846     		mov	r0, r3
 3403              	.LVL349:
 3404              	.LBB443:
 3405              		.loc 1 813 0
 3406 0006 01F0E003 		and	r3, r1, #224
 3407              	.LVL350:
 3408              		.loc 1 815 0
 3409 000a 0AB9     		cbnz	r2, .L250
 3410              		.loc 1 815 0 is_stmt 0 discriminator 1
 3411 000c 43F00403 		orr	r3, r3, #4
 3412              	.LVL351:
 3413              	.L250:
 3414              		.loc 1 817 0 is_stmt 1
 3415 0010 08B9     		cbnz	r0, .L251
 3416              		.loc 1 817 0 is_stmt 0 discriminator 1
 3417 0012 43F00203 		orr	r3, r3, #2
 3418              	.LVL352:
 3419              	.L251:
 3420              		.loc 1 819 0 is_stmt 1
ARM GAS  /tmp/ccoI4Tqz.s 			page 61


 3421 0016 09B1     		cbz	r1, .L252
 3422              		.loc 1 819 0 is_stmt 0 discriminator 1
 3423 0018 43F00103 		orr	r3, r3, #1
 3424              	.LVL353:
 3425              	.L252:
 3426              	.LBB444:
 3427              	.LBB445:
 3428              		.loc 1 891 0 is_stmt 1
 3429 001c D4F88400 		ldr	r0, [r4, #132]
 3430 0020 94F87210 		ldrb	r1, [r4, #114]	@ zero_extendqisi2
 3431              	.LVL354:
 3432 0024 3022     		movs	r2, #48
 3433              	.LVL355:
 3434              	.LBE445:
 3435              	.LBE444:
 3436              	.LBE443:
 3437              		.loc 1 822 0
 3438 0026 5DF8044B 		ldr	r4, [sp], #4
 3439              		.cfi_restore 4
 3440              		.cfi_def_cfa_offset 0
 3441              	.LVL356:
 3442              	.LBB448:
 3443              	.LBB447:
 3444              	.LBB446:
 3445              		.loc 1 891 0
 3446 002a FFF7FEBF 		b	_ZN7creator3I2C9WriteByteEhhh
 3447              	.LVL357:
 3448              	.LBE446:
 3449              	.LBE447:
 3450              	.LBE448:
 3451              		.cfi_endproc
 3452              	.LFE53:
 3453              		.cantunwind
 3454              		.fnend
 3455              		.size	_ZN7LSM9DS112configMagIntEh9h_lactiveb, .-_ZN7LSM9DS112configMagIntEh9h_lactiveb
 3456 002e 00BF     		.section	.text._ZN7LSM9DS112configMagThsEt,"ax",%progbits
 3457              		.align	2
 3458              		.p2align 4,,15
 3459              		.global	_ZN7LSM9DS112configMagThsEt
 3460              		.thumb
 3461              		.thumb_func
 3462              		.type	_ZN7LSM9DS112configMagThsEt, %function
 3463              	_ZN7LSM9DS112configMagThsEt:
 3464              		.fnstart
 3465              	.LFB54:
 3466              		.loc 1 824 0
 3467              		.cfi_startproc
 3468              		@ args = 0, pretend = 0, frame = 0
 3469              		@ frame_needed = 0, uses_anonymous_args = 0
 3470              	.LVL358:
 3471 0000 70B5     		push	{r4, r5, r6, lr}
 3472              		.save {r4, r5, r6, lr}
 3473              		.cfi_def_cfa_offset 16
 3474              		.cfi_offset 4, -16
 3475              		.cfi_offset 5, -12
 3476              		.cfi_offset 6, -8
 3477              		.cfi_offset 14, -4
ARM GAS  /tmp/ccoI4Tqz.s 			page 62


 3478              		.loc 1 824 0
 3479 0002 0446     		mov	r4, r0
 3480              	.LVL359:
 3481 0004 0D46     		mov	r5, r1
 3482              	.LVL360:
 3483              	.LBB449:
 3484              	.LBB450:
 3485              		.loc 1 891 0
 3486 0006 D0F88400 		ldr	r0, [r0, #132]
 3487              	.LVL361:
 3488 000a 94F87210 		ldrb	r1, [r4, #114]	@ zero_extendqisi2
 3489              	.LVL362:
 3490 000e C5F30623 		ubfx	r3, r5, #8, #7
 3491 0012 3322     		movs	r2, #51
 3492 0014 FFF7FEFF 		bl	_ZN7creator3I2C9WriteByteEhhh
 3493              	.LVL363:
 3494              	.LBE450:
 3495              	.LBE449:
 3496              	.LBB451:
 3497              	.LBB452:
 3498 0018 EBB2     		uxtb	r3, r5
 3499 001a D4F88400 		ldr	r0, [r4, #132]
 3500 001e 94F87210 		ldrb	r1, [r4, #114]	@ zero_extendqisi2
 3501 0022 3222     		movs	r2, #50
 3502              	.LBE452:
 3503              	.LBE451:
 3504              		.loc 1 829 0
 3505 0024 BDE87040 		pop	{r4, r5, r6, lr}
 3506              		.cfi_restore 14
 3507              		.cfi_restore 6
 3508              		.cfi_restore 5
 3509              		.cfi_restore 4
 3510              		.cfi_def_cfa_offset 0
 3511              	.LVL364:
 3512              	.LBB454:
 3513              	.LBB453:
 3514              		.loc 1 891 0
 3515 0028 FFF7FEBF 		b	_ZN7creator3I2C9WriteByteEhhh
 3516              	.LVL365:
 3517              	.LBE453:
 3518              	.LBE454:
 3519              		.cfi_endproc
 3520              	.LFE54:
 3521              		.fnend
 3522              		.size	_ZN7LSM9DS112configMagThsEt, .-_ZN7LSM9DS112configMagThsEt
 3523              		.section	.text._ZN7LSM9DS112getMagIntSrcEv,"ax",%progbits
 3524              		.align	2
 3525              		.p2align 4,,15
 3526              		.global	_ZN7LSM9DS112getMagIntSrcEv
 3527              		.thumb
 3528              		.thumb_func
 3529              		.type	_ZN7LSM9DS112getMagIntSrcEv, %function
 3530              	_ZN7LSM9DS112getMagIntSrcEv:
 3531              		.fnstart
 3532              	.LFB55:
 3533              		.loc 1 831 0
 3534              		.cfi_startproc
ARM GAS  /tmp/ccoI4Tqz.s 			page 63


 3535              		@ args = 0, pretend = 0, frame = 0
 3536              		@ frame_needed = 0, uses_anonymous_args = 0
 3537              	.LVL366:
 3538 0000 08B5     		push	{r3, lr}
 3539              		.save {r3, lr}
 3540              		.cfi_def_cfa_offset 8
 3541              		.cfi_offset 3, -8
 3542              		.cfi_offset 14, -4
 3543              		.loc 1 831 0
 3544 0002 0346     		mov	r3, r0
 3545              	.LVL367:
 3546              	.LBB455:
 3547              	.LBB456:
 3548              	.LBB457:
 3549              		.loc 1 903 0
 3550 0004 3022     		movs	r2, #48
 3551 0006 93F87210 		ldrb	r1, [r3, #114]	@ zero_extendqisi2
 3552 000a D0F88400 		ldr	r0, [r0, #132]
 3553              	.LVL368:
 3554 000e FFF7FEFF 		bl	_ZN7creator3I2C8ReadByteEhh
 3555              	.LVL369:
 3556 0012 0346     		mov	r3, r0
 3557              	.LVL370:
 3558              	.LBE457:
 3559              	.LBE456:
 3560              		.loc 1 835 0
 3561 0014 10F00100 		ands	r0, r0, #1
 3562              	.LVL371:
 3563              		.loc 1 836 0
 3564 0018 18BF     		it	ne
 3565 001a 03F0FE00 		andne	r0, r3, #254
 3566              	.LBE455:
 3567              		.loc 1 840 0
 3568 001e 08BD     		pop	{r3, pc}
 3569              		.cfi_endproc
 3570              	.LFE55:
 3571              		.fnend
 3572              		.size	_ZN7LSM9DS112getMagIntSrcEv, .-_ZN7LSM9DS112getMagIntSrcEv
 3573              		.section	.text._ZN7LSM9DS19sleepGyroEb,"ax",%progbits
 3574              		.align	2
 3575              		.p2align 4,,15
 3576              		.global	_ZN7LSM9DS19sleepGyroEb
 3577              		.thumb
 3578              		.thumb_func
 3579              		.type	_ZN7LSM9DS19sleepGyroEb, %function
 3580              	_ZN7LSM9DS19sleepGyroEb:
 3581              		.fnstart
 3582              	.LFB56:
 3583              		.loc 1 842 0
 3584              		.cfi_startproc
 3585              		@ args = 0, pretend = 0, frame = 0
 3586              		@ frame_needed = 0, uses_anonymous_args = 0
 3587              	.LVL372:
 3588 0000 70B5     		push	{r4, r5, r6, lr}
 3589              		.save {r4, r5, r6, lr}
 3590              		.cfi_def_cfa_offset 16
 3591              		.cfi_offset 4, -16
ARM GAS  /tmp/ccoI4Tqz.s 			page 64


 3592              		.cfi_offset 5, -12
 3593              		.cfi_offset 6, -8
 3594              		.cfi_offset 14, -4
 3595              		.loc 1 842 0
 3596 0002 0446     		mov	r4, r0
 3597              	.LVL373:
 3598 0004 0D46     		mov	r5, r1
 3599              	.LBB458:
 3600              	.LBB459:
 3601              	.LBB460:
 3602              		.loc 1 895 0
 3603 0006 D0F88400 		ldr	r0, [r0, #132]
 3604              	.LVL374:
 3605 000a 94F87310 		ldrb	r1, [r4, #115]	@ zero_extendqisi2
 3606              	.LVL375:
 3607 000e 2322     		movs	r2, #35
 3608 0010 FFF7FEFF 		bl	_ZN7creator3I2C8ReadByteEhh
 3609              	.LVL376:
 3610              	.LBE460:
 3611              	.LBE459:
 3612              		.loc 1 844 0
 3613 0014 55B9     		cbnz	r5, .L269
 3614              		.loc 1 847 0
 3615 0016 00F0BF03 		and	r3, r0, #191
 3616              	.LVL377:
 3617              	.L267:
 3618              	.LBB461:
 3619              	.LBB462:
 3620              		.loc 1 887 0
 3621 001a D4F88400 		ldr	r0, [r4, #132]
 3622 001e 94F87310 		ldrb	r1, [r4, #115]	@ zero_extendqisi2
 3623 0022 2322     		movs	r2, #35
 3624              	.LBE462:
 3625              	.LBE461:
 3626              	.LBE458:
 3627              		.loc 1 849 0
 3628 0024 BDE87040 		pop	{r4, r5, r6, lr}
 3629              		.cfi_remember_state
 3630              		.cfi_restore 14
 3631              		.cfi_restore 6
 3632              		.cfi_restore 5
 3633              		.cfi_restore 4
 3634              		.cfi_def_cfa_offset 0
 3635              	.LVL378:
 3636              	.LBB465:
 3637              	.LBB464:
 3638              	.LBB463:
 3639              		.loc 1 887 0
 3640 0028 FFF7FEBF 		b	_ZN7creator3I2C9WriteByteEhhh
 3641              	.LVL379:
 3642              	.L269:
 3643              		.cfi_restore_state
 3644              	.LBE463:
 3645              	.LBE464:
 3646              		.loc 1 845 0
 3647 002c 40F04003 		orr	r3, r0, #64
 3648 0030 DBB2     		uxtb	r3, r3
ARM GAS  /tmp/ccoI4Tqz.s 			page 65


 3649              	.LVL380:
 3650 0032 F2E7     		b	.L267
 3651              	.LBE465:
 3652              		.cfi_endproc
 3653              	.LFE56:
 3654              		.fnend
 3655              		.size	_ZN7LSM9DS19sleepGyroEb, .-_ZN7LSM9DS19sleepGyroEb
 3656              		.section	.text._ZN7LSM9DS110enableFIFOEb,"ax",%progbits
 3657              		.align	2
 3658              		.p2align 4,,15
 3659              		.global	_ZN7LSM9DS110enableFIFOEb
 3660              		.thumb
 3661              		.thumb_func
 3662              		.type	_ZN7LSM9DS110enableFIFOEb, %function
 3663              	_ZN7LSM9DS110enableFIFOEb:
 3664              		.fnstart
 3665              	.LFB57:
 3666              		.loc 1 851 0
 3667              		.cfi_startproc
 3668              		@ args = 0, pretend = 0, frame = 0
 3669              		@ frame_needed = 0, uses_anonymous_args = 0
 3670              	.LVL381:
 3671 0000 70B5     		push	{r4, r5, r6, lr}
 3672              		.save {r4, r5, r6, lr}
 3673              		.cfi_def_cfa_offset 16
 3674              		.cfi_offset 4, -16
 3675              		.cfi_offset 5, -12
 3676              		.cfi_offset 6, -8
 3677              		.cfi_offset 14, -4
 3678              		.loc 1 851 0
 3679 0002 0446     		mov	r4, r0
 3680              	.LVL382:
 3681 0004 0D46     		mov	r5, r1
 3682              	.LBB466:
 3683              	.LBB467:
 3684              	.LBB468:
 3685              		.loc 1 895 0
 3686 0006 D0F88400 		ldr	r0, [r0, #132]
 3687              	.LVL383:
 3688 000a 94F87310 		ldrb	r1, [r4, #115]	@ zero_extendqisi2
 3689              	.LVL384:
 3690 000e 2322     		movs	r2, #35
 3691 0010 FFF7FEFF 		bl	_ZN7creator3I2C8ReadByteEhh
 3692              	.LVL385:
 3693              	.LBE468:
 3694              	.LBE467:
 3695              		.loc 1 853 0
 3696 0014 55B9     		cbnz	r5, .L274
 3697              		.loc 1 856 0
 3698 0016 00F0FD03 		and	r3, r0, #253
 3699              	.LVL386:
 3700              	.L272:
 3701              	.LBB469:
 3702              	.LBB470:
 3703              		.loc 1 887 0
 3704 001a D4F88400 		ldr	r0, [r4, #132]
 3705 001e 94F87310 		ldrb	r1, [r4, #115]	@ zero_extendqisi2
ARM GAS  /tmp/ccoI4Tqz.s 			page 66


 3706 0022 2322     		movs	r2, #35
 3707              	.LBE470:
 3708              	.LBE469:
 3709              	.LBE466:
 3710              		.loc 1 858 0
 3711 0024 BDE87040 		pop	{r4, r5, r6, lr}
 3712              		.cfi_remember_state
 3713              		.cfi_restore 14
 3714              		.cfi_restore 6
 3715              		.cfi_restore 5
 3716              		.cfi_restore 4
 3717              		.cfi_def_cfa_offset 0
 3718              	.LVL387:
 3719              	.LBB473:
 3720              	.LBB472:
 3721              	.LBB471:
 3722              		.loc 1 887 0
 3723 0028 FFF7FEBF 		b	_ZN7creator3I2C9WriteByteEhhh
 3724              	.LVL388:
 3725              	.L274:
 3726              		.cfi_restore_state
 3727              	.LBE471:
 3728              	.LBE472:
 3729              		.loc 1 854 0
 3730 002c 40F00203 		orr	r3, r0, #2
 3731 0030 DBB2     		uxtb	r3, r3
 3732              	.LVL389:
 3733 0032 F2E7     		b	.L272
 3734              	.LBE473:
 3735              		.cfi_endproc
 3736              	.LFE57:
 3737              		.fnend
 3738              		.size	_ZN7LSM9DS110enableFIFOEb, .-_ZN7LSM9DS110enableFIFOEb
 3739              		.section	.text._ZN7LSM9DS17setFIFOE13fifoMode_typeh,"ax",%progbits
 3740              		.align	2
 3741              		.p2align 4,,15
 3742              		.global	_ZN7LSM9DS17setFIFOE13fifoMode_typeh
 3743              		.thumb
 3744              		.thumb_func
 3745              		.type	_ZN7LSM9DS17setFIFOE13fifoMode_typeh, %function
 3746              	_ZN7LSM9DS17setFIFOE13fifoMode_typeh:
 3747              		.fnstart
 3748              	.LFB58:
 3749              		.loc 1 860 0
 3750              		.cfi_startproc
 3751              		@ args = 0, pretend = 0, frame = 0
 3752              		@ frame_needed = 0, uses_anonymous_args = 0
 3753              		@ link register save eliminated.
 3754              	.LVL390:
 3755              	.LBB474:
 3756              		.loc 1 864 0
 3757 0000 4901     		lsls	r1, r1, #5
 3758              	.LVL391:
 3759 0002 1F2A     		cmp	r2, #31
 3760 0004 94BF     		ite	ls
 3761 0006 41EA0203 		orrls	r3, r1, r2
 3762 000a 41F01F03 		orrhi	r3, r1, #31
ARM GAS  /tmp/ccoI4Tqz.s 			page 67


 3763              	.LBE474:
 3764              		.loc 1 860 0
 3765 000e 0246     		mov	r2, r0
 3766              	.LVL392:
 3767              	.LBB477:
 3768              	.LBB475:
 3769              	.LBB476:
 3770              		.loc 1 887 0
 3771 0010 DBB2     		uxtb	r3, r3
 3772 0012 92F87310 		ldrb	r1, [r2, #115]	@ zero_extendqisi2
 3773 0016 D0F88400 		ldr	r0, [r0, #132]
 3774              	.LVL393:
 3775 001a 2E22     		movs	r2, #46
 3776              	.LVL394:
 3777 001c FFF7FEBF 		b	_ZN7creator3I2C9WriteByteEhhh
 3778              	.LVL395:
 3779              	.LBE476:
 3780              	.LBE475:
 3781              	.LBE477:
 3782              		.cfi_endproc
 3783              	.LFE58:
 3784              		.cantunwind
 3785              		.fnend
 3786              		.size	_ZN7LSM9DS17setFIFOE13fifoMode_typeh, .-_ZN7LSM9DS17setFIFOE13fifoMode_typeh
 3787              		.global	__aeabi_f2d
 3788              		.global	__aeabi_ddiv
 3789              		.global	__aeabi_d2iz
 3790              		.section	.text._ZN7LSM9DS19calibrateEb,"ax",%progbits
 3791              		.align	2
 3792              		.p2align 4,,15
 3793              		.global	_ZN7LSM9DS19calibrateEb
 3794              		.thumb
 3795              		.thumb_func
 3796              		.type	_ZN7LSM9DS19calibrateEb, %function
 3797              	_ZN7LSM9DS19calibrateEb:
 3798              		.fnstart
 3799              	.LFB17:
 3800              		.loc 1 304 0
 3801              		.cfi_startproc
 3802              		@ args = 0, pretend = 0, frame = 40
 3803              		@ frame_needed = 0, uses_anonymous_args = 0
 3804              	.LVL396:
 3805 0000 2DE9F04F 		push	{r4, r5, r6, r7, r8, r9, r10, fp, lr}
 3806              		.save {r4, r5, r6, r7, r8, r9, r10, fp, lr}
 3807              		.cfi_def_cfa_offset 36
 3808              		.cfi_offset 4, -36
 3809              		.cfi_offset 5, -32
 3810              		.cfi_offset 6, -28
 3811              		.cfi_offset 7, -24
 3812              		.cfi_offset 8, -20
 3813              		.cfi_offset 9, -16
 3814              		.cfi_offset 10, -12
 3815              		.cfi_offset 11, -8
 3816              		.cfi_offset 14, -4
 3817 0004 0446     		mov	r4, r0
 3818              		.pad #44
 3819 0006 8BB0     		sub	sp, sp, #44
ARM GAS  /tmp/ccoI4Tqz.s 			page 68


 3820              		.cfi_def_cfa_offset 80
 3821              		.loc 1 304 0
 3822 0008 0391     		str	r1, [sp, #12]
 3823              	.LBB478:
 3824              		.loc 1 311 0
 3825 000a 0121     		movs	r1, #1
 3826              	.LVL397:
 3827 000c FFF7FEFF 		bl	_ZN7LSM9DS110enableFIFOEb
 3828              	.LVL398:
 3829              		.loc 1 312 0
 3830 0010 2046     		mov	r0, r4
 3831 0012 0121     		movs	r1, #1
 3832 0014 1F22     		movs	r2, #31
 3833 0016 FFF7FEFF 		bl	_ZN7LSM9DS17setFIFOE13fifoMode_typeh
 3834              	.LVL399:
 3835              	.L277:
 3836              	.LBB479:
 3837              	.LBB480:
 3838              		.loc 1 895 0
 3839 001a D4F88400 		ldr	r0, [r4, #132]
 3840 001e 94F87310 		ldrb	r1, [r4, #115]	@ zero_extendqisi2
 3841 0022 2F22     		movs	r2, #47
 3842 0024 FFF7FEFF 		bl	_ZN7creator3I2C8ReadByteEhh
 3843              	.LVL400:
 3844              	.LBE480:
 3845              	.LBE479:
 3846              		.loc 1 314 0
 3847 0028 00F03F00 		and	r0, r0, #63
 3848              	.LVL401:
 3849              		.loc 1 313 0
 3850 002c 1E28     		cmp	r0, #30
 3851 002e F4D9     		bls	.L277
 3852              	.LVL402:
 3853              		.loc 1 316 0
 3854 0030 0027     		movs	r7, #0
 3855 0032 BB46     		mov	fp, r7
 3856 0034 3E46     		mov	r6, r7
 3857 0036 BA46     		mov	r10, r7
 3858 0038 B946     		mov	r9, r7
 3859 003a 3D46     		mov	r5, r7
 3860 003c B846     		mov	r8, r7
 3861 003e 0290     		str	r0, [sp, #8]
 3862              	.LVL403:
 3863              	.L278:
 3864              		.loc 1 317 0
 3865 0040 2046     		mov	r0, r4
 3866 0042 FFF7FEFF 		bl	_ZN7LSM9DS18readGyroEv
 3867              	.LVL404:
 3868              		.loc 1 318 0
 3869 0046 B4F92810 		ldrsh	r1, [r4, #40]
 3870              		.loc 1 319 0
 3871 004a B4F92A20 		ldrsh	r2, [r4, #42]
 3872              		.loc 1 320 0
 3873 004e B4F92C30 		ldrsh	r3, [r4, #44]
 3874              		.loc 1 318 0
 3875 0052 8944     		add	r9, r9, r1
 3876              		.loc 1 319 0
ARM GAS  /tmp/ccoI4Tqz.s 			page 69


 3877 0054 1744     		add	r7, r7, r2
 3878              		.loc 1 320 0
 3879 0056 1D44     		add	r5, r5, r3
 3880              		.loc 1 321 0
 3881 0058 2046     		mov	r0, r4
 3882              		.loc 1 318 0
 3883 005a CDF81C90 		str	r9, [sp, #28]
 3884              		.loc 1 319 0
 3885 005e 0897     		str	r7, [sp, #32]
 3886              		.loc 1 320 0
 3887 0060 0995     		str	r5, [sp, #36]
 3888              		.loc 1 321 0
 3889 0062 FFF7FEFF 		bl	_ZN7LSM9DS19readAccelEv
 3890              	.LVL405:
 3891              		.loc 1 322 0
 3892 0066 B4F92E20 		ldrsh	r2, [r4, #46]
 3893              		.loc 1 323 0
 3894 006a B4F93030 		ldrsh	r3, [r4, #48]
 3895              		.loc 1 324 0
 3896 006e A16F     		ldr	r1, [r4, #120]	@ float
 3897              		.loc 1 322 0
 3898 0070 9244     		add	r10, r10, r2
 3899              		.loc 1 323 0
 3900 0072 1E44     		add	r6, r6, r3
 3901              		.loc 1 324 0
 3902 0074 0846     		mov	r0, r1
 3903 0076 0191     		str	r1, [sp, #4]	@ float
 3904              		.loc 1 322 0
 3905 0078 CDF810A0 		str	r10, [sp, #16]
 3906              		.loc 1 323 0
 3907 007c 0596     		str	r6, [sp, #20]
 3908              		.loc 1 324 0
 3909 007e FFF7FEFF 		bl	__aeabi_f2d
 3910              	.LVL406:
 3911 0082 0B46     		mov	r3, r1
 3912 0084 0246     		mov	r2, r0
 3913 0086 2C49     		ldr	r1, .L288
 3914 0088 0020     		movs	r0, #0
 3915 008a FFF7FEFF 		bl	__aeabi_ddiv
 3916              	.LVL407:
 3917 008e FFF7FEFF 		bl	__aeabi_d2iz
 3918              	.LVL408:
 3919 0092 B4F93230 		ldrsh	r3, [r4, #50]
 3920 0096 00B2     		sxth	r0, r0
 3921 0098 1B1A     		subs	r3, r3, r0
 3922 009a 9844     		add	r8, r8, r3
 3923              		.loc 1 316 0
 3924 009c 029B     		ldr	r3, [sp, #8]
 3925 009e 0BF1010B 		add	fp, fp, #1
 3926              	.LVL409:
 3927 00a2 9B45     		cmp	fp, r3
 3928              		.loc 1 324 0
 3929 00a4 CDF81880 		str	r8, [sp, #24]
 3930              		.loc 1 316 0
 3931 00a8 CAD1     		bne	.L278
 3932 00aa 4D46     		mov	r5, r9
 3933 00ac 9846     		mov	r8, r3
ARM GAS  /tmp/ccoI4Tqz.s 			page 70


 3934 00ae 636F     		ldr	r3, [r4, #116]	@ float
 3935 00b0 04F15E09 		add	r9, r4, #94
 3936              		.loc 1 316 0 is_stmt 0 discriminator 1
 3937 00b4 2846     		mov	r0, r5
 3938 00b6 A346     		mov	fp, r4
 3939              	.LVL410:
 3940 00b8 4D46     		mov	r5, r9
 3941 00ba 9946     		mov	r9, r3
 3942 00bc 5646     		mov	r6, r10
 3943              	.LVL411:
 3944 00be 04F16407 		add	r7, r4, #100
 3945 00c2 4FF0000A 		mov	r10, #0
 3946              	.LVL412:
 3947              	.L280:
 3948              		.loc 1 327 0 is_stmt 1 discriminator 3
 3949 00c6 90FBF8F0 		sdiv	r0, r0, r8
 3950 00ca 80B2     		uxth	r0, r0
 3951 00cc 25F8020F 		strh	r0, [r5, #2]!	@ movhi
 3952              	.LVL413:
 3953              	.LBB481:
 3954              	.LBB482:
 3955              		.loc 1 537 0 discriminator 3
 3956 00d0 00B2     		sxth	r0, r0
 3957              	.LVL414:
 3958 00d2 FFF7FEFF 		bl	__aeabi_i2f
 3959              	.LVL415:
 3960              	.LBE482:
 3961              	.LBE481:
 3962              		.loc 1 329 0 discriminator 3
 3963 00d6 96FBF8F6 		sdiv	r6, r6, r8
 3964              	.LBB484:
 3965              	.LBB483:
 3966              		.loc 1 537 0 discriminator 3
 3967 00da 4946     		mov	r1, r9
 3968 00dc FFF7FEFF 		bl	__aeabi_fmul
 3969              	.LVL416:
 3970              	.LBE483:
 3971              	.LBE484:
 3972              		.loc 1 329 0 discriminator 3
 3973 00e0 B6B2     		uxth	r6, r6
 3974              		.loc 1 328 0 discriminator 3
 3975 00e2 CBF83C00 		str	r0, [fp, #60]	@ float
 3976              		.loc 1 329 0 discriminator 3
 3977 00e6 27F8026F 		strh	r6, [r7, #2]!	@ movhi
 3978              	.LVL417:
 3979              	.LBB485:
 3980              	.LBB486:
 3981              		.loc 1 542 0 discriminator 3
 3982 00ea 30B2     		sxth	r0, r6
 3983 00ec FFF7FEFF 		bl	__aeabi_i2f
 3984              	.LVL418:
 3985 00f0 0199     		ldr	r1, [sp, #4]	@ float
 3986 00f2 FFF7FEFF 		bl	__aeabi_fmul
 3987              	.LVL419:
 3988              	.LBE486:
 3989              	.LBE485:
 3990              		.loc 1 326 0 discriminator 3
ARM GAS  /tmp/ccoI4Tqz.s 			page 71


 3991 00f6 0AF1010A 		add	r10, r10, #1
 3992              	.LVL420:
 3993 00fa BAF1030F 		cmp	r10, #3
 3994              		.loc 1 330 0 discriminator 3
 3995 00fe CBF84800 		str	r0, [fp, #72]	@ float
 3996 0102 0BF1040B 		add	fp, fp, #4
 3997              		.loc 1 326 0 discriminator 3
 3998 0106 06D0     		beq	.L279
 3999 0108 07AB     		add	r3, sp, #28
 4000 010a 53F82A00 		ldr	r0, [r3, r10, lsl #2]
 4001 010e 04AB     		add	r3, sp, #16
 4002 0110 53F82A60 		ldr	r6, [r3, r10, lsl #2]
 4003              	.LVL421:
 4004 0114 D7E7     		b	.L280
 4005              	.LVL422:
 4006              	.L279:
 4007              		.loc 1 333 0
 4008 0116 2046     		mov	r0, r4
 4009 0118 0021     		movs	r1, #0
 4010 011a FFF7FEFF 		bl	_ZN7LSM9DS110enableFIFOEb
 4011              	.LVL423:
 4012              		.loc 1 334 0
 4013 011e 0021     		movs	r1, #0
 4014 0120 2046     		mov	r0, r4
 4015 0122 0A46     		mov	r2, r1
 4016 0124 FFF7FEFF 		bl	_ZN7LSM9DS17setFIFOE13fifoMode_typeh
 4017              	.LVL424:
 4018              		.loc 1 336 0
 4019 0128 039B     		ldr	r3, [sp, #12]
 4020 012a 13B1     		cbz	r3, .L276
 4021              		.loc 1 336 0 is_stmt 0 discriminator 1
 4022 012c 0123     		movs	r3, #1
 4023 012e 84F88030 		strb	r3, [r4, #128]
 4024              	.L276:
 4025              	.LBE478:
 4026              		.loc 1 337 0 is_stmt 1
 4027 0132 0BB0     		add	sp, sp, #44
 4028              		.cfi_def_cfa_offset 36
 4029              		@ sp needed
 4030 0134 BDE8F08F 		pop	{r4, r5, r6, r7, r8, r9, r10, fp, pc}
 4031              	.LVL425:
 4032              	.L289:
 4033              		.align	2
 4034              	.L288:
 4035 0138 0000F03F 		.word	1072693248
 4036              		.cfi_endproc
 4037              	.LFE17:
 4038              		.fnend
 4039              		.size	_ZN7LSM9DS19calibrateEb, .-_ZN7LSM9DS19calibrateEb
 4040              		.section	.text._ZN7LSM9DS114getFIFOSamplesEv,"ax",%progbits
 4041              		.align	2
 4042              		.p2align 4,,15
 4043              		.global	_ZN7LSM9DS114getFIFOSamplesEv
 4044              		.thumb
 4045              		.thumb_func
 4046              		.type	_ZN7LSM9DS114getFIFOSamplesEv, %function
 4047              	_ZN7LSM9DS114getFIFOSamplesEv:
ARM GAS  /tmp/ccoI4Tqz.s 			page 72


 4048              		.fnstart
 4049              	.LFB59:
 4050              		.loc 1 867 0
 4051              		.cfi_startproc
 4052              		@ args = 0, pretend = 0, frame = 0
 4053              		@ frame_needed = 0, uses_anonymous_args = 0
 4054              	.LVL426:
 4055 0000 08B5     		push	{r3, lr}
 4056              		.save {r3, lr}
 4057              		.cfi_def_cfa_offset 8
 4058              		.cfi_offset 3, -8
 4059              		.cfi_offset 14, -4
 4060              		.loc 1 867 0
 4061 0002 0346     		mov	r3, r0
 4062              	.LVL427:
 4063              	.LBB487:
 4064              	.LBB488:
 4065              		.loc 1 895 0
 4066 0004 2F22     		movs	r2, #47
 4067 0006 93F87310 		ldrb	r1, [r3, #115]	@ zero_extendqisi2
 4068 000a D0F88400 		ldr	r0, [r0, #132]
 4069              	.LVL428:
 4070 000e FFF7FEFF 		bl	_ZN7creator3I2C8ReadByteEhh
 4071              	.LVL429:
 4072              	.LBE488:
 4073              	.LBE487:
 4074              		.loc 1 867 0
 4075 0012 00F03F00 		and	r0, r0, #63
 4076 0016 08BD     		pop	{r3, pc}
 4077              		.cfi_endproc
 4078              	.LFE59:
 4079              		.fnend
 4080              		.size	_ZN7LSM9DS114getFIFOSamplesEv, .-_ZN7LSM9DS114getFIFOSamplesEv
 4081              		.section	.text._ZN7LSM9DS115constrainScalesEv,"ax",%progbits
 4082              		.align	2
 4083              		.p2align 4,,15
 4084              		.global	_ZN7LSM9DS115constrainScalesEv
 4085              		.thumb
 4086              		.thumb_func
 4087              		.type	_ZN7LSM9DS115constrainScalesEv, %function
 4088              	_ZN7LSM9DS115constrainScalesEv:
 4089              		.fnstart
 4090              	.LFB60:
 4091              		.loc 1 869 0
 4092              		.cfi_startproc
 4093              		@ args = 0, pretend = 0, frame = 0
 4094              		@ frame_needed = 0, uses_anonymous_args = 0
 4095              		@ link register save eliminated.
 4096              	.LVL430:
 4097              		.loc 1 870 0
 4098 0000 C388     		ldrh	r3, [r0, #6]
 4099 0002 F52B     		cmp	r3, #245
 4100 0004 07D0     		beq	.L293
 4101              		.loc 1 870 0 is_stmt 0 discriminator 1
 4102 0006 B3F5FA7F 		cmp	r3, #500
 4103 000a 04D0     		beq	.L293
 4104              		.loc 1 870 0 discriminator 2
ARM GAS  /tmp/ccoI4Tqz.s 			page 73


 4105 000c B3F5FA6F 		cmp	r3, #2000
 4106              		.loc 1 872 0 is_stmt 1 discriminator 2
 4107 0010 1CBF     		itt	ne
 4108 0012 F523     		movne	r3, #245
 4109 0014 C380     		strhne	r3, [r0, #6]	@ movhi
 4110              	.L293:
 4111              		.loc 1 875 0
 4112 0016 C37D     		ldrb	r3, [r0, #23]	@ zero_extendqisi2
 4113 0018 022B     		cmp	r3, #2
 4114 001a 07D0     		beq	.L294
 4115              		.loc 1 875 0 is_stmt 0 discriminator 1
 4116 001c 042B     		cmp	r3, #4
 4117 001e 05D0     		beq	.L294
 4118              		.loc 1 875 0 discriminator 2
 4119 0020 082B     		cmp	r3, #8
 4120 0022 03D0     		beq	.L294
 4121              		.loc 1 876 0 is_stmt 1
 4122 0024 102B     		cmp	r3, #16
 4123              		.loc 1 877 0
 4124 0026 1CBF     		itt	ne
 4125 0028 0223     		movne	r3, #2
 4126 002a C375     		strbne	r3, [r0, #23]
 4127              	.L294:
 4128              		.loc 1 880 0
 4129 002c 90F82030 		ldrb	r3, [r0, #32]	@ zero_extendqisi2
 4130 0030 03F0F702 		and	r2, r3, #247
 4131 0034 042A     		cmp	r2, #4
 4132 0036 06D0     		beq	.L292
 4133              		.loc 1 880 0 is_stmt 0 discriminator 1
 4134 0038 082B     		cmp	r3, #8
 4135 003a 04D0     		beq	.L292
 4136              		.loc 1 881 0 is_stmt 1
 4137 003c 102B     		cmp	r3, #16
 4138              		.loc 1 882 0
 4139 003e 1CBF     		itt	ne
 4140 0040 0423     		movne	r3, #4
 4141 0042 80F82030 		strbne	r3, [r0, #32]
 4142              	.L292:
 4143 0046 7047     		bx	lr
 4144              		.cfi_endproc
 4145              	.LFE60:
 4146              		.cantunwind
 4147              		.fnend
 4148              		.size	_ZN7LSM9DS115constrainScalesEv, .-_ZN7LSM9DS115constrainScalesEv
 4149              		.section	.text._ZN7LSM9DS15beginEv,"ax",%progbits
 4150              		.align	2
 4151              		.p2align 4,,15
 4152              		.global	_ZN7LSM9DS15beginEv
 4153              		.thumb
 4154              		.thumb_func
 4155              		.type	_ZN7LSM9DS15beginEv, %function
 4156              	_ZN7LSM9DS15beginEv:
 4157              		.fnstart
 4158              	.LFB14:
 4159              		.loc 1 131 0
 4160              		.cfi_startproc
 4161              		@ args = 0, pretend = 0, frame = 0
ARM GAS  /tmp/ccoI4Tqz.s 			page 74


 4162              		@ frame_needed = 0, uses_anonymous_args = 0
 4163              	.LVL431:
 4164 0000 38B5     		push	{r3, r4, r5, lr}
 4165              		.save {r3, r4, r5, lr}
 4166              		.cfi_def_cfa_offset 16
 4167              		.cfi_offset 3, -16
 4168              		.cfi_offset 4, -12
 4169              		.cfi_offset 5, -8
 4170              		.cfi_offset 14, -4
 4171              		.loc 1 131 0
 4172 0002 0446     		mov	r4, r0
 4173              	.LBB489:
 4174              		.loc 1 134 0
 4175 0004 8378     		ldrb	r3, [r0, #2]	@ zero_extendqisi2
 4176              		.loc 1 133 0
 4177 0006 4278     		ldrb	r2, [r0, #1]	@ zero_extendqisi2
 4178              		.loc 1 134 0
 4179 0008 80F87230 		strb	r3, [r0, #114]
 4180              		.loc 1 133 0
 4181 000c 80F87320 		strb	r2, [r0, #115]
 4182              		.loc 1 136 0
 4183 0010 FFF7FEFF 		bl	_ZN7LSM9DS115constrainScalesEv
 4184              	.LVL432:
 4185              	.LBB490:
 4186              	.LBB491:
 4187              		.loc 1 678 0
 4188 0014 E088     		ldrh	r0, [r4, #6]
 4189 0016 FFF7FEFF 		bl	__aeabi_ui2f
 4190              	.LVL433:
 4191 001a 4FF06051 		mov	r1, #939524096
 4192 001e FFF7FEFF 		bl	__aeabi_fmul
 4193              	.LVL434:
 4194 0022 6067     		str	r0, [r4, #116]	@ float
 4195              	.LBE491:
 4196              	.LBE490:
 4197              		.loc 1 140 0
 4198 0024 2046     		mov	r0, r4
 4199 0026 FFF7FEFF 		bl	_ZN7LSM9DS18calcmResEv
 4200              	.LVL435:
 4201              	.LBB492:
 4202              	.LBB493:
 4203              		.loc 1 680 0
 4204 002a E07D     		ldrb	r0, [r4, #23]	@ zero_extendqisi2
 4205 002c FFF7FEFF 		bl	__aeabi_ui2f
 4206              	.LVL436:
 4207 0030 4FF06051 		mov	r1, #939524096
 4208 0034 FFF7FEFF 		bl	__aeabi_fmul
 4209              	.LVL437:
 4210              	.LBE493:
 4211              	.LBE492:
 4212              	.LBB495:
 4213              	.LBB496:
 4214              		.loc 1 903 0
 4215 0038 94F87210 		ldrb	r1, [r4, #114]	@ zero_extendqisi2
 4216              	.LBE496:
 4217              	.LBE495:
 4218              	.LBB499:
ARM GAS  /tmp/ccoI4Tqz.s 			page 75


 4219              	.LBB494:
 4220              		.loc 1 680 0
 4221 003c A067     		str	r0, [r4, #120]	@ float
 4222              	.LVL438:
 4223              	.LBE494:
 4224              	.LBE499:
 4225              	.LBB500:
 4226              	.LBB497:
 4227              		.loc 1 903 0
 4228 003e 0F22     		movs	r2, #15
 4229 0040 D4F88400 		ldr	r0, [r4, #132]
 4230 0044 FFF7FEFF 		bl	_ZN7creator3I2C8ReadByteEhh
 4231              	.LVL439:
 4232              	.LBE497:
 4233              	.LBE500:
 4234              	.LBB501:
 4235              	.LBB502:
 4236              		.loc 1 895 0
 4237 0048 94F87310 		ldrb	r1, [r4, #115]	@ zero_extendqisi2
 4238              	.LBE502:
 4239              	.LBE501:
 4240              	.LBB504:
 4241              	.LBB498:
 4242              		.loc 1 903 0
 4243 004c 0546     		mov	r5, r0
 4244              	.LVL440:
 4245              	.LBE498:
 4246              	.LBE504:
 4247              	.LBB505:
 4248              	.LBB503:
 4249              		.loc 1 895 0
 4250 004e 0F22     		movs	r2, #15
 4251 0050 D4F88400 		ldr	r0, [r4, #132]
 4252 0054 FFF7FEFF 		bl	_ZN7creator3I2C8ReadByteEhh
 4253              	.LVL441:
 4254              	.LBE503:
 4255              	.LBE505:
 4256              		.loc 1 149 0
 4257 0058 46F63D03 		movw	r3, #26685
 4258              		.loc 1 147 0
 4259 005c 45EA0020 		orr	r0, r5, r0, lsl #8
 4260              	.LVL442:
 4261              		.loc 1 149 0
 4262 0060 05B2     		sxth	r5, r0
 4263              	.LVL443:
 4264 0062 9D42     		cmp	r5, r3
 4265 0064 01D0     		beq	.L330
 4266 0066 0020     		movs	r0, #0
 4267              	.LBE489:
 4268              		.loc 1 162 0
 4269 0068 38BD     		pop	{r3, r4, r5, pc}
 4270              	.LVL444:
 4271              	.L330:
 4272              	.LBB506:
 4273              		.loc 1 152 0
 4274 006a 2046     		mov	r0, r4
 4275 006c FFF7FEFF 		bl	_ZN7LSM9DS18initGyroEv
ARM GAS  /tmp/ccoI4Tqz.s 			page 76


 4276              	.LVL445:
 4277              		.loc 1 155 0
 4278 0070 2046     		mov	r0, r4
 4279 0072 FFF7FEFF 		bl	_ZN7LSM9DS19initAccelEv
 4280              	.LVL446:
 4281              		.loc 1 158 0
 4282 0076 2046     		mov	r0, r4
 4283 0078 FFF7FEFF 		bl	_ZN7LSM9DS17initMagEv
 4284              	.LVL447:
 4285              		.loc 1 161 0
 4286 007c 2846     		mov	r0, r5
 4287 007e 38BD     		pop	{r3, r4, r5, pc}
 4288              	.LBE506:
 4289              		.cfi_endproc
 4290              	.LFE14:
 4291              		.fnend
 4292              		.size	_ZN7LSM9DS15beginEv, .-_ZN7LSM9DS15beginEv
 4293              		.section	.text._ZN7LSM9DS111xgWriteByteEhh,"ax",%progbits
 4294              		.align	2
 4295              		.p2align 4,,15
 4296              		.global	_ZN7LSM9DS111xgWriteByteEhh
 4297              		.thumb
 4298              		.thumb_func
 4299              		.type	_ZN7LSM9DS111xgWriteByteEhh, %function
 4300              	_ZN7LSM9DS111xgWriteByteEhh:
 4301              		.fnstart
 4302              	.LFB61:
 4303              		.loc 1 886 0
 4304              		.cfi_startproc
 4305              		@ args = 0, pretend = 0, frame = 0
 4306              		@ frame_needed = 0, uses_anonymous_args = 0
 4307              		@ link register save eliminated.
 4308              	.LVL448:
 4309 0000 10B4     		push	{r4}
 4310              		.cfi_def_cfa_offset 4
 4311              		.cfi_offset 4, -4
 4312              		.loc 1 886 0
 4313 0002 0446     		mov	r4, r0
 4314 0004 1346     		mov	r3, r2
 4315              		.loc 1 887 0
 4316 0006 D0F88400 		ldr	r0, [r0, #132]
 4317              	.LVL449:
 4318 000a 0A46     		mov	r2, r1
 4319              	.LVL450:
 4320 000c 94F87310 		ldrb	r1, [r4, #115]	@ zero_extendqisi2
 4321              	.LVL451:
 4322              		.loc 1 888 0
 4323 0010 5DF8044B 		ldr	r4, [sp], #4
 4324              		.cfi_restore 4
 4325              		.cfi_def_cfa_offset 0
 4326              	.LVL452:
 4327              		.loc 1 887 0
 4328 0014 FFF7FEBF 		b	_ZN7creator3I2C9WriteByteEhhh
 4329              	.LVL453:
 4330              		.cfi_endproc
 4331              	.LFE61:
 4332              		.cantunwind
ARM GAS  /tmp/ccoI4Tqz.s 			page 77


 4333              		.fnend
 4334              		.size	_ZN7LSM9DS111xgWriteByteEhh, .-_ZN7LSM9DS111xgWriteByteEhh
 4335              		.section	.text._ZN7LSM9DS110mWriteByteEhh,"ax",%progbits
 4336              		.align	2
 4337              		.p2align 4,,15
 4338              		.global	_ZN7LSM9DS110mWriteByteEhh
 4339              		.thumb
 4340              		.thumb_func
 4341              		.type	_ZN7LSM9DS110mWriteByteEhh, %function
 4342              	_ZN7LSM9DS110mWriteByteEhh:
 4343              		.fnstart
 4344              	.LFB62:
 4345              		.loc 1 890 0
 4346              		.cfi_startproc
 4347              		@ args = 0, pretend = 0, frame = 0
 4348              		@ frame_needed = 0, uses_anonymous_args = 0
 4349              		@ link register save eliminated.
 4350              	.LVL454:
 4351 0000 10B4     		push	{r4}
 4352              		.cfi_def_cfa_offset 4
 4353              		.cfi_offset 4, -4
 4354              		.loc 1 890 0
 4355 0002 0446     		mov	r4, r0
 4356 0004 1346     		mov	r3, r2
 4357              		.loc 1 891 0
 4358 0006 D0F88400 		ldr	r0, [r0, #132]
 4359              	.LVL455:
 4360 000a 0A46     		mov	r2, r1
 4361              	.LVL456:
 4362 000c 94F87210 		ldrb	r1, [r4, #114]	@ zero_extendqisi2
 4363              	.LVL457:
 4364              		.loc 1 892 0
 4365 0010 5DF8044B 		ldr	r4, [sp], #4
 4366              		.cfi_restore 4
 4367              		.cfi_def_cfa_offset 0
 4368              	.LVL458:
 4369              		.loc 1 891 0
 4370 0014 FFF7FEBF 		b	_ZN7creator3I2C9WriteByteEhhh
 4371              	.LVL459:
 4372              		.cfi_endproc
 4373              	.LFE62:
 4374              		.cantunwind
 4375              		.fnend
 4376              		.size	_ZN7LSM9DS110mWriteByteEhh, .-_ZN7LSM9DS110mWriteByteEhh
 4377              		.section	.text._ZN7LSM9DS110xgReadByteEh,"ax",%progbits
 4378              		.align	2
 4379              		.p2align 4,,15
 4380              		.global	_ZN7LSM9DS110xgReadByteEh
 4381              		.thumb
 4382              		.thumb_func
 4383              		.type	_ZN7LSM9DS110xgReadByteEh, %function
 4384              	_ZN7LSM9DS110xgReadByteEh:
 4385              		.fnstart
 4386              	.LFB63:
 4387              		.loc 1 894 0
 4388              		.cfi_startproc
 4389              		@ args = 0, pretend = 0, frame = 0
ARM GAS  /tmp/ccoI4Tqz.s 			page 78


 4390              		@ frame_needed = 0, uses_anonymous_args = 0
 4391              		@ link register save eliminated.
 4392              	.LVL460:
 4393              		.loc 1 894 0
 4394 0000 0346     		mov	r3, r0
 4395 0002 0A46     		mov	r2, r1
 4396              		.loc 1 895 0
 4397 0004 D0F88400 		ldr	r0, [r0, #132]
 4398              	.LVL461:
 4399 0008 93F87310 		ldrb	r1, [r3, #115]	@ zero_extendqisi2
 4400              	.LVL462:
 4401 000c FFF7FEBF 		b	_ZN7creator3I2C8ReadByteEhh
 4402              	.LVL463:
 4403              		.cfi_endproc
 4404              	.LFE63:
 4405              		.cantunwind
 4406              		.fnend
 4407              		.size	_ZN7LSM9DS110xgReadByteEh, .-_ZN7LSM9DS110xgReadByteEh
 4408              		.section	.text._ZN7LSM9DS111xgReadBytesEhPhh,"ax",%progbits
 4409              		.align	2
 4410              		.p2align 4,,15
 4411              		.global	_ZN7LSM9DS111xgReadBytesEhPhh
 4412              		.thumb
 4413              		.thumb_func
 4414              		.type	_ZN7LSM9DS111xgReadBytesEhPhh, %function
 4415              	_ZN7LSM9DS111xgReadBytesEhPhh:
 4416              		.fnstart
 4417              	.LFB64:
 4418              		.loc 1 898 0
 4419              		.cfi_startproc
 4420              		@ args = 0, pretend = 0, frame = 0
 4421              		@ frame_needed = 0, uses_anonymous_args = 0
 4422              	.LVL464:
 4423 0000 70B5     		push	{r4, r5, r6, lr}
 4424              		.save {r4, r5, r6, lr}
 4425              		.cfi_def_cfa_offset 16
 4426              		.cfi_offset 4, -16
 4427              		.cfi_offset 5, -12
 4428              		.cfi_offset 6, -8
 4429              		.cfi_offset 14, -4
 4430 0002 0E46     		mov	r6, r1
 4431 0004 1446     		mov	r4, r2
 4432              		.loc 1 899 0
 4433 0006 D0F88450 		ldr	r5, [r0, #132]
 4434              		.loc 1 898 0
 4435              		.pad #8
 4436 000a 82B0     		sub	sp, sp, #8
 4437              		.cfi_def_cfa_offset 24
 4438              		.loc 1 899 0
 4439 000c 90F87310 		ldrb	r1, [r0, #115]	@ zero_extendqisi2
 4440              	.LVL465:
 4441 0010 3246     		mov	r2, r6
 4442              	.LVL466:
 4443 0012 0093     		str	r3, [sp]
 4444 0014 2846     		mov	r0, r5
 4445              	.LVL467:
 4446 0016 2346     		mov	r3, r4
ARM GAS  /tmp/ccoI4Tqz.s 			page 79


 4447              	.LVL468:
 4448 0018 FFF7FEFF 		bl	_ZN7creator3I2C9ReadBytesEhhPhh
 4449              	.LVL469:
 4450              		.loc 1 900 0
 4451 001c 02B0     		add	sp, sp, #8
 4452              		.cfi_def_cfa_offset 16
 4453              		@ sp needed
 4454 001e 70BD     		pop	{r4, r5, r6, pc}
 4455              		.cfi_endproc
 4456              	.LFE64:
 4457              		.fnend
 4458              		.size	_ZN7LSM9DS111xgReadBytesEhPhh, .-_ZN7LSM9DS111xgReadBytesEhPhh
 4459              		.section	.text._ZN7LSM9DS19mReadByteEh,"ax",%progbits
 4460              		.align	2
 4461              		.p2align 4,,15
 4462              		.global	_ZN7LSM9DS19mReadByteEh
 4463              		.thumb
 4464              		.thumb_func
 4465              		.type	_ZN7LSM9DS19mReadByteEh, %function
 4466              	_ZN7LSM9DS19mReadByteEh:
 4467              		.fnstart
 4468              	.LFB65:
 4469              		.loc 1 902 0
 4470              		.cfi_startproc
 4471              		@ args = 0, pretend = 0, frame = 0
 4472              		@ frame_needed = 0, uses_anonymous_args = 0
 4473              		@ link register save eliminated.
 4474              	.LVL470:
 4475              		.loc 1 902 0
 4476 0000 0346     		mov	r3, r0
 4477 0002 0A46     		mov	r2, r1
 4478              		.loc 1 903 0
 4479 0004 D0F88400 		ldr	r0, [r0, #132]
 4480              	.LVL471:
 4481 0008 93F87210 		ldrb	r1, [r3, #114]	@ zero_extendqisi2
 4482              	.LVL472:
 4483 000c FFF7FEBF 		b	_ZN7creator3I2C8ReadByteEhh
 4484              	.LVL473:
 4485              		.cfi_endproc
 4486              	.LFE65:
 4487              		.cantunwind
 4488              		.fnend
 4489              		.size	_ZN7LSM9DS19mReadByteEh, .-_ZN7LSM9DS19mReadByteEh
 4490              		.section	.text._ZN7LSM9DS110mReadBytesEhPhh,"ax",%progbits
 4491              		.align	2
 4492              		.p2align 4,,15
 4493              		.global	_ZN7LSM9DS110mReadBytesEhPhh
 4494              		.thumb
 4495              		.thumb_func
 4496              		.type	_ZN7LSM9DS110mReadBytesEhPhh, %function
 4497              	_ZN7LSM9DS110mReadBytesEhPhh:
 4498              		.fnstart
 4499              	.LFB66:
 4500              		.loc 1 906 0
 4501              		.cfi_startproc
 4502              		@ args = 0, pretend = 0, frame = 0
 4503              		@ frame_needed = 0, uses_anonymous_args = 0
ARM GAS  /tmp/ccoI4Tqz.s 			page 80


 4504              	.LVL474:
 4505 0000 70B5     		push	{r4, r5, r6, lr}
 4506              		.save {r4, r5, r6, lr}
 4507              		.cfi_def_cfa_offset 16
 4508              		.cfi_offset 4, -16
 4509              		.cfi_offset 5, -12
 4510              		.cfi_offset 6, -8
 4511              		.cfi_offset 14, -4
 4512 0002 0E46     		mov	r6, r1
 4513 0004 1446     		mov	r4, r2
 4514              		.loc 1 907 0
 4515 0006 D0F88450 		ldr	r5, [r0, #132]
 4516              		.loc 1 906 0
 4517              		.pad #8
 4518 000a 82B0     		sub	sp, sp, #8
 4519              		.cfi_def_cfa_offset 24
 4520              		.loc 1 907 0
 4521 000c 90F87210 		ldrb	r1, [r0, #114]	@ zero_extendqisi2
 4522              	.LVL475:
 4523 0010 3246     		mov	r2, r6
 4524              	.LVL476:
 4525 0012 0093     		str	r3, [sp]
 4526 0014 2846     		mov	r0, r5
 4527              	.LVL477:
 4528 0016 2346     		mov	r3, r4
 4529              	.LVL478:
 4530 0018 FFF7FEFF 		bl	_ZN7creator3I2C9ReadBytesEhhPhh
 4531              	.LVL479:
 4532              		.loc 1 908 0
 4533 001c 02B0     		add	sp, sp, #8
 4534              		.cfi_def_cfa_offset 16
 4535              		@ sp needed
 4536 001e 70BD     		pop	{r4, r5, r6, pc}
 4537              		.cfi_endproc
 4538              	.LFE66:
 4539              		.fnend
 4540              		.size	_ZN7LSM9DS110mReadBytesEhPhh, .-_ZN7LSM9DS110mReadBytesEhPhh
 4541              		.global	magSensitivity
 4542              		.section	.rodata.CSWTCH.36,"a",%progbits
 4543              		.align	2
 4544              		.set	.LANCHOR0,. + 0
 4545              		.type	CSWTCH.36, %object
 4546              		.size	CSWTCH.36, 9
 4547              	CSWTCH.36:
 4548 0000 20       		.byte	32
 4549 0001 00       		.byte	0
 4550 0002 00       		.byte	0
 4551 0003 00       		.byte	0
 4552 0004 40       		.byte	64
 4553 0005 00       		.byte	0
 4554 0006 00       		.byte	0
 4555 0007 00       		.byte	0
 4556 0008 60       		.byte	96
 4557              		.section	.data.magSensitivity,"aw",%progbits
 4558              		.align	2
 4559              		.set	.LANCHOR1,. + 0
 4560              		.type	magSensitivity, %object
ARM GAS  /tmp/ccoI4Tqz.s 			page 81


 4561              		.size	magSensitivity, 16
 4562              	magSensitivity:
 4563 0000 F7CC1239 		.word	957533431
 4564 0004 240B9839 		.word	966265636
 4565 0008 9F71E139 		.word	971075999
 4566 000c 240B183A 		.word	974654244
 4567              		.text
 4568              	.Letext0:
 4569              		.file 2 "/usr/include/newlib/machine/_default_types.h"
 4570              		.file 3 "/usr/include/newlib/sys/_stdint.h"
 4571              		.file 4 "lsm9ds1_types.h"
 4572              		.file 5 "../third_party/ChibiOS/os/hal/platforms/AT91SAM3S/SAM3S.h"
 4573              		.file 6 "../third_party/ChibiOS/os/hal/platforms/AT91SAM3S/async.h"
 4574              		.file 7 "../third_party/ChibiOS/os/hal/platforms/AT91SAM3S/atmel_twid.h"
 4575              		.file 8 "./i2c.h"
 4576              		.file 9 "lsm9ds1.h"