ARM GAS  /tmp/ccoI4Tqz.s 			page 1


   1              		.syntax unified
   2              		.cpu cortex-m3
   3              		.fpu softvfp
   4              		.eabi_attribute 20, 1
   5              		.eabi_attribute 21, 1
   6              		.eabi_attribute 23, 3
   7              		.eabi_attribute 24, 1
   8              		.eabi_attribute 25, 1
   9              		.eabi_attribute 26, 1
  10              		.eabi_attribute 30, 2
  11              		.eabi_attribute 34, 1
  12              		.eabi_attribute 18, 4
  13              		.thumb
  14              		.file	"lsm9ds1.cpp"
  15              		.text
  16              	.Ltext0:
  17              		.cfi_sections	.debug_frame
  18              		.section	.text._ZN7LSM9DS19magOffsetEhs.part.0,"ax",%progbits
  19              		.align	2
  20              		.p2align 4,,15
  21              		.thumb
  22              		.thumb_func
  23              		.type	_ZN7LSM9DS19magOffsetEhs.part.0, %function
  24              	_ZN7LSM9DS19magOffsetEhs.part.0:
  25              		.fnstart
  26              	.LFB67:
  27              		.file 1 "lsm9ds1.cpp"
  28              		.loc 1 363 0
  29              		.cfi_startproc
  30              		@ args = 0, pretend = 0, frame = 0
  31              		@ frame_needed = 0, uses_anonymous_args = 0
  32              	.LVL0:
  33 0000 70B5     		push	{r4, r5, r6, lr}
  34              		.save {r4, r5, r6, lr}
  35              		.cfi_def_cfa_offset 16
  36              		.cfi_offset 4, -16
  37              		.cfi_offset 5, -12
  38              		.cfi_offset 6, -8
  39              		.cfi_offset 14, -4
  40              		.loc 1 363 0
  41 0002 0546     		mov	r5, r0
  42 0004 1646     		mov	r6, r2
  43              	.LVL1:
  44 0006 0C46     		mov	r4, r1
  45              	.LBB203:
  46              		.loc 1 368 0
  47 0008 4A00     		lsls	r2, r1, #1
  48              	.LVL2:
  49 000a 0532     		adds	r2, r2, #5
  50              	.LBB204:
  51              	.LBB205:
  52              		.loc 1 891 0
  53 000c 95F87210 		ldrb	r1, [r5, #114]	@ zero_extendqisi2
  54              	.LVL3:
  55 0010 F3B2     		uxtb	r3, r6
  56 0012 D2B2     		uxtb	r2, r2
  57 0014 D0F88400 		ldr	r0, [r0, #132]
ARM GAS  /tmp/ccoI4Tqz.s 			page 2


  58              	.LVL4:
  59 0018 FFF7FEFF 		bl	_ZN7creator3I2C9WriteByteEhhh
  60              	.LVL5:
  61              	.LBE205:
  62              	.LBE204:
  63              		.loc 1 369 0
  64 001c E21C     		adds	r2, r4, #3
  65 001e 5200     		lsls	r2, r2, #1
  66              	.LBB206:
  67              	.LBB207:
  68              		.loc 1 891 0
  69 0020 C6F30723 		ubfx	r3, r6, #8, #8
  70 0024 D5F88400 		ldr	r0, [r5, #132]
  71 0028 95F87210 		ldrb	r1, [r5, #114]	@ zero_extendqisi2
  72 002c 02F0FE02 		and	r2, r2, #254
  73              	.LBE207:
  74              	.LBE206:
  75              	.LBE203:
  76              		.loc 1 370 0
  77 0030 BDE87040 		pop	{r4, r5, r6, lr}
  78              		.cfi_restore 14
  79              		.cfi_restore 6
  80              		.cfi_restore 5
  81              		.cfi_restore 4
  82              		.cfi_def_cfa_offset 0
  83              	.LVL6:
  84              	.LBB210:
  85              	.LBB209:
  86              	.LBB208:
  87              		.loc 1 891 0
  88 0034 FFF7FEBF 		b	_ZN7creator3I2C9WriteByteEhhh
  89              	.LVL7:
  90              	.LBE208:
  91              	.LBE209:
  92              	.LBE210:
  93              		.cfi_endproc
  94              	.LFE67:
  95              		.fnend
  96              		.size	_ZN7LSM9DS19magOffsetEhs.part.0, .-_ZN7LSM9DS19magOffsetEhs.part.0
  97              		.section	.text._ZN7LSM9DS14initE14interface_modehh,"ax",%progbits
  98              		.align	2
  99              		.p2align 4,,15
 100              		.global	_ZN7LSM9DS14initE14interface_modehh
 101              		.thumb
 102              		.thumb_func
 103              		.type	_ZN7LSM9DS14initE14interface_modehh, %function
 104              	_ZN7LSM9DS14initE14interface_modehh:
 105              		.fnstart
 106              	.LFB13:
 107              		.loc 1 42 0
 108              		.cfi_startproc
 109              		@ args = 0, pretend = 0, frame = 0
 110              		@ frame_needed = 0, uses_anonymous_args = 0
 111              	.LVL8:
 112 0000 2DE9F04F 		push	{r4, r5, r6, r7, r8, r9, r10, fp, lr}
 113              		.cfi_def_cfa_offset 36
 114              		.cfi_offset 4, -36
ARM GAS  /tmp/ccoI4Tqz.s 			page 3


 115              		.cfi_offset 5, -32
 116              		.cfi_offset 6, -28
 117              		.cfi_offset 7, -24
 118              		.cfi_offset 8, -20
 119              		.cfi_offset 9, -16
 120              		.cfi_offset 10, -12
 121              		.cfi_offset 11, -8
 122              		.cfi_offset 14, -4
 123              	.LBB211:
 124              		.loc 1 110 0
 125 0004 4FF0030C 		mov	ip, #3
 126              		.loc 1 61 0
 127 0008 0026     		movs	r6, #0
 128              		.loc 1 119 0
 129 000a E646     		mov	lr, ip
 130              	.LBB212:
 131              		.loc 1 124 0
 132 000c 3746     		mov	r7, r6
 133 000e 0546     		mov	r5, r0
 134              	.LBE212:
 135              		.loc 1 119 0
 136 0010 0446     		mov	r4, r0
 137              		.loc 1 52 0
 138 0012 4FF0F50B 		mov	fp, #245
 139              		.loc 1 43 0
 140 0016 0170     		strb	r1, [r0]
 141              		.loc 1 44 0
 142 0018 4270     		strb	r2, [r0, #1]
 143              		.loc 1 45 0
 144 001a 8370     		strb	r3, [r0, #2]
 145              		.loc 1 47 0
 146 001c 0122     		movs	r2, #1
 147              	.LVL9:
 148              		.loc 1 57 0
 149 001e 0623     		movs	r3, #6
 150              	.LVL10:
 151              		.loc 1 79 0
 152 0020 4FF0020A 		mov	r10, #2
 153              		.loc 1 89 0
 154 0024 4FF0FF09 		mov	r9, #255
 155              		.loc 1 99 0
 156 0028 4FF00408 		mov	r8, #4
 157              		.loc 1 105 0
 158 002c 0721     		movs	r1, #7
 159              	.LVL11:
 160              		.loc 1 52 0
 161 002e A0F806B0 		strh	fp, [r0, #6]	@ movhi
 162              		.loc 1 79 0
 163 0032 80F817A0 		strb	r10, [r0, #23]
 164              		.loc 1 89 0
 165 0036 80F81C90 		strb	r9, [r0, #28]
 166              		.loc 1 99 0
 167 003a 80F82080 		strb	r8, [r0, #32]
 168              		.loc 1 105 0
 169 003e 80F82110 		strb	r1, [r0, #33]
 170              		.loc 1 47 0
 171 0042 0271     		strb	r2, [r0, #4]
ARM GAS  /tmp/ccoI4Tqz.s 			page 4


 172              		.loc 1 48 0
 173 0044 4274     		strb	r2, [r0, #17]
 174              		.loc 1 49 0
 175 0046 8274     		strb	r2, [r0, #18]
 176              		.loc 1 50 0
 177 0048 C274     		strb	r2, [r0, #19]
 178              		.loc 1 72 0
 179 004a 0275     		strb	r2, [r0, #20]
 180              		.loc 1 74 0
 181 004c 8275     		strb	r2, [r0, #22]
 182              		.loc 1 75 0
 183 004e 4276     		strb	r2, [r0, #25]
 184              		.loc 1 76 0
 185 0050 8276     		strb	r2, [r0, #26]
 186              		.loc 1 77 0
 187 0052 C276     		strb	r2, [r0, #27]
 188              		.loc 1 97 0
 189 0054 C277     		strb	r2, [r0, #31]
 190              		.loc 1 57 0
 191 0056 0372     		strb	r3, [r0, #8]
 192              		.loc 1 84 0
 193 0058 0376     		strb	r3, [r0, #24]
 194              		.loc 1 61 0
 195 005a 4672     		strb	r6, [r0, #9]
 196              		.loc 1 62 0
 197 005c 8672     		strb	r6, [r0, #10]
 198              		.loc 1 63 0
 199 005e C672     		strb	r6, [r0, #11]
 200              		.loc 1 67 0
 201 0060 0673     		strb	r6, [r0, #12]
 202              		.loc 1 68 0
 203 0062 4673     		strb	r6, [r0, #13]
 204              		.loc 1 69 0
 205 0064 8673     		strb	r6, [r0, #14]
 206              		.loc 1 70 0
 207 0066 C673     		strb	r6, [r0, #15]
 208              		.loc 1 71 0
 209 0068 0674     		strb	r6, [r0, #16]
 210              		.loc 1 90 0
 211 006a 4677     		strb	r6, [r0, #29]
 212              		.loc 1 95 0
 213 006c 8677     		strb	r6, [r0, #30]
 214              		.loc 1 106 0
 215 006e 80F82260 		strb	r6, [r0, #34]
 216              		.loc 1 110 0
 217 0072 80F823C0 		strb	ip, [r0, #35]
 218              	.LBB213:
 219              		.loc 1 121 0
 220 0076 4FF0000B 		mov	fp, #0
 221              	.LBE213:
 222              		.loc 1 111 0
 223 007a 80F824C0 		strb	ip, [r0, #36]
 224              		.loc 1 112 0
 225 007e 80F82560 		strb	r6, [r0, #37]
 226              		.loc 1 119 0
 227 0082 80F82720 		strb	r2, [r0, #39]
 228              	.LVL12:
ARM GAS  /tmp/ccoI4Tqz.s 			page 5


 229              		.loc 1 117 0
 230 0086 80F82660 		strb	r6, [r0, #38]
 231              	.LVL13:
 232              	.L4:
 233              	.LBB214:
 234              		.loc 1 120 0 discriminator 3
 235 008a BEF1010E 		subs	lr, lr, #1
 236              	.LVL14:
 237              		.loc 1 121 0 discriminator 3
 238 008e C5F83CB0 		str	fp, [r5, #60]	@ float
 239              		.loc 1 122 0 discriminator 3
 240 0092 C5F848B0 		str	fp, [r5, #72]	@ float
 241              		.loc 1 123 0 discriminator 3
 242 0096 C5F854B0 		str	fp, [r5, #84]	@ float
 243              		.loc 1 124 0 discriminator 3
 244 009a 4FF00003 		mov	r3, #0	@ movhi
 245 009e A4F86070 		strh	r7, [r4, #96]	@ movhi
 246              		.loc 1 125 0 discriminator 3
 247 00a2 A4F86670 		strh	r7, [r4, #102]	@ movhi
 248              		.loc 1 126 0 discriminator 3
 249 00a6 A4F86C70 		strh	r7, [r4, #108]	@ movhi
 250              	.LVL15:
 251 00aa 05F10405 		add	r5, r5, #4
 252 00ae 04F10204 		add	r4, r4, #2
 253              		.loc 1 120 0 discriminator 3
 254 00b2 EAD1     		bne	.L4
 255              	.LBE214:
 256              		.loc 1 128 0
 257 00b4 80F88030 		strb	r3, [r0, #128]
 258 00b8 BDE8F08F 		pop	{r4, r5, r6, r7, r8, r9, r10, fp, pc}
 259              	.LBE211:
 260              		.cfi_endproc
 261              	.LFE13:
 262              		.cantunwind
 263              		.fnend
 264              		.size	_ZN7LSM9DS14initE14interface_modehh, .-_ZN7LSM9DS14initE14interface_modehh
 265              		.section	.text._ZN7LSM9DS1C2EPN7creator3I2CE,"ax",%progbits
 266              		.align	2
 267              		.p2align 4,,15
 268              		.global	_ZN7LSM9DS1C2EPN7creator3I2CE
 269              		.thumb
 270              		.thumb_func
 271              		.type	_ZN7LSM9DS1C2EPN7creator3I2CE, %function
 272              	_ZN7LSM9DS1C2EPN7creator3I2CE:
 273              		.fnstart
 274              	.LFB8:
 275              		.loc 1 32 0
 276              		.cfi_startproc
 277              		@ args = 0, pretend = 0, frame = 0
 278              		@ frame_needed = 0, uses_anonymous_args = 0
 279              	.LVL16:
 280 0000 10B5     		push	{r4, lr}
 281              		.cfi_def_cfa_offset 8
 282              		.cfi_offset 4, -8
 283              		.cfi_offset 14, -4
 284              		.loc 1 32 0
 285 0002 0446     		mov	r4, r0
ARM GAS  /tmp/ccoI4Tqz.s 			page 6


 286              	.LBB215:
 287 0004 C0F88410 		str	r1, [r0, #132]
 288              		.loc 1 33 0
 289 0008 6B22     		movs	r2, #107
 290 000a 1E23     		movs	r3, #30
 291 000c 0121     		movs	r1, #1
 292              	.LVL17:
 293 000e FFF7FEFF 		bl	_ZN7LSM9DS14initE14interface_modehh
 294              	.LVL18:
 295              	.LBE215:
 296              		.loc 1 34 0
 297 0012 2046     		mov	r0, r4
 298 0014 10BD     		pop	{r4, pc}
 299              		.cfi_endproc
 300              	.LFE8:
 301              		.cantunwind
 302              		.fnend
 303              		.size	_ZN7LSM9DS1C2EPN7creator3I2CE, .-_ZN7LSM9DS1C2EPN7creator3I2CE
 304              		.global	_ZN7LSM9DS1C1EPN7creator3I2CE
 305              		.thumb_set _ZN7LSM9DS1C1EPN7creator3I2CE,_ZN7LSM9DS1C2EPN7creator3I2CE
 306 0016 00BF     		.section	.text._ZN7LSM9DS1C2EPN7creator3I2CE14interface_modehh,"ax",%progbits
 307              		.align	2
 308              		.p2align 4,,15
 309              		.global	_ZN7LSM9DS1C2EPN7creator3I2CE14interface_modehh
 310              		.thumb
 311              		.thumb_func
 312              		.type	_ZN7LSM9DS1C2EPN7creator3I2CE14interface_modehh, %function
 313              	_ZN7LSM9DS1C2EPN7creator3I2CE14interface_modehh:
 314              		.fnstart
 315              	.LFB11:
 316              		.loc 1 36 0
 317              		.cfi_startproc
 318              		@ args = 4, pretend = 0, frame = 0
 319              		@ frame_needed = 0, uses_anonymous_args = 0
 320              	.LVL19:
 321 0000 38B5     		push	{r3, r4, r5, lr}
 322              		.cfi_def_cfa_offset 16
 323              		.cfi_offset 3, -16
 324              		.cfi_offset 4, -12
 325              		.cfi_offset 5, -8
 326              		.cfi_offset 14, -4
 327              		.loc 1 36 0
 328 0002 0446     		mov	r4, r0
 329 0004 9DF81050 		ldrb	r5, [sp, #16]	@ zero_extendqisi2
 330              	.LBB216:
 331              		.loc 1 38 0
 332 0008 C0F88410 		str	r1, [r0, #132]
 333              		.loc 1 39 0
 334 000c 1146     		mov	r1, r2
 335              	.LVL20:
 336 000e 1A46     		mov	r2, r3
 337              	.LVL21:
 338 0010 2B46     		mov	r3, r5
 339              	.LVL22:
 340 0012 FFF7FEFF 		bl	_ZN7LSM9DS14initE14interface_modehh
 341              	.LVL23:
 342              	.LBE216:
ARM GAS  /tmp/ccoI4Tqz.s 			page 7


 343              		.loc 1 40 0
 344 0016 2046     		mov	r0, r4
 345 0018 38BD     		pop	{r3, r4, r5, pc}
 346              		.cfi_endproc
 347              	.LFE11:
 348              		.cantunwind
 349              		.fnend
 350              		.size	_ZN7LSM9DS1C2EPN7creator3I2CE14interface_modehh, .-_ZN7LSM9DS1C2EPN7creator3I2CE14interface_
 351              		.global	_ZN7LSM9DS1C1EPN7creator3I2CE14interface_modehh
 352              		.thumb_set _ZN7LSM9DS1C1EPN7creator3I2CE14interface_modehh,_ZN7LSM9DS1C2EPN7creator3I2CE14interfac
 353 001a 00BF     		.section	.text._ZN7LSM9DS18initGyroEv,"ax",%progbits
 354              		.align	2
 355              		.p2align 4,,15
 356              		.global	_ZN7LSM9DS18initGyroEv
 357              		.thumb
 358              		.thumb_func
 359              		.type	_ZN7LSM9DS18initGyroEv, %function
 360              	_ZN7LSM9DS18initGyroEv:
 361              		.fnstart
 362              	.LFB15:
 363              		.loc 1 164 0
 364              		.cfi_startproc
 365              		@ args = 0, pretend = 0, frame = 0
 366              		@ frame_needed = 0, uses_anonymous_args = 0
 367              	.LVL24:
 368 0000 10B5     		push	{r4, lr}
 369              		.save {r4, lr}
 370              		.cfi_def_cfa_offset 8
 371              		.cfi_offset 4, -8
 372              		.cfi_offset 14, -4
 373              	.LBB217:
 374              		.loc 1 175 0
 375 0002 0279     		ldrb	r2, [r0, #4]	@ zero_extendqisi2
 376              	.LBE217:
 377              		.loc 1 164 0
 378 0004 0446     		mov	r4, r0
 379              	.LBB232:
 380              		.loc 1 175 0
 381 0006 12B1     		cbz	r2, .L13
 382              		.loc 1 176 0
 383 0008 027A     		ldrb	r2, [r0, #8]	@ zero_extendqisi2
 384 000a 5201     		lsls	r2, r2, #5
 385 000c D2B2     		uxtb	r2, r2
 386              	.LVL25:
 387              	.L13:
 388              		.loc 1 178 0
 389 000e E388     		ldrh	r3, [r4, #6]
 390 0010 B3F5FA7F 		cmp	r3, #500
 391 0014 5CD0     		beq	.L15
 392 0016 B3F5FA6F 		cmp	r3, #2000
 393 001a 56D0     		beq	.L16
 394              	.L14:
 395              		.loc 1 187 0
 396 001c 637A     		ldrb	r3, [r4, #9]	@ zero_extendqisi2
 397              	.LBB218:
 398              	.LBB219:
 399              		.loc 1 887 0
ARM GAS  /tmp/ccoI4Tqz.s 			page 8


 400 001e D4F88400 		ldr	r0, [r4, #132]
 401              	.LVL26:
 402              	.LBE219:
 403              	.LBE218:
 404              		.loc 1 187 0
 405 0022 03F00303 		and	r3, r3, #3
 406              	.LVL27:
 407              	.LBB221:
 408              	.LBB220:
 409              		.loc 1 887 0
 410 0026 1343     		orrs	r3, r3, r2
 411              	.LVL28:
 412 0028 94F87310 		ldrb	r1, [r4, #115]	@ zero_extendqisi2
 413 002c 1022     		movs	r2, #16
 414              	.LVL29:
 415 002e FFF7FEFF 		bl	_ZN7creator3I2C9WriteByteEhhh
 416              	.LVL30:
 417              	.LBE220:
 418              	.LBE221:
 419              	.LBB222:
 420              	.LBB223:
 421 0032 1122     		movs	r2, #17
 422 0034 0023     		movs	r3, #0
 423 0036 D4F88400 		ldr	r0, [r4, #132]
 424 003a 94F87310 		ldrb	r1, [r4, #115]	@ zero_extendqisi2
 425 003e FFF7FEFF 		bl	_ZN7creator3I2C9WriteByteEhhh
 426              	.LVL31:
 427              	.LBE223:
 428              	.LBE222:
 429              		.loc 1 201 0
 430 0042 A37A     		ldrb	r3, [r4, #10]	@ zero_extendqisi2
 431              		.loc 1 202 0
 432 0044 E27A     		ldrb	r2, [r4, #11]	@ zero_extendqisi2
 433              		.loc 1 201 0
 434 0046 002B     		cmp	r3, #0
 435 0048 14BF     		ite	ne
 436 004a 8023     		movne	r3, #128
 437 004c 0023     		moveq	r3, #0
 438              	.LVL32:
 439              		.loc 1 202 0
 440 004e 2AB1     		cbz	r2, .L18
 441              		.loc 1 203 0
 442 0050 227B     		ldrb	r2, [r4, #12]	@ zero_extendqisi2
 443 0052 02F00F02 		and	r2, r2, #15
 444 0056 42F04002 		orr	r2, r2, #64
 445 005a 1343     		orrs	r3, r3, r2
 446              	.LVL33:
 447              	.L18:
 448              	.LBB224:
 449              	.LBB225:
 450              		.loc 1 887 0
 451 005c 1222     		movs	r2, #18
 452 005e D4F88400 		ldr	r0, [r4, #132]
 453 0062 94F87310 		ldrb	r1, [r4, #115]	@ zero_extendqisi2
 454 0066 FFF7FEFF 		bl	_ZN7creator3I2C9WriteByteEhhh
 455              	.LVL34:
 456              	.LBE225:
ARM GAS  /tmp/ccoI4Tqz.s 			page 9


 457              	.LBE224:
 458              		.loc 1 215 0
 459 006a E37C     		ldrb	r3, [r4, #19]	@ zero_extendqisi2
 460              		.loc 1 216 0
 461 006c A27C     		ldrb	r2, [r4, #18]	@ zero_extendqisi2
 462              		.loc 1 215 0
 463 006e 002B     		cmp	r3, #0
 464 0070 0CBF     		ite	eq
 465 0072 0023     		moveq	r3, #0
 466 0074 2023     		movne	r3, #32
 467              	.LVL35:
 468              		.loc 1 216 0
 469 0076 12B1     		cbz	r2, .L20
 470              		.loc 1 216 0 is_stmt 0 discriminator 1
 471 0078 43F01003 		orr	r3, r3, #16
 472              	.LVL36:
 473 007c DBB2     		uxtb	r3, r3
 474              	.LVL37:
 475              	.L20:
 476              		.loc 1 217 0 is_stmt 1
 477 007e 627C     		ldrb	r2, [r4, #17]	@ zero_extendqisi2
 478 0080 0AB1     		cbz	r2, .L21
 479              		.loc 1 217 0 is_stmt 0 discriminator 1
 480 0082 43F00803 		orr	r3, r3, #8
 481              	.LVL38:
 482              	.L21:
 483              		.loc 1 218 0 is_stmt 1
 484 0086 227D     		ldrb	r2, [r4, #20]	@ zero_extendqisi2
 485 0088 0AB1     		cbz	r2, .L22
 486              		.loc 1 218 0 is_stmt 0 discriminator 1
 487 008a 43F00203 		orr	r3, r3, #2
 488              	.LVL39:
 489              	.L22:
 490              	.LBB226:
 491              	.LBB227:
 492              		.loc 1 887 0 is_stmt 1
 493 008e 1E22     		movs	r2, #30
 494 0090 D4F88400 		ldr	r0, [r4, #132]
 495 0094 94F87310 		ldrb	r1, [r4, #115]	@ zero_extendqisi2
 496 0098 FFF7FEFF 		bl	_ZN7creator3I2C9WriteByteEhhh
 497              	.LVL40:
 498              	.LBE227:
 499              	.LBE226:
 500              		.loc 1 226 0
 501 009c 637B     		ldrb	r3, [r4, #13]	@ zero_extendqisi2
 502              		.loc 1 227 0
 503 009e A27B     		ldrb	r2, [r4, #14]	@ zero_extendqisi2
 504              		.loc 1 226 0
 505 00a0 002B     		cmp	r3, #0
 506 00a2 0CBF     		ite	eq
 507 00a4 0023     		moveq	r3, #0
 508 00a6 2023     		movne	r3, #32
 509              	.LVL41:
 510              		.loc 1 227 0
 511 00a8 12B1     		cbz	r2, .L24
 512              		.loc 1 227 0 is_stmt 0 discriminator 1
 513 00aa 43F01003 		orr	r3, r3, #16
ARM GAS  /tmp/ccoI4Tqz.s 			page 10


 514              	.LVL42:
 515 00ae DBB2     		uxtb	r3, r3
 516              	.LVL43:
 517              	.L24:
 518              		.loc 1 228 0 is_stmt 1
 519 00b0 E27B     		ldrb	r2, [r4, #15]	@ zero_extendqisi2
 520 00b2 0AB1     		cbz	r2, .L25
 521              		.loc 1 228 0 is_stmt 0 discriminator 1
 522 00b4 43F00803 		orr	r3, r3, #8
 523              	.LVL44:
 524              	.L25:
 525              	.LBB228:
 526              	.LBB229:
 527              		.loc 1 887 0 is_stmt 1
 528 00b8 D4F88400 		ldr	r0, [r4, #132]
 529 00bc 94F87310 		ldrb	r1, [r4, #115]	@ zero_extendqisi2
 530 00c0 1322     		movs	r2, #19
 531              	.LBE229:
 532              	.LBE228:
 533              	.LBE232:
 534              		.loc 1 230 0
 535 00c2 BDE81040 		pop	{r4, lr}
 536              		.cfi_remember_state
 537              		.cfi_restore 14
 538              		.cfi_restore 4
 539              		.cfi_def_cfa_offset 0
 540              	.LVL45:
 541              	.LBB233:
 542              	.LBB231:
 543              	.LBB230:
 544              		.loc 1 887 0
 545 00c6 FFF7FEBF 		b	_ZN7creator3I2C9WriteByteEhhh
 546              	.LVL46:
 547              	.L16:
 548              		.cfi_restore_state
 549              	.LBE230:
 550              	.LBE231:
 551              		.loc 1 183 0
 552 00ca 42F01802 		orr	r2, r2, #24
 553              	.LVL47:
 554              		.loc 1 184 0
 555 00ce A5E7     		b	.L14
 556              	.L15:
 557              		.loc 1 180 0
 558 00d0 42F00802 		orr	r2, r2, #8
 559              	.LVL48:
 560              		.loc 1 181 0
 561 00d4 A2E7     		b	.L14
 562              	.LBE233:
 563              		.cfi_endproc
 564              	.LFE15:
 565              		.fnend
 566              		.size	_ZN7LSM9DS18initGyroEv, .-_ZN7LSM9DS18initGyroEv
 567              		.section	.text._ZN7LSM9DS19initAccelEv,"ax",%progbits
 568              		.align	2
 569              		.p2align 4,,15
 570              		.global	_ZN7LSM9DS19initAccelEv
ARM GAS  /tmp/ccoI4Tqz.s 			page 11


 571              		.thumb
 572              		.thumb_func
 573              		.type	_ZN7LSM9DS19initAccelEv, %function
 574              	_ZN7LSM9DS19initAccelEv:
 575              		.fnstart
 576              	.LFB16:
 577              		.loc 1 232 0
 578              		.cfi_startproc
 579              		@ args = 0, pretend = 0, frame = 0
 580              		@ frame_needed = 0, uses_anonymous_args = 0
 581              	.LVL49:
 582 0000 10B5     		push	{r4, lr}
 583              		.save {r4, lr}
 584              		.cfi_def_cfa_offset 8
 585              		.cfi_offset 4, -8
 586              		.cfi_offset 14, -4
 587              	.LBB234:
 588              		.loc 1 242 0
 589 0002 C37E     		ldrb	r3, [r0, #27]	@ zero_extendqisi2
 590              		.loc 1 243 0
 591 0004 827E     		ldrb	r2, [r0, #26]	@ zero_extendqisi2
 592              		.loc 1 242 0
 593 0006 002B     		cmp	r3, #0
 594              	.LBE234:
 595              		.loc 1 232 0
 596 0008 0446     		mov	r4, r0
 597              	.LBB243:
 598              		.loc 1 242 0
 599 000a 0CBF     		ite	eq
 600 000c 0023     		moveq	r3, #0
 601 000e 2023     		movne	r3, #32
 602              	.LVL50:
 603              		.loc 1 243 0
 604 0010 12B1     		cbz	r2, .L51
 605              		.loc 1 243 0 is_stmt 0 discriminator 1
 606 0012 43F01003 		orr	r3, r3, #16
 607              	.LVL51:
 608 0016 DBB2     		uxtb	r3, r3
 609              	.LVL52:
 610              	.L51:
 611              		.loc 1 244 0 is_stmt 1
 612 0018 627E     		ldrb	r2, [r4, #25]	@ zero_extendqisi2
 613 001a 0AB1     		cbz	r2, .L52
 614              		.loc 1 244 0 is_stmt 0 discriminator 1
 615 001c 43F00803 		orr	r3, r3, #8
 616              	.LVL53:
 617              	.L52:
 618              	.LBB235:
 619              	.LBB236:
 620              		.loc 1 887 0 is_stmt 1
 621 0020 D4F88400 		ldr	r0, [r4, #132]
 622              	.LVL54:
 623 0024 94F87310 		ldrb	r1, [r4, #115]	@ zero_extendqisi2
 624 0028 1F22     		movs	r2, #31
 625 002a FFF7FEFF 		bl	_ZN7creator3I2C9WriteByteEhhh
 626              	.LVL55:
 627              	.LBE236:
ARM GAS  /tmp/ccoI4Tqz.s 			page 12


 628              	.LBE235:
 629              		.loc 1 256 0
 630 002e A37D     		ldrb	r3, [r4, #22]	@ zero_extendqisi2
 631 0030 13B1     		cbz	r3, .L53
 632              		.loc 1 257 0
 633 0032 237E     		ldrb	r3, [r4, #24]	@ zero_extendqisi2
 634 0034 5B01     		lsls	r3, r3, #5
 635 0036 DBB2     		uxtb	r3, r3
 636              	.LVL56:
 637              	.L53:
 638              		.loc 1 259 0
 639 0038 E27D     		ldrb	r2, [r4, #23]	@ zero_extendqisi2
 640 003a 082A     		cmp	r2, #8
 641 003c 2AD0     		beq	.L55
 642 003e 102A     		cmp	r2, #16
 643 0040 25D0     		beq	.L56
 644 0042 042A     		cmp	r2, #4
 645 0044 20D0     		beq	.L70
 646              	.L54:
 647              		.loc 1 271 0
 648 0046 227F     		ldrb	r2, [r4, #28]	@ zero_extendqisi2
 649 0048 1106     		lsls	r1, r2, #24
 650 004a 05D4     		bmi	.L58
 651              	.LVL57:
 652              		.loc 1 273 0
 653 004c 02F00302 		and	r2, r2, #3
 654 0050 1343     		orrs	r3, r3, r2
 655              	.LVL58:
 656 0052 43F00403 		orr	r3, r3, #4
 657 0056 DBB2     		uxtb	r3, r3
 658              	.LVL59:
 659              	.L58:
 660              	.LBB237:
 661              	.LBB238:
 662              		.loc 1 887 0
 663 0058 D4F88400 		ldr	r0, [r4, #132]
 664 005c 94F87310 		ldrb	r1, [r4, #115]	@ zero_extendqisi2
 665 0060 2022     		movs	r2, #32
 666 0062 FFF7FEFF 		bl	_ZN7creator3I2C9WriteByteEhhh
 667              	.LVL60:
 668              	.LBE238:
 669              	.LBE237:
 670              		.loc 1 284 0
 671 0066 637F     		ldrb	r3, [r4, #29]	@ zero_extendqisi2
 672 0068 2BB1     		cbz	r3, .L59
 673              	.LVL61:
 674              		.loc 1 286 0
 675 006a A37F     		ldrb	r3, [r4, #30]	@ zero_extendqisi2
 676 006c 03F00303 		and	r3, r3, #3
 677 0070 5B01     		lsls	r3, r3, #5
 678 0072 43F08003 		orr	r3, r3, #128
 679              	.LVL62:
 680              	.L59:
 681              	.LBB239:
 682              	.LBB240:
 683              		.loc 1 887 0
 684 0076 D4F88400 		ldr	r0, [r4, #132]
ARM GAS  /tmp/ccoI4Tqz.s 			page 13


 685 007a 94F87310 		ldrb	r1, [r4, #115]	@ zero_extendqisi2
 686 007e 2122     		movs	r2, #33
 687              	.LBE240:
 688              	.LBE239:
 689              	.LBE243:
 690              		.loc 1 289 0
 691 0080 BDE81040 		pop	{r4, lr}
 692              		.cfi_remember_state
 693              		.cfi_restore 14
 694              		.cfi_restore 4
 695              		.cfi_def_cfa_offset 0
 696              	.LVL63:
 697              	.LBB244:
 698              	.LBB242:
 699              	.LBB241:
 700              		.loc 1 887 0
 701 0084 FFF7FEBF 		b	_ZN7creator3I2C9WriteByteEhhh
 702              	.LVL64:
 703              	.L70:
 704              		.cfi_restore_state
 705              	.LBE241:
 706              	.LBE242:
 707              		.loc 1 261 0
 708 0088 43F01003 		orr	r3, r3, #16
 709              	.LVL65:
 710              		.loc 1 262 0
 711 008c DBE7     		b	.L54
 712              	.L56:
 713              		.loc 1 267 0
 714 008e 43F00803 		orr	r3, r3, #8
 715              	.LVL66:
 716              		.loc 1 268 0
 717 0092 D8E7     		b	.L54
 718              	.L55:
 719              		.loc 1 264 0
 720 0094 43F01803 		orr	r3, r3, #24
 721              	.LVL67:
 722              		.loc 1 265 0
 723 0098 D5E7     		b	.L54
 724              	.LBE244:
 725              		.cfi_endproc
 726              	.LFE16:
 727              		.fnend
 728              		.size	_ZN7LSM9DS19initAccelEv, .-_ZN7LSM9DS19initAccelEv
 729 009a 00BF     		.section	.text._ZN7LSM9DS19magOffsetEhs,"ax",%progbits
 730              		.align	2
 731              		.p2align 4,,15
 732              		.global	_ZN7LSM9DS19magOffsetEhs
 733              		.thumb
 734              		.thumb_func
 735              		.type	_ZN7LSM9DS19magOffsetEhs, %function
 736              	_ZN7LSM9DS19magOffsetEhs:
 737              		.fnstart
 738              	.LFB19:
 739              		.loc 1 363 0
 740              		.cfi_startproc
 741              		@ args = 0, pretend = 0, frame = 0
ARM GAS  /tmp/ccoI4Tqz.s 			page 14


 742              		@ frame_needed = 0, uses_anonymous_args = 0
 743              		@ link register save eliminated.
 744              	.LVL68:
 745              	.LBB245:
 746              		.loc 1 364 0
 747 0000 0229     		cmp	r1, #2
 748 0002 00D9     		bls	.L73
 749 0004 7047     		bx	lr
 750              	.L73:
 751              	.LBE245:
 752 0006 FFF7FEBF 		b	_ZN7LSM9DS19magOffsetEhs.part.0
 753              	.LVL69:
 754              		.cfi_endproc
 755              	.LFE19:
 756              		.cantunwind
 757              		.fnend
 758              		.size	_ZN7LSM9DS19magOffsetEhs, .-_ZN7LSM9DS19magOffsetEhs
 759 000a 00BF     		.section	.text._ZN7LSM9DS17initMagEv,"ax",%progbits
 760              		.align	2
 761              		.p2align 4,,15
 762              		.global	_ZN7LSM9DS17initMagEv
 763              		.thumb
 764              		.thumb_func
 765              		.type	_ZN7LSM9DS17initMagEv, %function
 766              	_ZN7LSM9DS17initMagEv:
 767              		.fnstart
 768              	.LFB20:
 769              		.loc 1 372 0
 770              		.cfi_startproc
 771              		@ args = 0, pretend = 0, frame = 0
 772              		@ frame_needed = 0, uses_anonymous_args = 0
 773              	.LVL70:
 774 0000 10B5     		push	{r4, lr}
 775              		.save {r4, lr}
 776              		.cfi_def_cfa_offset 8
 777              		.cfi_offset 4, -8
 778              		.cfi_offset 14, -4
 779              		.loc 1 372 0
 780 0002 0446     		mov	r4, r0
 781              	.LBB246:
 782              		.loc 1 383 0
 783 0004 90F82230 		ldrb	r3, [r0, #34]	@ zero_extendqisi2
 784              		.loc 1 384 0
 785 0008 90F82320 		ldrb	r2, [r0, #35]	@ zero_extendqisi2
 786              		.loc 1 383 0
 787 000c 002B     		cmp	r3, #0
 788              		.loc 1 385 0
 789 000e 90F82130 		ldrb	r3, [r0, #33]	@ zero_extendqisi2
 790              		.loc 1 384 0
 791 0012 02F00302 		and	r2, r2, #3
 792 0016 4FEA4212 		lsl	r2, r2, #5
 793              		.loc 1 385 0
 794 001a 03F00703 		and	r3, r3, #7
 795              		.loc 1 383 0
 796 001e 0CBF     		ite	eq
 797 0020 0021     		moveq	r1, #0
 798 0022 8021     		movne	r1, #128
ARM GAS  /tmp/ccoI4Tqz.s 			page 15


 799              	.LVL71:
 800 0024 42EA8303 		orr	r3, r2, r3, lsl #2
 801              	.LBB247:
 802              	.LBB248:
 803              		.loc 1 891 0
 804 0028 0B43     		orrs	r3, r3, r1
 805 002a 2022     		movs	r2, #32
 806 002c 94F87210 		ldrb	r1, [r4, #114]	@ zero_extendqisi2
 807              	.LVL72:
 808 0030 D0F88400 		ldr	r0, [r0, #132]
 809              	.LVL73:
 810 0034 FFF7FEFF 		bl	_ZN7creator3I2C9WriteByteEhhh
 811              	.LVL74:
 812 0038 94F82030 		ldrb	r3, [r4, #32]	@ zero_extendqisi2
 813              	.LBE248:
 814              	.LBE247:
 815              	.LBB249:
 816              	.LBB250:
 817 003c D4F88400 		ldr	r0, [r4, #132]
 818 0040 083B     		subs	r3, r3, #8
 819 0042 DBB2     		uxtb	r3, r3
 820 0044 082B     		cmp	r3, #8
 821 0046 96BF     		itet	ls
 822 0048 174A     		ldrls	r2, .L82
 823              	.LBE250:
 824              	.LBE249:
 825              		.loc 1 394 0
 826 004a 0023     		movhi	r3, #0
 827 004c D35C     		ldrbls	r3, [r2, r3]	@ zero_extendqisi2
 828              	.LVL75:
 829              	.LBB252:
 830              	.LBB251:
 831              		.loc 1 891 0
 832 004e 94F87210 		ldrb	r1, [r4, #114]	@ zero_extendqisi2
 833 0052 2122     		movs	r2, #33
 834 0054 FFF7FEFF 		bl	_ZN7creator3I2C9WriteByteEhhh
 835              	.LVL76:
 836              	.LBE251:
 837              	.LBE252:
 838              		.loc 1 417 0
 839 0058 94F82520 		ldrb	r2, [r4, #37]	@ zero_extendqisi2
 840              		.loc 1 418 0
 841 005c 94F82630 		ldrb	r3, [r4, #38]	@ zero_extendqisi2
 842              		.loc 1 417 0
 843 0060 002A     		cmp	r2, #0
 844 0062 0CBF     		ite	eq
 845 0064 0022     		moveq	r2, #0
 846 0066 2022     		movne	r2, #32
 847              	.LVL77:
 848              		.loc 1 418 0
 849 0068 03F00303 		and	r3, r3, #3
 850              	.LBB253:
 851              	.LBB254:
 852              		.loc 1 891 0
 853 006c 1343     		orrs	r3, r3, r2
 854 006e D4F88400 		ldr	r0, [r4, #132]
 855 0072 94F87210 		ldrb	r1, [r4, #114]	@ zero_extendqisi2
ARM GAS  /tmp/ccoI4Tqz.s 			page 16


 856 0076 2222     		movs	r2, #34
 857              	.LVL78:
 858 0078 FFF7FEFF 		bl	_ZN7creator3I2C9WriteByteEhhh
 859              	.LVL79:
 860              	.LBE254:
 861              	.LBE253:
 862              		.loc 1 428 0
 863 007c 94F82430 		ldrb	r3, [r4, #36]	@ zero_extendqisi2
 864              	.LBB255:
 865              	.LBB256:
 866              		.loc 1 891 0
 867 0080 D4F88400 		ldr	r0, [r4, #132]
 868              	.LBE256:
 869              	.LBE255:
 870              		.loc 1 428 0
 871 0084 03F00303 		and	r3, r3, #3
 872              	.LBB258:
 873              	.LBB257:
 874              		.loc 1 891 0
 875 0088 94F87210 		ldrb	r1, [r4, #114]	@ zero_extendqisi2
 876 008c 9B00     		lsls	r3, r3, #2
 877 008e 2322     		movs	r2, #35
 878 0090 FFF7FEFF 		bl	_ZN7creator3I2C9WriteByteEhhh
 879              	.LVL80:
 880              	.LBE257:
 881              	.LBE258:
 882              	.LBB259:
 883              	.LBB260:
 884 0094 D4F88400 		ldr	r0, [r4, #132]
 885 0098 94F87210 		ldrb	r1, [r4, #114]	@ zero_extendqisi2
 886 009c 2422     		movs	r2, #36
 887 009e 0023     		movs	r3, #0
 888              	.LBE260:
 889              	.LBE259:
 890              	.LBE246:
 891              		.loc 1 437 0
 892 00a0 BDE81040 		pop	{r4, lr}
 893              		.cfi_restore 14
 894              		.cfi_restore 4
 895              		.cfi_def_cfa_offset 0
 896              	.LVL81:
 897              	.LBB263:
 898              	.LBB262:
 899              	.LBB261:
 900              		.loc 1 891 0
 901 00a4 FFF7FEBF 		b	_ZN7creator3I2C9WriteByteEhhh
 902              	.LVL82:
 903              	.L83:
 904              		.align	2
 905              	.L82:
 906 00a8 00000000 		.word	.LANCHOR0
 907              	.LBE261:
 908              	.LBE262:
 909              	.LBE263:
 910              		.cfi_endproc
 911              	.LFE20:
 912              		.fnend
ARM GAS  /tmp/ccoI4Tqz.s 			page 17


 913              		.size	_ZN7LSM9DS17initMagEv, .-_ZN7LSM9DS17initMagEv
 914              		.section	.text._ZN7LSM9DS114accelAvailableEv,"ax",%progbits
 915              		.align	2
 916              		.p2align 4,,15
 917              		.global	_ZN7LSM9DS114accelAvailableEv
 918              		.thumb
 919              		.thumb_func
 920              		.type	_ZN7LSM9DS114accelAvailableEv, %function
 921              	_ZN7LSM9DS114accelAvailableEv:
 922              		.fnstart
 923              	.LFB21:
 924              		.loc 1 439 0
 925              		.cfi_startproc
 926              		@ args = 0, pretend = 0, frame = 0
 927              		@ frame_needed = 0, uses_anonymous_args = 0
 928              	.LVL83:
 929 0000 08B5     		push	{r3, lr}
 930              		.save {r3, lr}
 931              		.cfi_def_cfa_offset 8
 932              		.cfi_offset 3, -8
 933              		.cfi_offset 14, -4
 934              		.loc 1 439 0
 935 0002 0346     		mov	r3, r0
 936              	.LVL84:
 937              	.LBB264:
 938              	.LBB265:
 939              	.LBB266:
 940              		.loc 1 895 0
 941 0004 2722     		movs	r2, #39
 942 0006 93F87310 		ldrb	r1, [r3, #115]	@ zero_extendqisi2
 943 000a D0F88400 		ldr	r0, [r0, #132]
 944              	.LVL85:
 945 000e FFF7FEFF 		bl	_ZN7creator3I2C8ReadByteEhh
 946              	.LVL86:
 947              	.LBE266:
 948              	.LBE265:
 949              	.LBE264:
 950              		.loc 1 443 0
 951 0012 00F00100 		and	r0, r0, #1
 952              	.LVL87:
 953 0016 08BD     		pop	{r3, pc}
 954              		.cfi_endproc
 955              	.LFE21:
 956              		.fnend
 957              		.size	_ZN7LSM9DS114accelAvailableEv, .-_ZN7LSM9DS114accelAvailableEv
 958              		.section	.text._ZN7LSM9DS113gyroAvailableEv,"ax",%progbits
 959              		.align	2
 960              		.p2align 4,,15
 961              		.global	_ZN7LSM9DS113gyroAvailableEv
 962              		.thumb
 963              		.thumb_func
 964              		.type	_ZN7LSM9DS113gyroAvailableEv, %function
 965              	_ZN7LSM9DS113gyroAvailableEv:
 966              		.fnstart
 967              	.LFB22:
 968              		.loc 1 445 0
 969              		.cfi_startproc
ARM GAS  /tmp/ccoI4Tqz.s 			page 18


 970              		@ args = 0, pretend = 0, frame = 0
 971              		@ frame_needed = 0, uses_anonymous_args = 0
 972              	.LVL88:
 973 0000 08B5     		push	{r3, lr}
 974              		.save {r3, lr}
 975              		.cfi_def_cfa_offset 8
 976              		.cfi_offset 3, -8
 977              		.cfi_offset 14, -4
 978              		.loc 1 445 0
 979 0002 0346     		mov	r3, r0
 980              	.LVL89:
 981              	.LBB267:
 982              	.LBB268:
 983              	.LBB269:
 984              		.loc 1 895 0
 985 0004 2722     		movs	r2, #39
 986 0006 93F87310 		ldrb	r1, [r3, #115]	@ zero_extendqisi2
 987 000a D0F88400 		ldr	r0, [r0, #132]
 988              	.LVL90:
 989 000e FFF7FEFF 		bl	_ZN7creator3I2C8ReadByteEhh
 990              	.LVL91:
 991              	.LBE269:
 992              	.LBE268:
 993              	.LBE267:
 994              		.loc 1 449 0
 995 0012 C0F34000 		ubfx	r0, r0, #1, #1
 996              	.LVL92:
 997 0016 08BD     		pop	{r3, pc}
 998              		.cfi_endproc
 999              	.LFE22:
 1000              		.fnend
 1001              		.size	_ZN7LSM9DS113gyroAvailableEv, .-_ZN7LSM9DS113gyroAvailableEv
 1002              		.section	.text._ZN7LSM9DS113tempAvailableEv,"ax",%progbits
 1003              		.align	2
 1004              		.p2align 4,,15
 1005              		.global	_ZN7LSM9DS113tempAvailableEv
 1006              		.thumb
 1007              		.thumb_func
 1008              		.type	_ZN7LSM9DS113tempAvailableEv, %function
 1009              	_ZN7LSM9DS113tempAvailableEv:
 1010              		.fnstart
 1011              	.LFB23:
 1012              		.loc 1 451 0
 1013              		.cfi_startproc
 1014              		@ args = 0, pretend = 0, frame = 0
 1015              		@ frame_needed = 0, uses_anonymous_args = 0
 1016              	.LVL93:
 1017 0000 08B5     		push	{r3, lr}
 1018              		.save {r3, lr}
 1019              		.cfi_def_cfa_offset 8
 1020              		.cfi_offset 3, -8
 1021              		.cfi_offset 14, -4
 1022              		.loc 1 451 0
 1023 0002 0346     		mov	r3, r0
 1024              	.LVL94:
 1025              	.LBB270:
 1026              	.LBB271:
ARM GAS  /tmp/ccoI4Tqz.s 			page 19


 1027              	.LBB272:
 1028              		.loc 1 895 0
 1029 0004 2722     		movs	r2, #39
 1030 0006 93F87310 		ldrb	r1, [r3, #115]	@ zero_extendqisi2
 1031 000a D0F88400 		ldr	r0, [r0, #132]
 1032              	.LVL95:
 1033 000e FFF7FEFF 		bl	_ZN7creator3I2C8ReadByteEhh
 1034              	.LVL96:
 1035              	.LBE272:
 1036              	.LBE271:
 1037              	.LBE270:
 1038              		.loc 1 455 0
 1039 0012 C0F38000 		ubfx	r0, r0, #2, #1
 1040              	.LVL97:
 1041 0016 08BD     		pop	{r3, pc}
 1042              		.cfi_endproc
 1043              	.LFE23:
 1044              		.fnend
 1045              		.size	_ZN7LSM9DS113tempAvailableEv, .-_ZN7LSM9DS113tempAvailableEv
 1046              		.section	.text._ZN7LSM9DS112magAvailableE12lsm9ds1_axis,"ax",%progbits
 1047              		.align	2
 1048              		.p2align 4,,15
 1049              		.global	_ZN7LSM9DS112magAvailableE12lsm9ds1_axis
 1050              		.thumb
 1051              		.thumb_func
 1052              		.type	_ZN7LSM9DS112magAvailableE12lsm9ds1_axis, %function
 1053              	_ZN7LSM9DS112magAvailableE12lsm9ds1_axis:
 1054              		.fnstart
 1055              	.LFB24:
 1056              		.loc 1 457 0
 1057              		.cfi_startproc
 1058              		@ args = 0, pretend = 0, frame = 0
 1059              		@ frame_needed = 0, uses_anonymous_args = 0
 1060              	.LVL98:
 1061 0000 0346     		mov	r3, r0
 1062              	.LVL99:
 1063 0002 10B5     		push	{r4, lr}
 1064              		.save {r4, lr}
 1065              		.cfi_def_cfa_offset 8
 1066              		.cfi_offset 4, -8
 1067              		.cfi_offset 14, -4
 1068              	.LBB273:
 1069              	.LBB274:
 1070              	.LBB275:
 1071              		.loc 1 903 0
 1072 0004 2722     		movs	r2, #39
 1073              	.LBE275:
 1074              	.LBE274:
 1075              	.LBE273:
 1076              		.loc 1 457 0
 1077 0006 0C46     		mov	r4, r1
 1078              	.LBB278:
 1079              	.LBB277:
 1080              	.LBB276:
 1081              		.loc 1 903 0
 1082 0008 D0F88400 		ldr	r0, [r0, #132]
 1083              	.LVL100:
ARM GAS  /tmp/ccoI4Tqz.s 			page 20


 1084 000c 93F87210 		ldrb	r1, [r3, #114]	@ zero_extendqisi2
 1085              	.LVL101:
 1086 0010 FFF7FEFF 		bl	_ZN7creator3I2C8ReadByteEhh
 1087              	.LVL102:
 1088              	.LBE276:
 1089              	.LBE277:
 1090              		.loc 1 461 0
 1091 0014 0123     		movs	r3, #1
 1092 0016 A340     		lsls	r3, r3, r4
 1093 0018 1840     		ands	r0, r0, r3
 1094              	.LVL103:
 1095 001a 2041     		asrs	r0, r0, r4
 1096              	.LBE278:
 1097              		.loc 1 462 0
 1098 001c C0B2     		uxtb	r0, r0
 1099 001e 10BD     		pop	{r4, pc}
 1100              		.cfi_endproc
 1101              	.LFE24:
 1102              		.fnend
 1103              		.size	_ZN7LSM9DS112magAvailableE12lsm9ds1_axis, .-_ZN7LSM9DS112magAvailableE12lsm9ds1_axis
 1104              		.section	.text._ZN7LSM9DS19readAccelEv,"ax",%progbits
 1105              		.align	2
 1106              		.p2align 4,,15
 1107              		.global	_ZN7LSM9DS19readAccelEv
 1108              		.thumb
 1109              		.thumb_func
 1110              		.type	_ZN7LSM9DS19readAccelEv, %function
 1111              	_ZN7LSM9DS19readAccelEv:
 1112              		.fnstart
 1113              	.LFB25:
 1114              		.loc 1 464 0
 1115              		.cfi_startproc
 1116              		@ args = 0, pretend = 0, frame = 8
 1117              		@ frame_needed = 0, uses_anonymous_args = 0
 1118              	.LVL104:
 1119 0000 F0B5     		push	{r4, r5, r6, r7, lr}
 1120              		.save {r4, r5, r6, r7, lr}
 1121              		.cfi_def_cfa_offset 20
 1122              		.cfi_offset 4, -20
 1123              		.cfi_offset 5, -16
 1124              		.cfi_offset 6, -12
 1125              		.cfi_offset 7, -8
 1126              		.cfi_offset 14, -4
 1127 0002 0446     		mov	r4, r0
 1128              	.LVL105:
 1129              		.pad #20
 1130 0004 85B0     		sub	sp, sp, #20
 1131              		.cfi_def_cfa_offset 40
 1132              	.LVL106:
 1133              	.LBB279:
 1134              	.LBB280:
 1135              	.LBB281:
 1136              		.loc 1 899 0
 1137 0006 0623     		movs	r3, #6
 1138 0008 94F87310 		ldrb	r1, [r4, #115]	@ zero_extendqisi2
 1139 000c D0F88400 		ldr	r0, [r0, #132]
 1140              	.LVL107:
ARM GAS  /tmp/ccoI4Tqz.s 			page 21


 1141 0010 2822     		movs	r2, #40
 1142 0012 0093     		str	r3, [sp]
 1143 0014 02AB     		add	r3, sp, #8
 1144              	.LVL108:
 1145 0016 FFF7FEFF 		bl	_ZN7creator3I2C9ReadBytesEhhPhh
 1146              	.LVL109:
 1147              	.LBE281:
 1148              	.LBE280:
 1149              		.loc 1 467 0
 1150 001a 9DF80970 		ldrb	r7, [sp, #9]	@ zero_extendqisi2
 1151 001e 9DF80810 		ldrb	r1, [sp, #8]	@ zero_extendqisi2
 1152              		.loc 1 468 0
 1153 0022 9DF80B60 		ldrb	r6, [sp, #11]	@ zero_extendqisi2
 1154 0026 9DF80A20 		ldrb	r2, [sp, #10]	@ zero_extendqisi2
 1155              		.loc 1 469 0
 1156 002a 9DF80D50 		ldrb	r5, [sp, #13]	@ zero_extendqisi2
 1157 002e 9DF80C30 		ldrb	r3, [sp, #12]	@ zero_extendqisi2
 1158              		.loc 1 470 0
 1159 0032 94F88000 		ldrb	r0, [r4, #128]	@ zero_extendqisi2
 1160              		.loc 1 467 0
 1161 0036 41EA0721 		orr	r1, r1, r7, lsl #8
 1162              		.loc 1 468 0
 1163 003a 42EA0622 		orr	r2, r2, r6, lsl #8
 1164              		.loc 1 469 0
 1165 003e 43EA0523 		orr	r3, r3, r5, lsl #8
 1166              		.loc 1 467 0
 1167 0042 E185     		strh	r1, [r4, #46]	@ movhi
 1168              		.loc 1 468 0
 1169 0044 2286     		strh	r2, [r4, #48]	@ movhi
 1170              		.loc 1 469 0
 1171 0046 6386     		strh	r3, [r4, #50]	@ movhi
 1172              		.loc 1 470 0
 1173 0048 58B1     		cbz	r0, .L92
 1174              		.loc 1 471 0
 1175 004a B4F86660 		ldrh	r6, [r4, #102]
 1176              		.loc 1 472 0
 1177 004e B4F86850 		ldrh	r5, [r4, #104]
 1178              		.loc 1 473 0
 1179 0052 B4F86A00 		ldrh	r0, [r4, #106]
 1180              		.loc 1 471 0
 1181 0056 891B     		subs	r1, r1, r6
 1182              		.loc 1 472 0
 1183 0058 521B     		subs	r2, r2, r5
 1184              		.loc 1 473 0
 1185 005a 1B1A     		subs	r3, r3, r0
 1186              		.loc 1 471 0
 1187 005c E185     		strh	r1, [r4, #46]	@ movhi
 1188              		.loc 1 472 0
 1189 005e 2286     		strh	r2, [r4, #48]	@ movhi
 1190              		.loc 1 473 0
 1191 0060 6386     		strh	r3, [r4, #50]	@ movhi
 1192              	.L92:
 1193              	.LBE279:
 1194              		.loc 1 475 0
 1195 0062 05B0     		add	sp, sp, #20
 1196              		.cfi_def_cfa_offset 20
 1197              		@ sp needed
ARM GAS  /tmp/ccoI4Tqz.s 			page 22


 1198 0064 F0BD     		pop	{r4, r5, r6, r7, pc}
 1199              		.cfi_endproc
 1200              	.LFE25:
 1201              		.fnend
 1202              		.size	_ZN7LSM9DS19readAccelEv, .-_ZN7LSM9DS19readAccelEv
 1203 0066 00BF     		.section	.text._ZN7LSM9DS19readAccelE12lsm9ds1_axis,"ax",%progbits
 1204              		.align	2
 1205              		.p2align 4,,15
 1206              		.global	_ZN7LSM9DS19readAccelE12lsm9ds1_axis
 1207              		.thumb
 1208              		.thumb_func
 1209              		.type	_ZN7LSM9DS19readAccelE12lsm9ds1_axis, %function
 1210              	_ZN7LSM9DS19readAccelE12lsm9ds1_axis:
 1211              		.fnstart
 1212              	.LFB26:
 1213              		.loc 1 477 0
 1214              		.cfi_startproc
 1215              		@ args = 0, pretend = 0, frame = 8
 1216              		@ frame_needed = 0, uses_anonymous_args = 0
 1217              	.LVL110:
 1218 0000 30B5     		push	{r4, r5, lr}
 1219              		.save {r4, r5, lr}
 1220              		.cfi_def_cfa_offset 12
 1221              		.cfi_offset 4, -12
 1222              		.cfi_offset 5, -8
 1223              		.cfi_offset 14, -4
 1224 0002 0446     		mov	r4, r0
 1225              	.LVL111:
 1226              	.LBB282:
 1227              		.loc 1 480 0
 1228 0004 01F11402 		add	r2, r1, #20
 1229              	.LBE282:
 1230              		.loc 1 477 0
 1231              		.pad #20
 1232 0008 85B0     		sub	sp, sp, #20
 1233              		.cfi_def_cfa_offset 32
 1234              	.LVL112:
 1235              	.LBB289:
 1236              	.LBB283:
 1237              	.LBB284:
 1238              		.loc 1 899 0
 1239 000a 0223     		movs	r3, #2
 1240              	.LBE284:
 1241              	.LBE283:
 1242              		.loc 1 480 0
 1243 000c 5200     		lsls	r2, r2, #1
 1244              	.LBB287:
 1245              	.LBB285:
 1246              		.loc 1 899 0
 1247 000e D0F88400 		ldr	r0, [r0, #132]
 1248              	.LVL113:
 1249 0012 02F0FE02 		and	r2, r2, #254
 1250              	.LBE285:
 1251              	.LBE287:
 1252              	.LBE289:
 1253              		.loc 1 477 0
 1254 0016 0D46     		mov	r5, r1
ARM GAS  /tmp/ccoI4Tqz.s 			page 23


 1255              	.LBB290:
 1256              	.LBB288:
 1257              	.LBB286:
 1258              		.loc 1 899 0
 1259 0018 94F87310 		ldrb	r1, [r4, #115]	@ zero_extendqisi2
 1260              	.LVL114:
 1261 001c 0093     		str	r3, [sp]
 1262 001e 03AB     		add	r3, sp, #12
 1263              	.LVL115:
 1264 0020 FFF7FEFF 		bl	_ZN7creator3I2C9ReadBytesEhhPhh
 1265              	.LVL116:
 1266              	.LBE286:
 1267              	.LBE288:
 1268              		.loc 1 481 0
 1269 0024 9DF80D00 		ldrb	r0, [sp, #13]	@ zero_extendqisi2
 1270 0028 9DF80C30 		ldrb	r3, [sp, #12]	@ zero_extendqisi2
 1271              		.loc 1 483 0
 1272 002c 94F88020 		ldrb	r2, [r4, #128]	@ zero_extendqisi2
 1273              		.loc 1 481 0
 1274 0030 43EA0020 		orr	r0, r3, r0, lsl #8
 1275              	.LVL117:
 1276              		.loc 1 483 0
 1277 0034 2AB1     		cbz	r2, .L99
 1278              		.loc 1 483 0 is_stmt 0 discriminator 1
 1279 0036 04EB4504 		add	r4, r4, r5, lsl #1
 1280              	.LVL118:
 1281 003a B4F86630 		ldrh	r3, [r4, #102]
 1282 003e C01A     		subs	r0, r0, r3
 1283              	.LVL119:
 1284 0040 80B2     		uxth	r0, r0
 1285              	.LVL120:
 1286              	.L99:
 1287              	.LBE290:
 1288              		.loc 1 486 0 is_stmt 1
 1289 0042 00B2     		sxth	r0, r0
 1290 0044 05B0     		add	sp, sp, #20
 1291              		.cfi_def_cfa_offset 12
 1292              		@ sp needed
 1293 0046 30BD     		pop	{r4, r5, pc}
 1294              		.cfi_endproc
 1295              	.LFE26:
 1296              		.fnend
 1297              		.size	_ZN7LSM9DS19readAccelE12lsm9ds1_axis, .-_ZN7LSM9DS19readAccelE12lsm9ds1_axis
 1298              		.section	.text._ZN7LSM9DS17readMagEv,"ax",%progbits
 1299              		.align	2
 1300              		.p2align 4,,15
 1301              		.global	_ZN7LSM9DS17readMagEv
 1302              		.thumb
 1303              		.thumb_func
 1304              		.type	_ZN7LSM9DS17readMagEv, %function
 1305              	_ZN7LSM9DS17readMagEv:
 1306              		.fnstart
 1307              	.LFB27:
 1308              		.loc 1 488 0
 1309              		.cfi_startproc
 1310              		@ args = 0, pretend = 0, frame = 8
 1311              		@ frame_needed = 0, uses_anonymous_args = 0
ARM GAS  /tmp/ccoI4Tqz.s 			page 24


 1312              	.LVL121:
 1313 0000 70B5     		push	{r4, r5, r6, lr}
 1314              		.save {r4, r5, r6, lr}
 1315              		.cfi_def_cfa_offset 16
 1316              		.cfi_offset 4, -16
 1317              		.cfi_offset 5, -12
 1318              		.cfi_offset 6, -8
 1319              		.cfi_offset 14, -4
 1320 0002 0446     		mov	r4, r0
 1321              	.LVL122:
 1322              		.pad #16
 1323 0004 84B0     		sub	sp, sp, #16
 1324              		.cfi_def_cfa_offset 32
 1325              	.LVL123:
 1326              	.LBB291:
 1327              	.LBB292:
 1328              	.LBB293:
 1329              		.loc 1 907 0
 1330 0006 0623     		movs	r3, #6
 1331 0008 94F87210 		ldrb	r1, [r4, #114]	@ zero_extendqisi2
 1332 000c D0F88400 		ldr	r0, [r0, #132]
 1333              	.LVL124:
 1334 0010 2822     		movs	r2, #40
 1335 0012 0093     		str	r3, [sp]
 1336 0014 02AB     		add	r3, sp, #8
 1337              	.LVL125:
 1338 0016 FFF7FEFF 		bl	_ZN7creator3I2C9ReadBytesEhhPhh
 1339              	.LVL126:
 1340              	.LBE293:
 1341              	.LBE292:
 1342              		.loc 1 491 0
 1343 001a 9DF80960 		ldrb	r6, [sp, #9]	@ zero_extendqisi2
 1344 001e 9DF80810 		ldrb	r1, [sp, #8]	@ zero_extendqisi2
 1345              		.loc 1 492 0
 1346 0022 9DF80B50 		ldrb	r5, [sp, #11]	@ zero_extendqisi2
 1347 0026 9DF80A20 		ldrb	r2, [sp, #10]	@ zero_extendqisi2
 1348              		.loc 1 493 0
 1349 002a 9DF80D00 		ldrb	r0, [sp, #13]	@ zero_extendqisi2
 1350 002e 9DF80C30 		ldrb	r3, [sp, #12]	@ zero_extendqisi2
 1351              		.loc 1 491 0
 1352 0032 41EA0621 		orr	r1, r1, r6, lsl #8
 1353              		.loc 1 492 0
 1354 0036 42EA0522 		orr	r2, r2, r5, lsl #8
 1355              		.loc 1 493 0
 1356 003a 43EA0023 		orr	r3, r3, r0, lsl #8
 1357              		.loc 1 491 0
 1358 003e A186     		strh	r1, [r4, #52]	@ movhi
 1359              		.loc 1 492 0
 1360 0040 E286     		strh	r2, [r4, #54]	@ movhi
 1361              		.loc 1 493 0
 1362 0042 2387     		strh	r3, [r4, #56]	@ movhi
 1363              	.LBE291:
 1364              		.loc 1 494 0
 1365 0044 04B0     		add	sp, sp, #16
 1366              		.cfi_def_cfa_offset 16
 1367              		@ sp needed
 1368 0046 70BD     		pop	{r4, r5, r6, pc}
ARM GAS  /tmp/ccoI4Tqz.s 			page 25


 1369              		.cfi_endproc
 1370              	.LFE27:
 1371              		.fnend
 1372              		.size	_ZN7LSM9DS17readMagEv, .-_ZN7LSM9DS17readMagEv
 1373              		.global	__aeabi_i2f
 1374              		.global	__aeabi_fmul
 1375              		.section	.text._ZN7LSM9DS112calibrateMagEb,"ax",%progbits
 1376              		.align	2
 1377              		.p2align 4,,15
 1378              		.global	_ZN7LSM9DS112calibrateMagEb
 1379              		.thumb
 1380              		.thumb_func
 1381              		.type	_ZN7LSM9DS112calibrateMagEb, %function
 1382              	_ZN7LSM9DS112calibrateMagEb:
 1383              		.fnstart
 1384              	.LFB18:
 1385              		.loc 1 339 0
 1386              		.cfi_startproc
 1387              		@ args = 0, pretend = 0, frame = 24
 1388              		@ frame_needed = 0, uses_anonymous_args = 0
 1389              	.LVL127:
 1390 0000 2DE9F047 		push	{r4, r5, r6, r7, r8, r9, r10, lr}
 1391              		.save {r4, r5, r6, r7, r8, r9, r10, lr}
 1392              		.cfi_def_cfa_offset 32
 1393              		.cfi_offset 4, -32
 1394              		.cfi_offset 5, -28
 1395              		.cfi_offset 6, -24
 1396              		.cfi_offset 7, -20
 1397              		.cfi_offset 8, -16
 1398              		.cfi_offset 9, -12
 1399              		.cfi_offset 10, -8
 1400              		.cfi_offset 14, -4
 1401 0004 0446     		mov	r4, r0
 1402 0006 0F46     		mov	r7, r1
 1403              		.pad #24
 1404 0008 86B0     		sub	sp, sp, #24
 1405              		.cfi_def_cfa_offset 56
 1406              	.LBB294:
 1407              		.loc 1 341 0
 1408 000a 0023     		movs	r3, #0
 1409 000c ADF80030 		strh	r3, [sp]	@ movhi
 1410 0010 ADF80230 		strh	r3, [sp, #2]	@ movhi
 1411 0014 ADF80430 		strh	r3, [sp, #4]	@ movhi
 1412              		.loc 1 342 0
 1413 0018 ADF80830 		strh	r3, [sp, #8]	@ movhi
 1414 001c ADF80A30 		strh	r3, [sp, #10]	@ movhi
 1415 0020 ADF80C30 		strh	r3, [sp, #12]	@ movhi
 1416              	.LVL128:
 1417 0024 8026     		movs	r6, #128
 1418 0026 02AD     		add	r5, sp, #8
 1419              	.LVL129:
 1420              	.L107:
 1421              	.LBB295:
 1422              	.LBB296:
 1423              	.LBB297:
 1424              	.LBB298:
 1425              	.LBB299:
ARM GAS  /tmp/ccoI4Tqz.s 			page 26


 1426              	.LBB300:
 1427              		.loc 1 903 0 discriminator 2
 1428 0028 D4F88400 		ldr	r0, [r4, #132]
 1429 002c 94F87210 		ldrb	r1, [r4, #114]	@ zero_extendqisi2
 1430 0030 2722     		movs	r2, #39
 1431 0032 FFF7FEFF 		bl	_ZN7creator3I2C8ReadByteEhh
 1432              	.LVL130:
 1433              	.LBE300:
 1434              	.LBE299:
 1435              	.LBE298:
 1436              	.LBE297:
 1437              		.loc 1 345 0 discriminator 2
 1438 0036 0307     		lsls	r3, r0, #28
 1439 0038 F6D5     		bpl	.L107
 1440              		.loc 1 347 0
 1441 003a 2046     		mov	r0, r4
 1442              	.LVL131:
 1443 003c FFF7FEFF 		bl	_ZN7LSM9DS17readMagEv
 1444              	.LVL132:
 1445              		.loc 1 351 0
 1446 0040 238F     		ldrh	r3, [r4, #56]
 1447              		.loc 1 349 0
 1448 0042 A28E     		ldrh	r2, [r4, #52]
 1449              		.loc 1 350 0
 1450 0044 E18E     		ldrh	r1, [r4, #54]
 1451              		.loc 1 351 0
 1452 0046 ADF81430 		strh	r3, [sp, #20]	@ movhi
 1453              	.LVL133:
 1454              		.loc 1 349 0
 1455 004a ADF81020 		strh	r2, [sp, #16]	@ movhi
 1456              		.loc 1 350 0
 1457 004e ADF81210 		strh	r1, [sp, #18]	@ movhi
 1458              		.loc 1 352 0
 1459 0052 0023     		movs	r3, #0
 1460              	.LVL134:
 1461              	.L111:
 1462              		.loc 1 353 0
 1463 0054 35F91300 		ldrsh	r0, [r5, r3, lsl #1]
 1464 0058 11B2     		sxth	r1, r2
 1465 005a 8842     		cmp	r0, r1
 1466              		.loc 1 354 0
 1467 005c 3DF91300 		ldrsh	r0, [sp, r3, lsl #1]
 1468              		.loc 1 353 0
 1469 0060 B8BF     		it	lt
 1470 0062 25F81320 		strhlt	r2, [r5, r3, lsl #1]	@ movhi
 1471              		.loc 1 354 0
 1472 0066 8842     		cmp	r0, r1
 1473 0068 C8BF     		it	gt
 1474 006a 2DF81320 		strhgt	r2, [sp, r3, lsl #1]	@ movhi
 1475              		.loc 1 352 0
 1476 006e 0133     		adds	r3, r3, #1
 1477              	.LVL135:
 1478 0070 032B     		cmp	r3, #3
 1479 0072 03D0     		beq	.L110
 1480 0074 04AA     		add	r2, sp, #16
 1481 0076 32F81320 		ldrh	r2, [r2, r3, lsl #1]
 1482 007a EBE7     		b	.L111
ARM GAS  /tmp/ccoI4Tqz.s 			page 27


 1483              	.L110:
 1484              	.LVL136:
 1485              	.LBE296:
 1486              		.loc 1 344 0 discriminator 2
 1487 007c 013E     		subs	r6, r6, #1
 1488              	.LVL137:
 1489 007e D3D1     		bne	.L107
 1490 0080 04F16A09 		add	r9, r4, #106
 1491 0084 04F15008 		add	r8, r4, #80
 1492              	.LVL138:
 1493              	.L114:
 1494              	.LBE295:
 1495              		.loc 1 358 0
 1496 0088 35F91620 		ldrsh	r2, [r5, r6, lsl #1]
 1497 008c 3DF91630 		ldrsh	r3, [sp, r6, lsl #1]
 1498 0090 1344     		add	r3, r3, r2
 1499 0092 03EBD373 		add	r3, r3, r3, lsr #31
 1500 0096 C3F34F03 		ubfx	r3, r3, #1, #16
 1501              	.LBB301:
 1502              	.LBB302:
 1503              		.loc 1 547 0
 1504 009a 0FFA83FA 		sxth	r10, r3
 1505              	.LBE302:
 1506              	.LBE301:
 1507              		.loc 1 358 0
 1508 009e 29F8023F 		strh	r3, [r9, #2]!	@ movhi
 1509              	.LVL139:
 1510              	.LBB304:
 1511              	.LBB303:
 1512              		.loc 1 547 0
 1513 00a2 5046     		mov	r0, r10
 1514 00a4 FFF7FEFF 		bl	__aeabi_i2f
 1515              	.LVL140:
 1516 00a8 0146     		mov	r1, r0
 1517 00aa E06F     		ldr	r0, [r4, #124]	@ float
 1518 00ac FFF7FEFF 		bl	__aeabi_fmul
 1519              	.LVL141:
 1520              	.LBE303:
 1521              	.LBE304:
 1522              	.LBB305:
 1523              	.LBB306:
 1524 00b0 F1B2     		uxtb	r1, r6
 1525              	.LBE306:
 1526              	.LBE305:
 1527              		.loc 1 359 0
 1528 00b2 48F8040F 		str	r0, [r8, #4]!	@ float
 1529              		.loc 1 357 0
 1530 00b6 0136     		adds	r6, r6, #1
 1531              	.LVL142:
 1532              		.loc 1 360 0
 1533 00b8 1FB1     		cbz	r7, .L113
 1534              	.LBB308:
 1535              	.LBB307:
 1536 00ba 5246     		mov	r2, r10
 1537 00bc 2046     		mov	r0, r4
 1538 00be FFF7FEFF 		bl	_ZN7LSM9DS19magOffsetEhs.part.0
 1539              	.LVL143:
ARM GAS  /tmp/ccoI4Tqz.s 			page 28


 1540              	.L113:
 1541              	.LBE307:
 1542              	.LBE308:
 1543              		.loc 1 357 0 discriminator 2
 1544 00c2 032E     		cmp	r6, #3
 1545 00c4 E0D1     		bne	.L114
 1546              	.LBE294:
 1547              		.loc 1 362 0
 1548 00c6 06B0     		add	sp, sp, #24
 1549              		.cfi_def_cfa_offset 32
 1550              		@ sp needed
 1551 00c8 BDE8F087 		pop	{r4, r5, r6, r7, r8, r9, r10, pc}
 1552              		.cfi_endproc
 1553              	.LFE18:
 1554              		.fnend
 1555              		.size	_ZN7LSM9DS112calibrateMagEb, .-_ZN7LSM9DS112calibrateMagEb
 1556              		.section	.text._ZN7LSM9DS17readMagE12lsm9ds1_axis,"ax",%progbits
 1557              		.align	2
 1558              		.p2align 4,,15
 1559              		.global	_ZN7LSM9DS17readMagE12lsm9ds1_axis
 1560              		.thumb
 1561              		.thumb_func
 1562              		.type	_ZN7LSM9DS17readMagE12lsm9ds1_axis, %function
 1563              	_ZN7LSM9DS17readMagE12lsm9ds1_axis:
 1564              		.fnstart
 1565              	.LFB28:
 1566              		.loc 1 496 0
 1567              		.cfi_startproc
 1568              		@ args = 0, pretend = 0, frame = 8
 1569              		@ frame_needed = 0, uses_anonymous_args = 0
 1570              	.LVL144:
 1571 0000 0346     		mov	r3, r0
 1572              	.LVL145:
 1573 0002 00B5     		push	{lr}
 1574              		.save {lr}
 1575              		.cfi_def_cfa_offset 4
 1576              		.cfi_offset 14, -4
 1577              	.LBB309:
 1578              		.loc 1 498 0
 1579 0004 01F11402 		add	r2, r1, #20
 1580              	.LBE309:
 1581              		.loc 1 496 0
 1582              		.pad #20
 1583 0008 85B0     		sub	sp, sp, #20
 1584              		.cfi_def_cfa_offset 24
 1585              	.LVL146:
 1586              	.LBB314:
 1587              	.LBB310:
 1588              	.LBB311:
 1589              		.loc 1 907 0
 1590 000a 93F87210 		ldrb	r1, [r3, #114]	@ zero_extendqisi2
 1591              	.LVL147:
 1592              	.LBE311:
 1593              	.LBE310:
 1594              		.loc 1 498 0
 1595 000e 5200     		lsls	r2, r2, #1
 1596              	.LBB313:
ARM GAS  /tmp/ccoI4Tqz.s 			page 29


 1597              	.LBB312:
 1598              		.loc 1 907 0
 1599 0010 0223     		movs	r3, #2
 1600 0012 D0F88400 		ldr	r0, [r0, #132]
 1601              	.LVL148:
 1602 0016 02F0FE02 		and	r2, r2, #254
 1603 001a 0093     		str	r3, [sp]
 1604 001c 03AB     		add	r3, sp, #12
 1605              	.LVL149:
 1606 001e FFF7FEFF 		bl	_ZN7creator3I2C9ReadBytesEhhPhh
 1607              	.LVL150:
 1608              	.LBE312:
 1609              	.LBE313:
 1610              		.loc 1 499 0
 1611 0022 9DF80D00 		ldrb	r0, [sp, #13]	@ zero_extendqisi2
 1612 0026 9DF80C30 		ldrb	r3, [sp, #12]	@ zero_extendqisi2
 1613 002a 43EA0020 		orr	r0, r3, r0, lsl #8
 1614              	.LBE314:
 1615              		.loc 1 500 0
 1616 002e 00B2     		sxth	r0, r0
 1617 0030 05B0     		add	sp, sp, #20
 1618              		.cfi_def_cfa_offset 4
 1619              		@ sp needed
 1620 0032 5DF804FB 		ldr	pc, [sp], #4
 1621              		.cfi_endproc
 1622              	.LFE28:
 1623              		.fnend
 1624              		.size	_ZN7LSM9DS17readMagE12lsm9ds1_axis, .-_ZN7LSM9DS17readMagE12lsm9ds1_axis
 1625 0036 00BF     		.section	.text._ZN7LSM9DS18readTempEv,"ax",%progbits
 1626              		.align	2
 1627              		.p2align 4,,15
 1628              		.global	_ZN7LSM9DS18readTempEv
 1629              		.thumb
 1630              		.thumb_func
 1631              		.type	_ZN7LSM9DS18readTempEv, %function
 1632              	_ZN7LSM9DS18readTempEv:
 1633              		.fnstart
 1634              	.LFB29:
 1635              		.loc 1 502 0
 1636              		.cfi_startproc
 1637              		@ args = 0, pretend = 0, frame = 8
 1638              		@ frame_needed = 0, uses_anonymous_args = 0
 1639              	.LVL151:
 1640 0000 10B5     		push	{r4, lr}
 1641              		.save {r4, lr}
 1642              		.cfi_def_cfa_offset 8
 1643              		.cfi_offset 4, -8
 1644              		.cfi_offset 14, -4
 1645 0002 0446     		mov	r4, r0
 1646              	.LVL152:
 1647              		.pad #16
 1648 0004 84B0     		sub	sp, sp, #16
 1649              		.cfi_def_cfa_offset 24
 1650              	.LVL153:
 1651              	.LBB315:
 1652              	.LBB316:
 1653              	.LBB317:
ARM GAS  /tmp/ccoI4Tqz.s 			page 30


 1654              		.loc 1 899 0
 1655 0006 0223     		movs	r3, #2
 1656 0008 94F87310 		ldrb	r1, [r4, #115]	@ zero_extendqisi2
 1657 000c D0F88400 		ldr	r0, [r0, #132]
 1658              	.LVL154:
 1659 0010 1522     		movs	r2, #21
 1660 0012 0093     		str	r3, [sp]
 1661 0014 03AB     		add	r3, sp, #12
 1662              	.LVL155:
 1663 0016 FFF7FEFF 		bl	_ZN7creator3I2C9ReadBytesEhhPhh
 1664              	.LVL156:
 1665              	.LBE317:
 1666              	.LBE316:
 1667              		.loc 1 506 0
 1668 001a 9DF80D20 		ldrb	r2, [sp, #13]	@ zero_extendqisi2
 1669 001e 9DF80C30 		ldrb	r3, [sp, #12]	@ zero_extendqisi2
 1670 0022 43EA0223 		orr	r3, r3, r2, lsl #8
 1671 0026 6387     		strh	r3, [r4, #58]	@ movhi
 1672              	.LBE315:
 1673              		.loc 1 507 0
 1674 0028 04B0     		add	sp, sp, #16
 1675              		.cfi_def_cfa_offset 8
 1676              		@ sp needed
 1677 002a 10BD     		pop	{r4, pc}
 1678              		.cfi_endproc
 1679              	.LFE29:
 1680              		.fnend
 1681              		.size	_ZN7LSM9DS18readTempEv, .-_ZN7LSM9DS18readTempEv
 1682              		.section	.text._ZN7LSM9DS18readGyroEv,"ax",%progbits
 1683              		.align	2
 1684              		.p2align 4,,15
 1685              		.global	_ZN7LSM9DS18readGyroEv
 1686              		.thumb
 1687              		.thumb_func
 1688              		.type	_ZN7LSM9DS18readGyroEv, %function
 1689              	_ZN7LSM9DS18readGyroEv:
 1690              		.fnstart
 1691              	.LFB30:
 1692              		.loc 1 509 0
 1693              		.cfi_startproc
 1694              		@ args = 0, pretend = 0, frame = 8
 1695              		@ frame_needed = 0, uses_anonymous_args = 0
 1696              	.LVL157:
 1697 0000 F0B5     		push	{r4, r5, r6, r7, lr}
 1698              		.save {r4, r5, r6, r7, lr}
 1699              		.cfi_def_cfa_offset 20
 1700              		.cfi_offset 4, -20
 1701              		.cfi_offset 5, -16
 1702              		.cfi_offset 6, -12
 1703              		.cfi_offset 7, -8
 1704              		.cfi_offset 14, -4
 1705 0002 0446     		mov	r4, r0
 1706              	.LVL158:
 1707              		.pad #20
 1708 0004 85B0     		sub	sp, sp, #20
 1709              		.cfi_def_cfa_offset 40
 1710              	.LVL159:
ARM GAS  /tmp/ccoI4Tqz.s 			page 31


 1711              	.LBB318:
 1712              	.LBB319:
 1713              	.LBB320:
 1714              		.loc 1 899 0
 1715 0006 0623     		movs	r3, #6
 1716 0008 94F87310 		ldrb	r1, [r4, #115]	@ zero_extendqisi2
 1717 000c D0F88400 		ldr	r0, [r0, #132]
 1718              	.LVL160:
 1719 0010 1822     		movs	r2, #24
 1720 0012 0093     		str	r3, [sp]
 1721 0014 02AB     		add	r3, sp, #8
 1722              	.LVL161:
 1723 0016 FFF7FEFF 		bl	_ZN7creator3I2C9ReadBytesEhhPhh
 1724              	.LVL162:
 1725              	.LBE320:
 1726              	.LBE319:
 1727              		.loc 1 512 0
 1728 001a 9DF80970 		ldrb	r7, [sp, #9]	@ zero_extendqisi2
 1729 001e 9DF80810 		ldrb	r1, [sp, #8]	@ zero_extendqisi2
 1730              		.loc 1 513 0
 1731 0022 9DF80B60 		ldrb	r6, [sp, #11]	@ zero_extendqisi2
 1732 0026 9DF80A20 		ldrb	r2, [sp, #10]	@ zero_extendqisi2
 1733              		.loc 1 514 0
 1734 002a 9DF80D50 		ldrb	r5, [sp, #13]	@ zero_extendqisi2
 1735 002e 9DF80C30 		ldrb	r3, [sp, #12]	@ zero_extendqisi2
 1736              		.loc 1 515 0
 1737 0032 94F88000 		ldrb	r0, [r4, #128]	@ zero_extendqisi2
 1738              		.loc 1 512 0
 1739 0036 41EA0721 		orr	r1, r1, r7, lsl #8
 1740              		.loc 1 513 0
 1741 003a 42EA0622 		orr	r2, r2, r6, lsl #8
 1742              		.loc 1 514 0
 1743 003e 43EA0523 		orr	r3, r3, r5, lsl #8
 1744              		.loc 1 512 0
 1745 0042 2185     		strh	r1, [r4, #40]	@ movhi
 1746              		.loc 1 513 0
 1747 0044 6285     		strh	r2, [r4, #42]	@ movhi
 1748              		.loc 1 514 0
 1749 0046 A385     		strh	r3, [r4, #44]	@ movhi
 1750              		.loc 1 515 0
 1751 0048 58B1     		cbz	r0, .L127
 1752              		.loc 1 516 0
 1753 004a B4F86060 		ldrh	r6, [r4, #96]
 1754              		.loc 1 517 0
 1755 004e B4F86250 		ldrh	r5, [r4, #98]
 1756              		.loc 1 518 0
 1757 0052 B4F86400 		ldrh	r0, [r4, #100]
 1758              		.loc 1 516 0
 1759 0056 891B     		subs	r1, r1, r6
 1760              		.loc 1 517 0
 1761 0058 521B     		subs	r2, r2, r5
 1762              		.loc 1 518 0
 1763 005a 1B1A     		subs	r3, r3, r0
 1764              		.loc 1 516 0
 1765 005c 2185     		strh	r1, [r4, #40]	@ movhi
 1766              		.loc 1 517 0
 1767 005e 6285     		strh	r2, [r4, #42]	@ movhi
ARM GAS  /tmp/ccoI4Tqz.s 			page 32


 1768              		.loc 1 518 0
 1769 0060 A385     		strh	r3, [r4, #44]	@ movhi
 1770              	.L127:
 1771              	.LBE318:
 1772              		.loc 1 520 0
 1773 0062 05B0     		add	sp, sp, #20
 1774              		.cfi_def_cfa_offset 20
 1775              		@ sp needed
 1776 0064 F0BD     		pop	{r4, r5, r6, r7, pc}
 1777              		.cfi_endproc
 1778              	.LFE30:
 1779              		.fnend
 1780              		.size	_ZN7LSM9DS18readGyroEv, .-_ZN7LSM9DS18readGyroEv
 1781 0066 00BF     		.section	.text._ZN7LSM9DS18readGyroE12lsm9ds1_axis,"ax",%progbits
 1782              		.align	2
 1783              		.p2align 4,,15
 1784              		.global	_ZN7LSM9DS18readGyroE12lsm9ds1_axis
 1785              		.thumb
 1786              		.thumb_func
 1787              		.type	_ZN7LSM9DS18readGyroE12lsm9ds1_axis, %function
 1788              	_ZN7LSM9DS18readGyroE12lsm9ds1_axis:
 1789              		.fnstart
 1790              	.LFB31:
 1791              		.loc 1 522 0
 1792              		.cfi_startproc
 1793              		@ args = 0, pretend = 0, frame = 8
 1794              		@ frame_needed = 0, uses_anonymous_args = 0
 1795              	.LVL163:
 1796 0000 30B5     		push	{r4, r5, lr}
 1797              		.save {r4, r5, lr}
 1798              		.cfi_def_cfa_offset 12
 1799              		.cfi_offset 4, -12
 1800              		.cfi_offset 5, -8
 1801              		.cfi_offset 14, -4
 1802 0002 0446     		mov	r4, r0
 1803              	.LVL164:
 1804              	.LBB321:
 1805              		.loc 1 526 0
 1806 0004 01F10C02 		add	r2, r1, #12
 1807              	.LBE321:
 1808              		.loc 1 522 0
 1809              		.pad #20
 1810 0008 85B0     		sub	sp, sp, #20
 1811              		.cfi_def_cfa_offset 32
 1812              	.LVL165:
 1813              	.LBB328:
 1814              	.LBB322:
 1815              	.LBB323:
 1816              		.loc 1 899 0
 1817 000a 0223     		movs	r3, #2
 1818              	.LBE323:
 1819              	.LBE322:
 1820              		.loc 1 526 0
 1821 000c 5200     		lsls	r2, r2, #1
 1822              	.LBB326:
 1823              	.LBB324:
 1824              		.loc 1 899 0
ARM GAS  /tmp/ccoI4Tqz.s 			page 33


 1825 000e D0F88400 		ldr	r0, [r0, #132]
 1826              	.LVL166:
 1827 0012 02F0FE02 		and	r2, r2, #254
 1828              	.LBE324:
 1829              	.LBE326:
 1830              	.LBE328:
 1831              		.loc 1 522 0
 1832 0016 0D46     		mov	r5, r1
 1833              	.LBB329:
 1834              	.LBB327:
 1835              	.LBB325:
 1836              		.loc 1 899 0
 1837 0018 94F87310 		ldrb	r1, [r4, #115]	@ zero_extendqisi2
 1838              	.LVL167:
 1839 001c 0093     		str	r3, [sp]
 1840 001e 03AB     		add	r3, sp, #12
 1841              	.LVL168:
 1842 0020 FFF7FEFF 		bl	_ZN7creator3I2C9ReadBytesEhhPhh
 1843              	.LVL169:
 1844              	.LBE325:
 1845              	.LBE327:
 1846              		.loc 1 528 0
 1847 0024 9DF80D00 		ldrb	r0, [sp, #13]	@ zero_extendqisi2
 1848 0028 9DF80C30 		ldrb	r3, [sp, #12]	@ zero_extendqisi2
 1849              		.loc 1 530 0
 1850 002c 94F88020 		ldrb	r2, [r4, #128]	@ zero_extendqisi2
 1851              		.loc 1 528 0
 1852 0030 43EA0020 		orr	r0, r3, r0, lsl #8
 1853              	.LVL170:
 1854              		.loc 1 530 0
 1855 0034 22B1     		cbz	r2, .L134
 1856              		.loc 1 530 0 is_stmt 0 discriminator 1
 1857 0036 3035     		adds	r5, r5, #48
 1858 0038 34F81530 		ldrh	r3, [r4, r5, lsl #1]
 1859 003c C01A     		subs	r0, r0, r3
 1860              	.LVL171:
 1861 003e 80B2     		uxth	r0, r0
 1862              	.LVL172:
 1863              	.L134:
 1864              	.LBE329:
 1865              		.loc 1 533 0 is_stmt 1
 1866 0040 00B2     		sxth	r0, r0
 1867 0042 05B0     		add	sp, sp, #20
 1868              		.cfi_def_cfa_offset 12
 1869              		@ sp needed
 1870 0044 30BD     		pop	{r4, r5, pc}
 1871              		.cfi_endproc
 1872              	.LFE31:
 1873              		.fnend
 1874              		.size	_ZN7LSM9DS18readGyroE12lsm9ds1_axis, .-_ZN7LSM9DS18readGyroE12lsm9ds1_axis
 1875 0046 00BF     		.section	.text._ZN7LSM9DS18calcGyroEs,"ax",%progbits
 1876              		.align	2
 1877              		.p2align 4,,15
 1878              		.global	_ZN7LSM9DS18calcGyroEs
 1879              		.thumb
 1880              		.thumb_func
 1881              		.type	_ZN7LSM9DS18calcGyroEs, %function
ARM GAS  /tmp/ccoI4Tqz.s 			page 34


 1882              	_ZN7LSM9DS18calcGyroEs:
 1883              		.fnstart
 1884              	.LFB32:
 1885              		.loc 1 535 0
 1886              		.cfi_startproc
 1887              		@ args = 0, pretend = 0, frame = 0
 1888              		@ frame_needed = 0, uses_anonymous_args = 0
 1889              	.LVL173:
 1890 0000 10B5     		push	{r4, lr}
 1891              		.cfi_def_cfa_offset 8
 1892              		.cfi_offset 4, -8
 1893              		.cfi_offset 14, -4
 1894              		.loc 1 535 0
 1895 0002 0446     		mov	r4, r0
 1896              		.loc 1 537 0
 1897 0004 0846     		mov	r0, r1
 1898              	.LVL174:
 1899 0006 FFF7FEFF 		bl	__aeabi_i2f
 1900              	.LVL175:
 1901 000a 616F     		ldr	r1, [r4, #116]	@ float
 1902 000c FFF7FEFF 		bl	__aeabi_fmul
 1903              	.LVL176:
 1904              		.loc 1 538 0
 1905 0010 10BD     		pop	{r4, pc}
 1906              		.cfi_endproc
 1907              	.LFE32:
 1908              		.cantunwind
 1909              		.fnend
 1910              		.size	_ZN7LSM9DS18calcGyroEs, .-_ZN7LSM9DS18calcGyroEs
 1911 0012 00BF     		.section	.text._ZN7LSM9DS19calcAccelEs,"ax",%progbits
 1912              		.align	2
 1913              		.p2align 4,,15
 1914              		.global	_ZN7LSM9DS19calcAccelEs
 1915              		.thumb
 1916              		.thumb_func
 1917              		.type	_ZN7LSM9DS19calcAccelEs, %function
 1918              	_ZN7LSM9DS19calcAccelEs:
 1919              		.fnstart
 1920              	.LFB33:
 1921              		.loc 1 540 0
 1922              		.cfi_startproc
 1923              		@ args = 0, pretend = 0, frame = 0
 1924              		@ frame_needed = 0, uses_anonymous_args = 0
 1925              	.LVL177:
 1926 0000 10B5     		push	{r4, lr}
 1927              		.cfi_def_cfa_offset 8
 1928              		.cfi_offset 4, -8
 1929              		.cfi_offset 14, -4
 1930              		.loc 1 540 0
 1931 0002 0446     		mov	r4, r0
 1932              		.loc 1 542 0
 1933 0004 0846     		mov	r0, r1
 1934              	.LVL178:
 1935 0006 FFF7FEFF 		bl	__aeabi_i2f
 1936              	.LVL179:
 1937 000a A16F     		ldr	r1, [r4, #120]	@ float
 1938 000c FFF7FEFF 		bl	__aeabi_fmul
ARM GAS  /tmp/ccoI4Tqz.s 			page 35


 1939              	.LVL180:
 1940              		.loc 1 543 0
 1941 0010 10BD     		pop	{r4, pc}
 1942              		.cfi_endproc
 1943              	.LFE33:
 1944              		.cantunwind
 1945              		.fnend
 1946              		.size	_ZN7LSM9DS19calcAccelEs, .-_ZN7LSM9DS19calcAccelEs
 1947 0012 00BF     		.section	.text._ZN7LSM9DS17calcMagEs,"ax",%progbits
 1948              		.align	2
 1949              		.p2align 4,,15
 1950              		.global	_ZN7LSM9DS17calcMagEs
 1951              		.thumb
 1952              		.thumb_func
 1953              		.type	_ZN7LSM9DS17calcMagEs, %function
 1954              	_ZN7LSM9DS17calcMagEs:
 1955              		.fnstart
 1956              	.LFB34:
 1957              		.loc 1 545 0
 1958              		.cfi_startproc
 1959              		@ args = 0, pretend = 0, frame = 0
 1960              		@ frame_needed = 0, uses_anonymous_args = 0
 1961              	.LVL181:
 1962 0000 10B5     		push	{r4, lr}
 1963              		.cfi_def_cfa_offset 8
 1964              		.cfi_offset 4, -8
 1965              		.cfi_offset 14, -4
 1966              		.loc 1 545 0
 1967 0002 0446     		mov	r4, r0
 1968              		.loc 1 547 0
 1969 0004 0846     		mov	r0, r1
 1970              	.LVL182:
 1971 0006 FFF7FEFF 		bl	__aeabi_i2f
 1972              	.LVL183:
 1973 000a E16F     		ldr	r1, [r4, #124]	@ float
 1974 000c FFF7FEFF 		bl	__aeabi_fmul
 1975              	.LVL184:
 1976              		.loc 1 548 0
 1977 0010 10BD     		pop	{r4, pc}
 1978              		.cfi_endproc
 1979              	.LFE34:
 1980              		.cantunwind
 1981              		.fnend
 1982              		.size	_ZN7LSM9DS17calcMagEs, .-_ZN7LSM9DS17calcMagEs
 1983              		.global	__aeabi_ui2f
 1984 0012 00BF     		.section	.text._ZN7LSM9DS112setGyroScaleEt,"ax",%progbits
 1985              		.align	2
 1986              		.p2align 4,,15
 1987              		.global	_ZN7LSM9DS112setGyroScaleEt
 1988              		.thumb
 1989              		.thumb_func
 1990              		.type	_ZN7LSM9DS112setGyroScaleEt, %function
 1991              	_ZN7LSM9DS112setGyroScaleEt:
 1992              		.fnstart
 1993              	.LFB35:
 1994              		.loc 1 550 0
 1995              		.cfi_startproc
ARM GAS  /tmp/ccoI4Tqz.s 			page 36


 1996              		@ args = 0, pretend = 0, frame = 0
 1997              		@ frame_needed = 0, uses_anonymous_args = 0
 1998              	.LVL185:
 1999 0000 38B5     		push	{r3, r4, r5, lr}
 2000              		.save {r3, r4, r5, lr}
 2001              		.cfi_def_cfa_offset 16
 2002              		.cfi_offset 3, -16
 2003              		.cfi_offset 4, -12
 2004              		.cfi_offset 5, -8
 2005              		.cfi_offset 14, -4
 2006              		.loc 1 550 0
 2007 0002 0446     		mov	r4, r0
 2008              	.LVL186:
 2009 0004 0D46     		mov	r5, r1
 2010              	.LBB330:
 2011              	.LBB331:
 2012              	.LBB332:
 2013              		.loc 1 895 0
 2014 0006 D0F88400 		ldr	r0, [r0, #132]
 2015              	.LVL187:
 2016 000a 94F87310 		ldrb	r1, [r4, #115]	@ zero_extendqisi2
 2017              	.LVL188:
 2018 000e 1022     		movs	r2, #16
 2019 0010 FFF7FEFF 		bl	_ZN7creator3I2C8ReadByteEhh
 2020              	.LVL189:
 2021              	.LBE332:
 2022              	.LBE331:
 2023              		.loc 1 555 0
 2024 0014 B5F5FA7F 		cmp	r5, #500
 2025              		.loc 1 554 0
 2026 0018 00F0E703 		and	r3, r0, #231
 2027              	.LVL190:
 2028              		.loc 1 555 0
 2029 001c 18D0     		beq	.L147
 2030 001e B5F5FA6F 		cmp	r5, #2000
 2031 0022 11D0     		beq	.L148
 2032              		.loc 1 565 0
 2033 0024 F522     		movs	r2, #245
 2034 0026 E280     		strh	r2, [r4, #6]	@ movhi
 2035              	.L149:
 2036              	.LVL191:
 2037              	.LBB333:
 2038              	.LBB334:
 2039              		.loc 1 887 0
 2040 0028 94F87310 		ldrb	r1, [r4, #115]	@ zero_extendqisi2
 2041 002c 1022     		movs	r2, #16
 2042 002e D4F88400 		ldr	r0, [r4, #132]
 2043 0032 FFF7FEFF 		bl	_ZN7creator3I2C9WriteByteEhhh
 2044              	.LVL192:
 2045              	.LBE334:
 2046              	.LBE333:
 2047              	.LBB335:
 2048              	.LBB336:
 2049              		.loc 1 678 0
 2050 0036 E088     		ldrh	r0, [r4, #6]
 2051 0038 FFF7FEFF 		bl	__aeabi_ui2f
 2052              	.LVL193:
ARM GAS  /tmp/ccoI4Tqz.s 			page 37


 2053 003c 4FF06051 		mov	r1, #939524096
 2054 0040 FFF7FEFF 		bl	__aeabi_fmul
 2055              	.LVL194:
 2056 0044 6067     		str	r0, [r4, #116]	@ float
 2057 0046 38BD     		pop	{r3, r4, r5, pc}
 2058              	.LVL195:
 2059              	.L148:
 2060              	.LBE336:
 2061              	.LBE335:
 2062              		.loc 1 561 0
 2063 0048 43F01803 		orr	r3, r3, #24
 2064              	.LVL196:
 2065              		.loc 1 562 0
 2066 004c E580     		strh	r5, [r4, #6]	@ movhi
 2067              		.loc 1 563 0
 2068 004e EBE7     		b	.L149
 2069              	.L147:
 2070              		.loc 1 557 0
 2071 0050 43F00803 		orr	r3, r3, #8
 2072              	.LVL197:
 2073              		.loc 1 558 0
 2074 0054 E580     		strh	r5, [r4, #6]	@ movhi
 2075              		.loc 1 559 0
 2076 0056 E7E7     		b	.L149
 2077              	.LBE330:
 2078              		.cfi_endproc
 2079              	.LFE35:
 2080              		.fnend
 2081              		.size	_ZN7LSM9DS112setGyroScaleEt, .-_ZN7LSM9DS112setGyroScaleEt
 2082              		.section	.text._ZN7LSM9DS113setAccelScaleEh,"ax",%progbits
 2083              		.align	2
 2084              		.p2align 4,,15
 2085              		.global	_ZN7LSM9DS113setAccelScaleEh
 2086              		.thumb
 2087              		.thumb_func
 2088              		.type	_ZN7LSM9DS113setAccelScaleEh, %function
 2089              	_ZN7LSM9DS113setAccelScaleEh:
 2090              		.fnstart
 2091              	.LFB36:
 2092              		.loc 1 573 0
 2093              		.cfi_startproc
 2094              		@ args = 0, pretend = 0, frame = 0
 2095              		@ frame_needed = 0, uses_anonymous_args = 0
 2096              	.LVL198:
 2097 0000 38B5     		push	{r3, r4, r5, lr}
 2098              		.save {r3, r4, r5, lr}
 2099              		.cfi_def_cfa_offset 16
 2100              		.cfi_offset 3, -16
 2101              		.cfi_offset 4, -12
 2102              		.cfi_offset 5, -8
 2103              		.cfi_offset 14, -4
 2104              		.loc 1 573 0
 2105 0002 0446     		mov	r4, r0
 2106              	.LVL199:
 2107 0004 0D46     		mov	r5, r1
 2108              	.LBB337:
 2109              	.LBB338:
ARM GAS  /tmp/ccoI4Tqz.s 			page 38


 2110              	.LBB339:
 2111              		.loc 1 895 0
 2112 0006 D0F88400 		ldr	r0, [r0, #132]
 2113              	.LVL200:
 2114 000a 94F87310 		ldrb	r1, [r4, #115]	@ zero_extendqisi2
 2115              	.LVL201:
 2116 000e 2022     		movs	r2, #32
 2117 0010 FFF7FEFF 		bl	_ZN7creator3I2C8ReadByteEhh
 2118              	.LVL202:
 2119              	.LBE339:
 2120              	.LBE338:
 2121              		.loc 1 579 0
 2122 0014 082D     		cmp	r5, #8
 2123              		.loc 1 577 0
 2124 0016 00F0E703 		and	r3, r0, #231
 2125              	.LVL203:
 2126              		.loc 1 579 0
 2127 001a 1DD0     		beq	.L155
 2128 001c 102D     		cmp	r5, #16
 2129 001e 17D0     		beq	.L156
 2130 0020 042D     		cmp	r5, #4
 2131 0022 11D0     		beq	.L161
 2132              		.loc 1 593 0
 2133 0024 0222     		movs	r2, #2
 2134 0026 E275     		strb	r2, [r4, #23]
 2135              	.L158:
 2136              	.LVL204:
 2137              	.LBB340:
 2138              	.LBB341:
 2139              		.loc 1 887 0
 2140 0028 94F87310 		ldrb	r1, [r4, #115]	@ zero_extendqisi2
 2141 002c 2022     		movs	r2, #32
 2142 002e D4F88400 		ldr	r0, [r4, #132]
 2143 0032 FFF7FEFF 		bl	_ZN7creator3I2C9WriteByteEhhh
 2144              	.LVL205:
 2145              	.LBE341:
 2146              	.LBE340:
 2147              	.LBB342:
 2148              	.LBB343:
 2149              		.loc 1 680 0
 2150 0036 E07D     		ldrb	r0, [r4, #23]	@ zero_extendqisi2
 2151 0038 FFF7FEFF 		bl	__aeabi_ui2f
 2152              	.LVL206:
 2153 003c 4FF06051 		mov	r1, #939524096
 2154 0040 FFF7FEFF 		bl	__aeabi_fmul
 2155              	.LVL207:
 2156 0044 A067     		str	r0, [r4, #120]	@ float
 2157 0046 38BD     		pop	{r3, r4, r5, pc}
 2158              	.LVL208:
 2159              	.L161:
 2160              	.LBE343:
 2161              	.LBE342:
 2162              		.loc 1 581 0
 2163 0048 43F01003 		orr	r3, r3, #16
 2164              	.LVL209:
 2165              		.loc 1 582 0
 2166 004c E575     		strb	r5, [r4, #23]
ARM GAS  /tmp/ccoI4Tqz.s 			page 39


 2167              		.loc 1 583 0
 2168 004e EBE7     		b	.L158
 2169              	.L156:
 2170              		.loc 1 589 0
 2171 0050 43F00803 		orr	r3, r3, #8
 2172              	.LVL210:
 2173              		.loc 1 590 0
 2174 0054 E575     		strb	r5, [r4, #23]
 2175              		.loc 1 591 0
 2176 0056 E7E7     		b	.L158
 2177              	.L155:
 2178              		.loc 1 585 0
 2179 0058 43F01803 		orr	r3, r3, #24
 2180              	.LVL211:
 2181              		.loc 1 586 0
 2182 005c E575     		strb	r5, [r4, #23]
 2183              		.loc 1 587 0
 2184 005e E3E7     		b	.L158
 2185              	.LBE337:
 2186              		.cfi_endproc
 2187              	.LFE36:
 2188              		.fnend
 2189              		.size	_ZN7LSM9DS113setAccelScaleEh, .-_ZN7LSM9DS113setAccelScaleEh
 2190              		.section	.text._ZN7LSM9DS110setGyroODREh,"ax",%progbits
 2191              		.align	2
 2192              		.p2align 4,,15
 2193              		.global	_ZN7LSM9DS110setGyroODREh
 2194              		.thumb
 2195              		.thumb_func
 2196              		.type	_ZN7LSM9DS110setGyroODREh, %function
 2197              	_ZN7LSM9DS110setGyroODREh:
 2198              		.fnstart
 2199              	.LFB38:
 2200              		.loc 1 636 0
 2201              		.cfi_startproc
 2202              		@ args = 0, pretend = 0, frame = 0
 2203              		@ frame_needed = 0, uses_anonymous_args = 0
 2204              	.LVL212:
 2205 0000 70B5     		push	{r4, r5, r6, lr}
 2206              		.save {r4, r5, r6, lr}
 2207              		.cfi_def_cfa_offset 16
 2208              		.cfi_offset 4, -16
 2209              		.cfi_offset 5, -12
 2210              		.cfi_offset 6, -8
 2211              		.cfi_offset 14, -4
 2212              	.LBB344:
 2213              		.loc 1 638 0
 2214 0002 11F00706 		ands	r6, r1, #7
 2215 0006 00D1     		bne	.L165
 2216 0008 70BD     		pop	{r4, r5, r6, pc}
 2217              	.L165:
 2218              	.LVL213:
 2219 000a 0546     		mov	r5, r0
 2220 000c 0C46     		mov	r4, r1
 2221              	.LBB345:
 2222              	.LBB346:
 2223              	.LBB347:
ARM GAS  /tmp/ccoI4Tqz.s 			page 40


 2224              		.loc 1 895 0
 2225 000e 1022     		movs	r2, #16
 2226 0010 95F87310 		ldrb	r1, [r5, #115]	@ zero_extendqisi2
 2227              	.LVL214:
 2228 0014 D0F88400 		ldr	r0, [r0, #132]
 2229              	.LVL215:
 2230 0018 FFF7FEFF 		bl	_ZN7creator3I2C8ReadByteEhh
 2231              	.LVL216:
 2232              	.LBE347:
 2233              	.LBE346:
 2234              		.loc 1 642 0
 2235 001c 00F01F00 		and	r0, r0, #31
 2236              	.LVL217:
 2237              		.loc 1 643 0
 2238 0020 40EA4413 		orr	r3, r0, r4, lsl #5
 2239              	.LVL218:
 2240              		.loc 1 645 0
 2241 0024 2E72     		strb	r6, [r5, #8]
 2242              	.LVL219:
 2243              	.LBB348:
 2244              	.LBB349:
 2245              		.loc 1 887 0
 2246 0026 D5F88400 		ldr	r0, [r5, #132]
 2247 002a 95F87310 		ldrb	r1, [r5, #115]	@ zero_extendqisi2
 2248 002e DBB2     		uxtb	r3, r3
 2249              	.LVL220:
 2250 0030 1022     		movs	r2, #16
 2251              	.LBE349:
 2252              	.LBE348:
 2253              	.LBE345:
 2254              	.LBE344:
 2255              		.loc 1 649 0
 2256 0032 BDE87040 		pop	{r4, r5, r6, lr}
 2257              		.cfi_restore 14
 2258              		.cfi_restore 6
 2259              		.cfi_restore 5
 2260              		.cfi_restore 4
 2261              		.cfi_def_cfa_offset 0
 2262              	.LVL221:
 2263              	.LBB353:
 2264              	.LBB352:
 2265              	.LBB351:
 2266              	.LBB350:
 2267              		.loc 1 887 0
 2268 0036 FFF7FEBF 		b	_ZN7creator3I2C9WriteByteEhhh
 2269              	.LVL222:
 2270              	.LBE350:
 2271              	.LBE351:
 2272              	.LBE352:
 2273              	.LBE353:
 2274              		.cfi_endproc
 2275              	.LFE38:
 2276              		.fnend
 2277              		.size	_ZN7LSM9DS110setGyroODREh, .-_ZN7LSM9DS110setGyroODREh
 2278 003a 00BF     		.section	.text._ZN7LSM9DS111setAccelODREh,"ax",%progbits
 2279              		.align	2
 2280              		.p2align 4,,15
ARM GAS  /tmp/ccoI4Tqz.s 			page 41


 2281              		.global	_ZN7LSM9DS111setAccelODREh
 2282              		.thumb
 2283              		.thumb_func
 2284              		.type	_ZN7LSM9DS111setAccelODREh, %function
 2285              	_ZN7LSM9DS111setAccelODREh:
 2286              		.fnstart
 2287              	.LFB39:
 2288              		.loc 1 651 0
 2289              		.cfi_startproc
 2290              		@ args = 0, pretend = 0, frame = 0
 2291              		@ frame_needed = 0, uses_anonymous_args = 0
 2292              	.LVL223:
 2293 0000 70B5     		push	{r4, r5, r6, lr}
 2294              		.save {r4, r5, r6, lr}
 2295              		.cfi_def_cfa_offset 16
 2296              		.cfi_offset 4, -16
 2297              		.cfi_offset 5, -12
 2298              		.cfi_offset 6, -8
 2299              		.cfi_offset 14, -4
 2300              	.LBB354:
 2301              		.loc 1 653 0
 2302 0002 11F00706 		ands	r6, r1, #7
 2303 0006 00D1     		bne	.L169
 2304 0008 70BD     		pop	{r4, r5, r6, pc}
 2305              	.L169:
 2306              	.LVL224:
 2307 000a 0546     		mov	r5, r0
 2308 000c 0C46     		mov	r4, r1
 2309              	.LBB355:
 2310              	.LBB356:
 2311              	.LBB357:
 2312              		.loc 1 895 0
 2313 000e 2022     		movs	r2, #32
 2314 0010 95F87310 		ldrb	r1, [r5, #115]	@ zero_extendqisi2
 2315              	.LVL225:
 2316 0014 D0F88400 		ldr	r0, [r0, #132]
 2317              	.LVL226:
 2318 0018 FFF7FEFF 		bl	_ZN7creator3I2C8ReadByteEhh
 2319              	.LVL227:
 2320              	.LBE357:
 2321              	.LBE356:
 2322              		.loc 1 657 0
 2323 001c 00F01F00 		and	r0, r0, #31
 2324              	.LVL228:
 2325              		.loc 1 659 0
 2326 0020 40EA4413 		orr	r3, r0, r4, lsl #5
 2327              	.LVL229:
 2328              		.loc 1 660 0
 2329 0024 2E76     		strb	r6, [r5, #24]
 2330              	.LVL230:
 2331              	.LBB358:
 2332              	.LBB359:
 2333              		.loc 1 887 0
 2334 0026 D5F88400 		ldr	r0, [r5, #132]
 2335 002a 95F87310 		ldrb	r1, [r5, #115]	@ zero_extendqisi2
 2336 002e DBB2     		uxtb	r3, r3
 2337              	.LVL231:
ARM GAS  /tmp/ccoI4Tqz.s 			page 42


 2338 0030 2022     		movs	r2, #32
 2339              	.LBE359:
 2340              	.LBE358:
 2341              	.LBE355:
 2342              	.LBE354:
 2343              		.loc 1 664 0
 2344 0032 BDE87040 		pop	{r4, r5, r6, lr}
 2345              		.cfi_restore 14
 2346              		.cfi_restore 6
 2347              		.cfi_restore 5
 2348              		.cfi_restore 4
 2349              		.cfi_def_cfa_offset 0
 2350              	.LVL232:
 2351              	.LBB363:
 2352              	.LBB362:
 2353              	.LBB361:
 2354              	.LBB360:
 2355              		.loc 1 887 0
 2356 0036 FFF7FEBF 		b	_ZN7creator3I2C9WriteByteEhhh
 2357              	.LVL233:
 2358              	.LBE360:
 2359              	.LBE361:
 2360              	.LBE362:
 2361              	.LBE363:
 2362              		.cfi_endproc
 2363              	.LFE39:
 2364              		.fnend
 2365              		.size	_ZN7LSM9DS111setAccelODREh, .-_ZN7LSM9DS111setAccelODREh
 2366 003a 00BF     		.section	.text._ZN7LSM9DS19setMagODREh,"ax",%progbits
 2367              		.align	2
 2368              		.p2align 4,,15
 2369              		.global	_ZN7LSM9DS19setMagODREh
 2370              		.thumb
 2371              		.thumb_func
 2372              		.type	_ZN7LSM9DS19setMagODREh, %function
 2373              	_ZN7LSM9DS19setMagODREh:
 2374              		.fnstart
 2375              	.LFB40:
 2376              		.loc 1 666 0
 2377              		.cfi_startproc
 2378              		@ args = 0, pretend = 0, frame = 0
 2379              		@ frame_needed = 0, uses_anonymous_args = 0
 2380              	.LVL234:
 2381 0000 70B5     		push	{r4, r5, r6, lr}
 2382              		.save {r4, r5, r6, lr}
 2383              		.cfi_def_cfa_offset 16
 2384              		.cfi_offset 4, -16
 2385              		.cfi_offset 5, -12
 2386              		.cfi_offset 6, -8
 2387              		.cfi_offset 14, -4
 2388              		.loc 1 666 0
 2389 0002 0446     		mov	r4, r0
 2390              	.LVL235:
 2391 0004 0D46     		mov	r5, r1
 2392              	.LBB364:
 2393              	.LBB365:
 2394              	.LBB366:
ARM GAS  /tmp/ccoI4Tqz.s 			page 43


 2395              		.loc 1 903 0
 2396 0006 2022     		movs	r2, #32
 2397 0008 94F87210 		ldrb	r1, [r4, #114]	@ zero_extendqisi2
 2398              	.LVL236:
 2399 000c D0F88400 		ldr	r0, [r0, #132]
 2400              	.LVL237:
 2401 0010 FFF7FEFF 		bl	_ZN7creator3I2C8ReadByteEhh
 2402              	.LVL238:
 2403              	.LBE366:
 2404              	.LBE365:
 2405              		.loc 1 672 0
 2406 0014 05F00701 		and	r1, r5, #7
 2407              		.loc 1 670 0
 2408 0018 20F01C00 		bic	r0, r0, #28
 2409              	.LVL239:
 2410              		.loc 1 672 0
 2411 001c 40EA8103 		orr	r3, r0, r1, lsl #2
 2412              	.LVL240:
 2413              		.loc 1 673 0
 2414 0020 84F82110 		strb	r1, [r4, #33]
 2415              	.LVL241:
 2416              	.LBB367:
 2417              	.LBB368:
 2418              		.loc 1 891 0
 2419 0024 D4F88400 		ldr	r0, [r4, #132]
 2420 0028 94F87210 		ldrb	r1, [r4, #114]	@ zero_extendqisi2
 2421 002c DBB2     		uxtb	r3, r3
 2422              	.LVL242:
 2423 002e 2022     		movs	r2, #32
 2424              	.LBE368:
 2425              	.LBE367:
 2426              	.LBE364:
 2427              		.loc 1 676 0
 2428 0030 BDE87040 		pop	{r4, r5, r6, lr}
 2429              		.cfi_restore 14
 2430              		.cfi_restore 6
 2431              		.cfi_restore 5
 2432              		.cfi_restore 4
 2433              		.cfi_def_cfa_offset 0
 2434              	.LVL243:
 2435              	.LBB371:
 2436              	.LBB370:
 2437              	.LBB369:
 2438              		.loc 1 891 0
 2439 0034 FFF7FEBF 		b	_ZN7creator3I2C9WriteByteEhhh
 2440              	.LVL244:
 2441              	.LBE369:
 2442              	.LBE370:
 2443              	.LBE371:
 2444              		.cfi_endproc
 2445              	.LFE40:
 2446              		.fnend
 2447              		.size	_ZN7LSM9DS19setMagODREh, .-_ZN7LSM9DS19setMagODREh
 2448              		.section	.text._ZN7LSM9DS18calcgResEv,"ax",%progbits
 2449              		.align	2
 2450              		.p2align 4,,15
 2451              		.global	_ZN7LSM9DS18calcgResEv
ARM GAS  /tmp/ccoI4Tqz.s 			page 44


 2452              		.thumb
 2453              		.thumb_func
 2454              		.type	_ZN7LSM9DS18calcgResEv, %function
 2455              	_ZN7LSM9DS18calcgResEv:
 2456              		.fnstart
 2457              	.LFB41:
 2458              		.loc 1 678 0
 2459              		.cfi_startproc
 2460              		@ args = 0, pretend = 0, frame = 0
 2461              		@ frame_needed = 0, uses_anonymous_args = 0
 2462              	.LVL245:
 2463 0000 10B5     		push	{r4, lr}
 2464              		.cfi_def_cfa_offset 8
 2465              		.cfi_offset 4, -8
 2466              		.cfi_offset 14, -4
 2467              		.loc 1 678 0
 2468 0002 0446     		mov	r4, r0
 2469 0004 C088     		ldrh	r0, [r0, #6]
 2470              	.LVL246:
 2471 0006 FFF7FEFF 		bl	__aeabi_ui2f
 2472              	.LVL247:
 2473 000a 4FF06051 		mov	r1, #939524096
 2474 000e FFF7FEFF 		bl	__aeabi_fmul
 2475              	.LVL248:
 2476 0012 6067     		str	r0, [r4, #116]	@ float
 2477 0014 10BD     		pop	{r4, pc}
 2478              		.cfi_endproc
 2479              	.LFE41:
 2480              		.cantunwind
 2481              		.fnend
 2482              		.size	_ZN7LSM9DS18calcgResEv, .-_ZN7LSM9DS18calcgResEv
 2483 0016 00BF     		.section	.text._ZN7LSM9DS18calcaResEv,"ax",%progbits
 2484              		.align	2
 2485              		.p2align 4,,15
 2486              		.global	_ZN7LSM9DS18calcaResEv
 2487              		.thumb
 2488              		.thumb_func
 2489              		.type	_ZN7LSM9DS18calcaResEv, %function
 2490              	_ZN7LSM9DS18calcaResEv:
 2491              		.fnstart
 2492              	.LFB42:
 2493              		.loc 1 680 0
 2494              		.cfi_startproc
 2495              		@ args = 0, pretend = 0, frame = 0
 2496              		@ frame_needed = 0, uses_anonymous_args = 0
 2497              	.LVL249:
 2498 0000 10B5     		push	{r4, lr}
 2499              		.cfi_def_cfa_offset 8
 2500              		.cfi_offset 4, -8
 2501              		.cfi_offset 14, -4
 2502              		.loc 1 680 0
 2503 0002 0446     		mov	r4, r0
 2504 0004 C07D     		ldrb	r0, [r0, #23]	@ zero_extendqisi2
 2505              	.LVL250:
 2506 0006 FFF7FEFF 		bl	__aeabi_ui2f
 2507              	.LVL251:
 2508 000a 4FF06051 		mov	r1, #939524096
ARM GAS  /tmp/ccoI4Tqz.s 			page 45


 2509 000e FFF7FEFF 		bl	__aeabi_fmul
 2510              	.LVL252:
 2511 0012 A067     		str	r0, [r4, #120]	@ float
 2512 0014 10BD     		pop	{r4, pc}
 2513              		.cfi_endproc
 2514              	.LFE42:
 2515              		.cantunwind
 2516              		.fnend
 2517              		.size	_ZN7LSM9DS18calcaResEv, .-_ZN7LSM9DS18calcaResEv
 2518 0016 00BF     		.section	.text._ZN7LSM9DS18calcmResEv,"ax",%progbits
 2519              		.align	2
 2520              		.p2align 4,,15
 2521              		.global	_ZN7LSM9DS18calcmResEv
 2522              		.thumb
 2523              		.thumb_func
 2524              		.type	_ZN7LSM9DS18calcmResEv, %function
 2525              	_ZN7LSM9DS18calcmResEv:
 2526              		.fnstart
 2527              	.LFB43:
 2528              		.loc 1 682 0
 2529              		.cfi_startproc
 2530              		@ args = 0, pretend = 0, frame = 0
 2531              		@ frame_needed = 0, uses_anonymous_args = 0
 2532              		@ link register save eliminated.
 2533              	.LVL253:
 2534              		.loc 1 684 0
 2535 0000 90F82030 		ldrb	r3, [r0, #32]	@ zero_extendqisi2
 2536 0004 043B     		subs	r3, r3, #4
 2537 0006 0C2B     		cmp	r3, #12
 2538 0008 0BD8     		bhi	.L176
 2539 000a DFE803F0 		tbb	[pc, r3]
 2540              	.L179:
 2541 000e 13       		.byte	(.L178-.L179)/2
 2542 000f 0A       		.byte	(.L176-.L179)/2
 2543 0010 0A       		.byte	(.L176-.L179)/2
 2544 0011 0A       		.byte	(.L176-.L179)/2
 2545 0012 0F       		.byte	(.L180-.L179)/2
 2546 0013 0A       		.byte	(.L176-.L179)/2
 2547 0014 0A       		.byte	(.L176-.L179)/2
 2548 0015 0A       		.byte	(.L176-.L179)/2
 2549 0016 0B       		.byte	(.L181-.L179)/2
 2550 0017 0A       		.byte	(.L176-.L179)/2
 2551 0018 0A       		.byte	(.L176-.L179)/2
 2552 0019 0A       		.byte	(.L176-.L179)/2
 2553 001a 07       		.byte	(.L182-.L179)/2
 2554 001b 00       		.p2align 1
 2555              	.L182:
 2556              		.loc 1 695 0
 2557 001c 074B     		ldr	r3, .L183
 2558 001e DB68     		ldr	r3, [r3, #12]	@ float
 2559 0020 C367     		str	r3, [r0, #124]	@ float
 2560              	.L176:
 2561 0022 7047     		bx	lr
 2562              	.L181:
 2563              		.loc 1 692 0
 2564 0024 054B     		ldr	r3, .L183
 2565 0026 9B68     		ldr	r3, [r3, #8]	@ float
ARM GAS  /tmp/ccoI4Tqz.s 			page 46


 2566 0028 C367     		str	r3, [r0, #124]	@ float
 2567              		.loc 1 693 0
 2568 002a 7047     		bx	lr
 2569              	.L180:
 2570              		.loc 1 689 0
 2571 002c 034B     		ldr	r3, .L183
 2572 002e 5B68     		ldr	r3, [r3, #4]	@ float
 2573 0030 C367     		str	r3, [r0, #124]	@ float
 2574              		.loc 1 690 0
 2575 0032 7047     		bx	lr
 2576              	.L178:
 2577              		.loc 1 686 0
 2578 0034 014B     		ldr	r3, .L183
 2579 0036 1B68     		ldr	r3, [r3]	@ float
 2580 0038 C367     		str	r3, [r0, #124]	@ float
 2581              		.loc 1 687 0
 2582 003a 7047     		bx	lr
 2583              	.L184:
 2584              		.align	2
 2585              	.L183:
 2586 003c 00000000 		.word	.LANCHOR1
 2587              		.cfi_endproc
 2588              	.LFE43:
 2589              		.cantunwind
 2590              		.fnend
 2591              		.size	_ZN7LSM9DS18calcmResEv, .-_ZN7LSM9DS18calcmResEv
 2592              		.section	.text._ZN7LSM9DS111setMagScaleEh,"ax",%progbits
 2593              		.align	2
 2594              		.p2align 4,,15
 2595              		.global	_ZN7LSM9DS111setMagScaleEh
 2596              		.thumb
 2597              		.thumb_func
 2598              		.type	_ZN7LSM9DS111setMagScaleEh, %function
 2599              	_ZN7LSM9DS111setMagScaleEh:
 2600              		.fnstart
 2601              	.LFB37:
 2602              		.loc 1 602 0
 2603              		.cfi_startproc
 2604              		@ args = 0, pretend = 0, frame = 0
 2605              		@ frame_needed = 0, uses_anonymous_args = 0
 2606              	.LVL254:
 2607 0000 38B5     		push	{r3, r4, r5, lr}
 2608              		.save {r3, r4, r5, lr}
 2609              		.cfi_def_cfa_offset 16
 2610              		.cfi_offset 3, -16
 2611              		.cfi_offset 4, -12
 2612              		.cfi_offset 5, -8
 2613              		.cfi_offset 14, -4
 2614              		.loc 1 602 0
 2615 0002 0446     		mov	r4, r0
 2616              	.LVL255:
 2617 0004 0D46     		mov	r5, r1
 2618              	.LBB372:
 2619              	.LBB373:
 2620              	.LBB374:
 2621              		.loc 1 903 0
 2622 0006 D0F88400 		ldr	r0, [r0, #132]
ARM GAS  /tmp/ccoI4Tqz.s 			page 47


 2623              	.LVL256:
 2624 000a 94F87210 		ldrb	r1, [r4, #114]	@ zero_extendqisi2
 2625              	.LVL257:
 2626 000e 2122     		movs	r2, #33
 2627 0010 FFF7FEFF 		bl	_ZN7creator3I2C8ReadByteEhh
 2628              	.LVL258:
 2629              	.LBE374:
 2630              	.LBE373:
 2631              		.loc 1 608 0
 2632 0014 0C2D     		cmp	r5, #12
 2633              		.loc 1 606 0
 2634 0016 00F09F03 		and	r3, r0, #159
 2635              	.LVL259:
 2636              		.loc 1 608 0
 2637 001a 1CD0     		beq	.L187
 2638 001c 102D     		cmp	r5, #16
 2639 001e 15D0     		beq	.L188
 2640 0020 082D     		cmp	r5, #8
 2641 0022 0ED0     		beq	.L193
 2642              		.loc 1 622 0
 2643 0024 0422     		movs	r2, #4
 2644 0026 84F82020 		strb	r2, [r4, #32]
 2645              	.L190:
 2646              	.LVL260:
 2647              	.LBB375:
 2648              	.LBB376:
 2649              		.loc 1 891 0
 2650 002a D4F88400 		ldr	r0, [r4, #132]
 2651 002e 94F87210 		ldrb	r1, [r4, #114]	@ zero_extendqisi2
 2652 0032 2122     		movs	r2, #33
 2653 0034 FFF7FEFF 		bl	_ZN7creator3I2C9WriteByteEhhh
 2654              	.LVL261:
 2655              	.LBE376:
 2656              	.LBE375:
 2657              		.loc 1 633 0
 2658 0038 2046     		mov	r0, r4
 2659              	.LBE372:
 2660              		.loc 1 634 0
 2661 003a BDE83840 		pop	{r3, r4, r5, lr}
 2662              		.cfi_remember_state
 2663              		.cfi_restore 14
 2664              		.cfi_restore 5
 2665              		.cfi_restore 4
 2666              		.cfi_restore 3
 2667              		.cfi_def_cfa_offset 0
 2668              	.LVL262:
 2669              	.LBB377:
 2670              		.loc 1 633 0
 2671 003e FFF7FEBF 		b	_ZN7LSM9DS18calcmResEv
 2672              	.LVL263:
 2673              	.L193:
 2674              		.cfi_restore_state
 2675              		.loc 1 610 0
 2676 0042 43F02003 		orr	r3, r3, #32
 2677              	.LVL264:
 2678              		.loc 1 611 0
 2679 0046 84F82050 		strb	r5, [r4, #32]
ARM GAS  /tmp/ccoI4Tqz.s 			page 48


 2680              		.loc 1 612 0
 2681 004a EEE7     		b	.L190
 2682              	.L188:
 2683              		.loc 1 618 0
 2684 004c 43F06003 		orr	r3, r3, #96
 2685              	.LVL265:
 2686              		.loc 1 619 0
 2687 0050 84F82050 		strb	r5, [r4, #32]
 2688              		.loc 1 620 0
 2689 0054 E9E7     		b	.L190
 2690              	.L187:
 2691              		.loc 1 614 0
 2692 0056 43F04003 		orr	r3, r3, #64
 2693              	.LVL266:
 2694              		.loc 1 615 0
 2695 005a 84F82050 		strb	r5, [r4, #32]
 2696              		.loc 1 616 0
 2697 005e E4E7     		b	.L190
 2698              	.LBE377:
 2699              		.cfi_endproc
 2700              	.LFE37:
 2701              		.fnend
 2702              		.size	_ZN7LSM9DS111setMagScaleEh, .-_ZN7LSM9DS111setMagScaleEh
 2703              		.section	.text._ZN7LSM9DS19configIntE16interrupt_selecth9h_lactive5pp_od,"ax",%progbits
 2704              		.align	2
 2705              		.p2align 4,,15
 2706              		.global	_ZN7LSM9DS19configIntE16interrupt_selecth9h_lactive5pp_od
 2707              		.thumb
 2708              		.thumb_func
 2709              		.type	_ZN7LSM9DS19configIntE16interrupt_selecth9h_lactive5pp_od, %function
 2710              	_ZN7LSM9DS19configIntE16interrupt_selecth9h_lactive5pp_od:
 2711              		.fnstart
 2712              	.LFB44:
 2713              		.loc 1 701 0
 2714              		.cfi_startproc
 2715              		@ args = 4, pretend = 0, frame = 0
 2716              		@ frame_needed = 0, uses_anonymous_args = 0
 2717              	.LVL267:
 2718 0000 70B5     		push	{r4, r5, r6, lr}
 2719              		.save {r4, r5, r6, lr}
 2720              		.cfi_def_cfa_offset 16
 2721              		.cfi_offset 4, -16
 2722              		.cfi_offset 5, -12
 2723              		.cfi_offset 6, -8
 2724              		.cfi_offset 14, -4
 2725              		.loc 1 701 0
 2726 0002 0446     		mov	r4, r0
 2727              	.LVL268:
 2728 0004 1046     		mov	r0, r2
 2729              	.LVL269:
 2730 0006 1E46     		mov	r6, r3
 2731              	.LBB378:
 2732              	.LBB379:
 2733              	.LBB380:
 2734              		.loc 1 887 0
 2735 0008 0A46     		mov	r2, r1
 2736              	.LVL270:
ARM GAS  /tmp/ccoI4Tqz.s 			page 49


 2737 000a 0346     		mov	r3, r0
 2738              	.LVL271:
 2739 000c 94F87310 		ldrb	r1, [r4, #115]	@ zero_extendqisi2
 2740              	.LVL272:
 2741 0010 D4F88400 		ldr	r0, [r4, #132]
 2742              	.LVL273:
 2743              	.LBE380:
 2744              	.LBE379:
 2745              	.LBE378:
 2746              		.loc 1 701 0
 2747 0014 9DF81050 		ldrb	r5, [sp, #16]	@ zero_extendqisi2
 2748              	.LBB389:
 2749              	.LBB382:
 2750              	.LBB381:
 2751              		.loc 1 887 0
 2752 0018 FFF7FEFF 		bl	_ZN7creator3I2C9WriteByteEhhh
 2753              	.LVL274:
 2754              	.LBE381:
 2755              	.LBE382:
 2756              	.LBB383:
 2757              	.LBB384:
 2758              		.loc 1 895 0
 2759 001c D4F88400 		ldr	r0, [r4, #132]
 2760 0020 94F87310 		ldrb	r1, [r4, #115]	@ zero_extendqisi2
 2761 0024 2222     		movs	r2, #34
 2762 0026 FFF7FEFF 		bl	_ZN7creator3I2C8ReadByteEhh
 2763              	.LVL275:
 2764              	.LBE384:
 2765              	.LBE383:
 2766              		.loc 1 712 0
 2767 002a 76B1     		cbz	r6, .L195
 2768              		.loc 1 713 0
 2769 002c 40F02003 		orr	r3, r0, #32
 2770 0030 DBB2     		uxtb	r3, r3
 2771              	.LVL276:
 2772              		.loc 1 717 0
 2773 0032 75B9     		cbnz	r5, .L200
 2774              	.L197:
 2775              		.loc 1 720 0
 2776 0034 43F01003 		orr	r3, r3, #16
 2777              	.LVL277:
 2778              	.L198:
 2779              	.LBB385:
 2780              	.LBB386:
 2781              		.loc 1 887 0
 2782 0038 D4F88400 		ldr	r0, [r4, #132]
 2783 003c 94F87310 		ldrb	r1, [r4, #115]	@ zero_extendqisi2
 2784 0040 2222     		movs	r2, #34
 2785              	.LBE386:
 2786              	.LBE385:
 2787              	.LBE389:
 2788              		.loc 1 723 0
 2789 0042 BDE87040 		pop	{r4, r5, r6, lr}
 2790              		.cfi_remember_state
 2791              		.cfi_restore 14
 2792              		.cfi_restore 6
 2793              		.cfi_restore 5
ARM GAS  /tmp/ccoI4Tqz.s 			page 50


 2794              		.cfi_restore 4
 2795              		.cfi_def_cfa_offset 0
 2796              	.LVL278:
 2797              	.LBB390:
 2798              	.LBB388:
 2799              	.LBB387:
 2800              		.loc 1 887 0
 2801 0046 FFF7FEBF 		b	_ZN7creator3I2C9WriteByteEhhh
 2802              	.LVL279:
 2803              	.L195:
 2804              		.cfi_restore_state
 2805              	.LBE387:
 2806              	.LBE388:
 2807              		.loc 1 715 0
 2808 004a 00F0DF03 		and	r3, r0, #223
 2809              	.LVL280:
 2810              		.loc 1 717 0
 2811 004e 002D     		cmp	r5, #0
 2812 0050 F0D0     		beq	.L197
 2813              	.L200:
 2814              		.loc 1 718 0
 2815 0052 03F0EF03 		and	r3, r3, #239
 2816              	.LVL281:
 2817 0056 EFE7     		b	.L198
 2818              	.LBE390:
 2819              		.cfi_endproc
 2820              	.LFE44:
 2821              		.fnend
 2822              		.size	_ZN7LSM9DS19configIntE16interrupt_selecth9h_lactive5pp_od, .-_ZN7LSM9DS19configIntE16interru
 2823              		.section	.text._ZN7LSM9DS116configInactivityEhhb,"ax",%progbits
 2824              		.align	2
 2825              		.p2align 4,,15
 2826              		.global	_ZN7LSM9DS116configInactivityEhhb
 2827              		.thumb
 2828              		.thumb_func
 2829              		.type	_ZN7LSM9DS116configInactivityEhhb, %function
 2830              	_ZN7LSM9DS116configInactivityEhhb:
 2831              		.fnstart
 2832              	.LFB45:
 2833              		.loc 1 726 0
 2834              		.cfi_startproc
 2835              		@ args = 0, pretend = 0, frame = 0
 2836              		@ frame_needed = 0, uses_anonymous_args = 0
 2837              	.LVL282:
 2838 0000 70B5     		push	{r4, r5, r6, lr}
 2839              		.save {r4, r5, r6, lr}
 2840              		.cfi_def_cfa_offset 16
 2841              		.cfi_offset 4, -16
 2842              		.cfi_offset 5, -12
 2843              		.cfi_offset 6, -8
 2844              		.cfi_offset 14, -4
 2845              	.LBB391:
 2846              		.loc 1 729 0
 2847 0002 02F07F02 		and	r2, r2, #127
 2848              	.LVL283:
 2849              	.LBE391:
 2850              		.loc 1 726 0
ARM GAS  /tmp/ccoI4Tqz.s 			page 51


 2851 0006 0446     		mov	r4, r0
 2852 0008 0D46     		mov	r5, r1
 2853              	.LBB398:
 2854              		.loc 1 730 0
 2855 000a 0BB1     		cbz	r3, .L202
 2856              		.loc 1 730 0 is_stmt 0 discriminator 1
 2857 000c 42F08002 		orr	r2, r2, #128
 2858              	.LVL284:
 2859              	.L202:
 2860              	.LBB392:
 2861              	.LBB393:
 2862              		.loc 1 887 0 is_stmt 1
 2863 0010 1346     		mov	r3, r2
 2864              	.LVL285:
 2865 0012 D4F88400 		ldr	r0, [r4, #132]
 2866              	.LVL286:
 2867 0016 94F87310 		ldrb	r1, [r4, #115]	@ zero_extendqisi2
 2868              	.LVL287:
 2869 001a 0422     		movs	r2, #4
 2870              	.LVL288:
 2871 001c FFF7FEFF 		bl	_ZN7creator3I2C9WriteByteEhhh
 2872              	.LVL289:
 2873              	.LBE393:
 2874              	.LBE392:
 2875              	.LBB394:
 2876              	.LBB395:
 2877 0020 2B46     		mov	r3, r5
 2878 0022 D4F88400 		ldr	r0, [r4, #132]
 2879 0026 94F87310 		ldrb	r1, [r4, #115]	@ zero_extendqisi2
 2880 002a 0522     		movs	r2, #5
 2881              	.LBE395:
 2882              	.LBE394:
 2883              	.LBE398:
 2884              		.loc 1 734 0
 2885 002c BDE87040 		pop	{r4, r5, r6, lr}
 2886              		.cfi_restore 14
 2887              		.cfi_restore 6
 2888              		.cfi_restore 5
 2889              		.cfi_restore 4
 2890              		.cfi_def_cfa_offset 0
 2891              	.LVL290:
 2892              	.LBB399:
 2893              	.LBB397:
 2894              	.LBB396:
 2895              		.loc 1 887 0
 2896 0030 FFF7FEBF 		b	_ZN7creator3I2C9WriteByteEhhh
 2897              	.LVL291:
 2898              	.LBE396:
 2899              	.LBE397:
 2900              	.LBE399:
 2901              		.cfi_endproc
 2902              	.LFE45:
 2903              		.fnend
 2904              		.size	_ZN7LSM9DS116configInactivityEhhb, .-_ZN7LSM9DS116configInactivityEhhb
 2905              		.section	.text._ZN7LSM9DS113getInactivityEv,"ax",%progbits
 2906              		.align	2
 2907              		.p2align 4,,15
ARM GAS  /tmp/ccoI4Tqz.s 			page 52


 2908              		.global	_ZN7LSM9DS113getInactivityEv
 2909              		.thumb
 2910              		.thumb_func
 2911              		.type	_ZN7LSM9DS113getInactivityEv, %function
 2912              	_ZN7LSM9DS113getInactivityEv:
 2913              		.fnstart
 2914              	.LFB46:
 2915              		.loc 1 736 0
 2916              		.cfi_startproc
 2917              		@ args = 0, pretend = 0, frame = 0
 2918              		@ frame_needed = 0, uses_anonymous_args = 0
 2919              	.LVL292:
 2920 0000 08B5     		push	{r3, lr}
 2921              		.save {r3, lr}
 2922              		.cfi_def_cfa_offset 8
 2923              		.cfi_offset 3, -8
 2924              		.cfi_offset 14, -4
 2925              		.loc 1 736 0
 2926 0002 0346     		mov	r3, r0
 2927              	.LVL293:
 2928              	.LBB400:
 2929              	.LBB401:
 2930              	.LBB402:
 2931              		.loc 1 895 0
 2932 0004 1722     		movs	r2, #23
 2933 0006 93F87310 		ldrb	r1, [r3, #115]	@ zero_extendqisi2
 2934 000a D0F88400 		ldr	r0, [r0, #132]
 2935              	.LVL294:
 2936 000e FFF7FEFF 		bl	_ZN7creator3I2C8ReadByteEhh
 2937              	.LVL295:
 2938              	.LBE402:
 2939              	.LBE401:
 2940              	.LBE400:
 2941              		.loc 1 740 0
 2942 0012 00F01000 		and	r0, r0, #16
 2943              	.LVL296:
 2944 0016 08BD     		pop	{r3, pc}
 2945              		.cfi_endproc
 2946              	.LFE46:
 2947              		.fnend
 2948              		.size	_ZN7LSM9DS113getInactivityEv, .-_ZN7LSM9DS113getInactivityEv
 2949              		.section	.text._ZN7LSM9DS114configAccelIntEhb,"ax",%progbits
 2950              		.align	2
 2951              		.p2align 4,,15
 2952              		.global	_ZN7LSM9DS114configAccelIntEhb
 2953              		.thumb
 2954              		.thumb_func
 2955              		.type	_ZN7LSM9DS114configAccelIntEhb, %function
 2956              	_ZN7LSM9DS114configAccelIntEhb:
 2957              		.fnstart
 2958              	.LFB47:
 2959              		.loc 1 742 0
 2960              		.cfi_startproc
 2961              		@ args = 0, pretend = 0, frame = 0
 2962              		@ frame_needed = 0, uses_anonymous_args = 0
 2963              		@ link register save eliminated.
 2964              	.LVL297:
ARM GAS  /tmp/ccoI4Tqz.s 			page 53


 2965 0000 10B4     		push	{r4}
 2966              		.cfi_def_cfa_offset 4
 2967              		.cfi_offset 4, -4
 2968              		.loc 1 742 0
 2969 0002 0B46     		mov	r3, r1
 2970              	.LVL298:
 2971 0004 0446     		mov	r4, r0
 2972              	.LBB403:
 2973              		.loc 1 746 0
 2974 0006 0AB1     		cbz	r2, .L210
 2975              		.loc 1 746 0 is_stmt 0 discriminator 1
 2976 0008 41F08003 		orr	r3, r1, #128
 2977              	.LVL299:
 2978              	.L210:
 2979              	.LBB404:
 2980              	.LBB405:
 2981              		.loc 1 887 0 is_stmt 1
 2982 000c D4F88400 		ldr	r0, [r4, #132]
 2983              	.LVL300:
 2984 0010 94F87310 		ldrb	r1, [r4, #115]	@ zero_extendqisi2
 2985              	.LVL301:
 2986 0014 0622     		movs	r2, #6
 2987              	.LVL302:
 2988              	.LBE405:
 2989              	.LBE404:
 2990              	.LBE403:
 2991              		.loc 1 748 0
 2992 0016 5DF8044B 		ldr	r4, [sp], #4
 2993              		.cfi_restore 4
 2994              		.cfi_def_cfa_offset 0
 2995              	.LVL303:
 2996              	.LBB408:
 2997              	.LBB407:
 2998              	.LBB406:
 2999              		.loc 1 887 0
 3000 001a FFF7FEBF 		b	_ZN7creator3I2C9WriteByteEhhh
 3001              	.LVL304:
 3002              	.LBE406:
 3003              	.LBE407:
 3004              	.LBE408:
 3005              		.cfi_endproc
 3006              	.LFE47:
 3007              		.cantunwind
 3008              		.fnend
 3009              		.size	_ZN7LSM9DS114configAccelIntEhb, .-_ZN7LSM9DS114configAccelIntEhb
 3010 001e 00BF     		.section	.text._ZN7LSM9DS114configAccelThsEh12lsm9ds1_axishb,"ax",%progbits
 3011              		.align	2
 3012              		.p2align 4,,15
 3013              		.global	_ZN7LSM9DS114configAccelThsEh12lsm9ds1_axishb
 3014              		.thumb
 3015              		.thumb_func
 3016              		.type	_ZN7LSM9DS114configAccelThsEh12lsm9ds1_axishb, %function
 3017              	_ZN7LSM9DS114configAccelThsEh12lsm9ds1_axishb:
 3018              		.fnstart
 3019              	.LFB48:
 3020              		.loc 1 751 0
 3021              		.cfi_startproc
ARM GAS  /tmp/ccoI4Tqz.s 			page 54


 3022              		@ args = 4, pretend = 0, frame = 0
 3023              		@ frame_needed = 0, uses_anonymous_args = 0
 3024              	.LVL305:
 3025 0000 70B5     		push	{r4, r5, r6, lr}
 3026              		.save {r4, r5, r6, lr}
 3027              		.cfi_def_cfa_offset 16
 3028              		.cfi_offset 4, -16
 3029              		.cfi_offset 5, -12
 3030              		.cfi_offset 6, -8
 3031              		.cfi_offset 14, -4
 3032              		.loc 1 751 0
 3033 0002 0546     		mov	r5, r0
 3034              	.LVL306:
 3035 0004 1C46     		mov	r4, r3
 3036              	.LBB409:
 3037              		.loc 1 754 0
 3038 0006 0732     		adds	r2, r2, #7
 3039              	.LVL307:
 3040              	.LBE409:
 3041              		.loc 1 751 0
 3042 0008 9DF81060 		ldrb	r6, [sp, #16]	@ zero_extendqisi2
 3043              	.LBB416:
 3044              	.LBB410:
 3045              	.LBB411:
 3046              		.loc 1 887 0
 3047 000c 0B46     		mov	r3, r1
 3048              	.LVL308:
 3049 000e D2B2     		uxtb	r2, r2
 3050 0010 D0F88400 		ldr	r0, [r0, #132]
 3051              	.LVL309:
 3052 0014 95F87310 		ldrb	r1, [r5, #115]	@ zero_extendqisi2
 3053              	.LVL310:
 3054 0018 FFF7FEFF 		bl	_ZN7creator3I2C9WriteByteEhhh
 3055              	.LVL311:
 3056              	.LBE411:
 3057              	.LBE410:
 3058              		.loc 1 758 0
 3059 001c 04F07F03 		and	r3, r4, #127
 3060              	.LVL312:
 3061              		.loc 1 759 0
 3062 0020 0EB1     		cbz	r6, .L216
 3063              		.loc 1 759 0 is_stmt 0 discriminator 1
 3064 0022 43F08003 		orr	r3, r3, #128
 3065              	.LVL313:
 3066              	.L216:
 3067              	.LBB412:
 3068              	.LBB413:
 3069              		.loc 1 887 0 is_stmt 1
 3070 0026 D5F88400 		ldr	r0, [r5, #132]
 3071 002a 95F87310 		ldrb	r1, [r5, #115]	@ zero_extendqisi2
 3072 002e 0A22     		movs	r2, #10
 3073              	.LBE413:
 3074              	.LBE412:
 3075              	.LBE416:
 3076              		.loc 1 761 0
 3077 0030 BDE87040 		pop	{r4, r5, r6, lr}
 3078              		.cfi_restore 14
ARM GAS  /tmp/ccoI4Tqz.s 			page 55


 3079              		.cfi_restore 6
 3080              		.cfi_restore 5
 3081              		.cfi_restore 4
 3082              		.cfi_def_cfa_offset 0
 3083              	.LVL314:
 3084              	.LBB417:
 3085              	.LBB415:
 3086              	.LBB414:
 3087              		.loc 1 887 0
 3088 0034 FFF7FEBF 		b	_ZN7creator3I2C9WriteByteEhhh
 3089              	.LVL315:
 3090              	.LBE414:
 3091              	.LBE415:
 3092              	.LBE417:
 3093              		.cfi_endproc
 3094              	.LFE48:
 3095              		.fnend
 3096              		.size	_ZN7LSM9DS114configAccelThsEh12lsm9ds1_axishb, .-_ZN7LSM9DS114configAccelThsEh12lsm9ds1_axis
 3097              		.section	.text._ZN7LSM9DS114getAccelIntSrcEv,"ax",%progbits
 3098              		.align	2
 3099              		.p2align 4,,15
 3100              		.global	_ZN7LSM9DS114getAccelIntSrcEv
 3101              		.thumb
 3102              		.thumb_func
 3103              		.type	_ZN7LSM9DS114getAccelIntSrcEv, %function
 3104              	_ZN7LSM9DS114getAccelIntSrcEv:
 3105              		.fnstart
 3106              	.LFB49:
 3107              		.loc 1 763 0
 3108              		.cfi_startproc
 3109              		@ args = 0, pretend = 0, frame = 0
 3110              		@ frame_needed = 0, uses_anonymous_args = 0
 3111              	.LVL316:
 3112 0000 08B5     		push	{r3, lr}
 3113              		.save {r3, lr}
 3114              		.cfi_def_cfa_offset 8
 3115              		.cfi_offset 3, -8
 3116              		.cfi_offset 14, -4
 3117              		.loc 1 763 0
 3118 0002 0346     		mov	r3, r0
 3119              	.LVL317:
 3120              	.LBB418:
 3121              	.LBB419:
 3122              	.LBB420:
 3123              		.loc 1 895 0
 3124 0004 2622     		movs	r2, #38
 3125 0006 93F87310 		ldrb	r1, [r3, #115]	@ zero_extendqisi2
 3126 000a D0F88400 		ldr	r0, [r0, #132]
 3127              	.LVL318:
 3128 000e FFF7FEFF 		bl	_ZN7creator3I2C8ReadByteEhh
 3129              	.LVL319:
 3130              	.LBE420:
 3131              	.LBE419:
 3132              		.loc 1 767 0
 3133 0012 00F04003 		and	r3, r0, #64
 3134 0016 03F0FF02 		and	r2, r3, #255
 3135 001a 0BB1     		cbz	r3, .L222
ARM GAS  /tmp/ccoI4Tqz.s 			page 56


 3136              		.loc 1 768 0
 3137 001c 00F03F02 		and	r2, r0, #63
 3138              	.L222:
 3139              	.LBE418:
 3140              		.loc 1 772 0
 3141 0020 1046     		mov	r0, r2
 3142              	.LVL320:
 3143 0022 08BD     		pop	{r3, pc}
 3144              		.cfi_endproc
 3145              	.LFE49:
 3146              		.fnend
 3147              		.size	_ZN7LSM9DS114getAccelIntSrcEv, .-_ZN7LSM9DS114getAccelIntSrcEv
 3148              		.section	.text._ZN7LSM9DS113configGyroIntEhbb,"ax",%progbits
 3149              		.align	2
 3150              		.p2align 4,,15
 3151              		.global	_ZN7LSM9DS113configGyroIntEhbb
 3152              		.thumb
 3153              		.thumb_func
 3154              		.type	_ZN7LSM9DS113configGyroIntEhbb, %function
 3155              	_ZN7LSM9DS113configGyroIntEhbb:
 3156              		.fnstart
 3157              	.LFB50:
 3158              		.loc 1 774 0
 3159              		.cfi_startproc
 3160              		@ args = 0, pretend = 0, frame = 0
 3161              		@ frame_needed = 0, uses_anonymous_args = 0
 3162              		@ link register save eliminated.
 3163              	.LVL321:
 3164 0000 10B4     		push	{r4}
 3165              		.cfi_def_cfa_offset 4
 3166              		.cfi_offset 4, -4
 3167              		.loc 1 774 0
 3168 0002 0446     		mov	r4, r0
 3169              	.LVL322:
 3170              	.LBB421:
 3171              		.loc 1 778 0
 3172 0004 0AB1     		cbz	r2, .L228
 3173              		.loc 1 778 0 is_stmt 0 discriminator 1
 3174 0006 41F08001 		orr	r1, r1, #128
 3175              	.LVL323:
 3176              	.L228:
 3177              		.loc 1 779 0 is_stmt 1
 3178 000a 0BB1     		cbz	r3, .L229
 3179              		.loc 1 779 0 is_stmt 0 discriminator 1
 3180 000c 41F04001 		orr	r1, r1, #64
 3181              	.LVL324:
 3182              	.L229:
 3183              	.LBB422:
 3184              	.LBB423:
 3185              		.loc 1 887 0 is_stmt 1
 3186 0010 0B46     		mov	r3, r1
 3187              	.LVL325:
 3188 0012 D4F88400 		ldr	r0, [r4, #132]
 3189              	.LVL326:
 3190 0016 94F87310 		ldrb	r1, [r4, #115]	@ zero_extendqisi2
 3191              	.LVL327:
 3192 001a 3022     		movs	r2, #48
ARM GAS  /tmp/ccoI4Tqz.s 			page 57


 3193              	.LVL328:
 3194              	.LBE423:
 3195              	.LBE422:
 3196              	.LBE421:
 3197              		.loc 1 781 0
 3198 001c 5DF8044B 		ldr	r4, [sp], #4
 3199              		.cfi_restore 4
 3200              		.cfi_def_cfa_offset 0
 3201              	.LVL329:
 3202              	.LBB426:
 3203              	.LBB425:
 3204              	.LBB424:
 3205              		.loc 1 887 0
 3206 0020 FFF7FEBF 		b	_ZN7creator3I2C9WriteByteEhhh
 3207              	.LVL330:
 3208              	.LBE424:
 3209              	.LBE425:
 3210              	.LBE426:
 3211              		.cfi_endproc
 3212              	.LFE50:
 3213              		.cantunwind
 3214              		.fnend
 3215              		.size	_ZN7LSM9DS113configGyroIntEhbb, .-_ZN7LSM9DS113configGyroIntEhbb
 3216              		.section	.text._ZN7LSM9DS113configGyroThsEs12lsm9ds1_axishb,"ax",%progbits
 3217              		.align	2
 3218              		.p2align 4,,15
 3219              		.global	_ZN7LSM9DS113configGyroThsEs12lsm9ds1_axishb
 3220              		.thumb
 3221              		.thumb_func
 3222              		.type	_ZN7LSM9DS113configGyroThsEs12lsm9ds1_axishb, %function
 3223              	_ZN7LSM9DS113configGyroThsEs12lsm9ds1_axishb:
 3224              		.fnstart
 3225              	.LFB51:
 3226              		.loc 1 784 0
 3227              		.cfi_startproc
 3228              		@ args = 4, pretend = 0, frame = 0
 3229              		@ frame_needed = 0, uses_anonymous_args = 0
 3230              	.LVL331:
 3231 0000 2DE9F041 		push	{r4, r5, r6, r7, r8, lr}
 3232              		.save {r4, r5, r6, r7, r8, lr}
 3233              		.cfi_def_cfa_offset 24
 3234              		.cfi_offset 4, -24
 3235              		.cfi_offset 5, -20
 3236              		.cfi_offset 6, -16
 3237              		.cfi_offset 7, -12
 3238              		.cfi_offset 8, -8
 3239              		.cfi_offset 14, -4
 3240              		.loc 1 784 0
 3241 0004 0446     		mov	r4, r0
 3242 0006 0F46     		mov	r7, r1
 3243              	.LVL332:
 3244 0008 1546     		mov	r5, r2
 3245 000a 1E46     		mov	r6, r3
 3246              	.LBB427:
 3247              		.loc 1 790 0
 3248 000c 5200     		lsls	r2, r2, #1
 3249              	.LVL333:
ARM GAS  /tmp/ccoI4Tqz.s 			page 58


 3250 000e 3132     		adds	r2, r2, #49
 3251              	.LBB428:
 3252              	.LBB429:
 3253              		.loc 1 887 0
 3254 0010 D2B2     		uxtb	r2, r2
 3255 0012 D0F88400 		ldr	r0, [r0, #132]
 3256              	.LVL334:
 3257 0016 94F87310 		ldrb	r1, [r4, #115]	@ zero_extendqisi2
 3258              	.LVL335:
 3259 001a C7F30623 		ubfx	r3, r7, #8, #7
 3260              	.LVL336:
 3261              	.LBE429:
 3262              	.LBE428:
 3263              	.LBE427:
 3264              		.loc 1 784 0
 3265 001e 9DF81880 		ldrb	r8, [sp, #24]	@ zero_extendqisi2
 3266              	.LBB438:
 3267              	.LBB431:
 3268              	.LBB430:
 3269              		.loc 1 887 0
 3270 0022 FFF7FEFF 		bl	_ZN7creator3I2C9WriteByteEhhh
 3271              	.LVL337:
 3272              	.LBE430:
 3273              	.LBE431:
 3274              		.loc 1 791 0
 3275 0026 05F11902 		add	r2, r5, #25
 3276 002a 5200     		lsls	r2, r2, #1
 3277              	.LBB432:
 3278              	.LBB433:
 3279              		.loc 1 887 0
 3280 002c FBB2     		uxtb	r3, r7
 3281 002e 02F0FE02 		and	r2, r2, #254
 3282 0032 D4F88400 		ldr	r0, [r4, #132]
 3283 0036 94F87310 		ldrb	r1, [r4, #115]	@ zero_extendqisi2
 3284 003a FFF7FEFF 		bl	_ZN7creator3I2C9WriteByteEhhh
 3285              	.LVL338:
 3286              	.LBE433:
 3287              	.LBE432:
 3288              		.loc 1 795 0
 3289 003e 06F07F03 		and	r3, r6, #127
 3290              	.LVL339:
 3291              		.loc 1 796 0
 3292 0042 B8F1000F 		cmp	r8, #0
 3293 0046 01D0     		beq	.L238
 3294              		.loc 1 796 0 is_stmt 0 discriminator 1
 3295 0048 43F08003 		orr	r3, r3, #128
 3296              	.LVL340:
 3297              	.L238:
 3298              	.LBB434:
 3299              	.LBB435:
 3300              		.loc 1 887 0 is_stmt 1
 3301 004c D4F88400 		ldr	r0, [r4, #132]
 3302 0050 94F87310 		ldrb	r1, [r4, #115]	@ zero_extendqisi2
 3303 0054 3722     		movs	r2, #55
 3304              	.LBE435:
 3305              	.LBE434:
 3306              	.LBE438:
ARM GAS  /tmp/ccoI4Tqz.s 			page 59


 3307              		.loc 1 798 0
 3308 0056 BDE8F041 		pop	{r4, r5, r6, r7, r8, lr}
 3309              		.cfi_restore 14
 3310              		.cfi_restore 8
 3311              		.cfi_restore 7
 3312              		.cfi_restore 6
 3313              		.cfi_restore 5
 3314              		.cfi_restore 4
 3315              		.cfi_def_cfa_offset 0
 3316              	.LVL341:
 3317              	.LBB439:
 3318              	.LBB437:
 3319              	.LBB436:
 3320              		.loc 1 887 0
 3321 005a FFF7FEBF 		b	_ZN7creator3I2C9WriteByteEhhh
 3322              	.LVL342:
 3323              	.LBE436:
 3324              	.LBE437:
 3325              	.LBE439:
 3326              		.cfi_endproc
 3327              	.LFE51:
 3328              		.fnend
 3329              		.size	_ZN7LSM9DS113configGyroThsEs12lsm9ds1_axishb, .-_ZN7LSM9DS113configGyroThsEs12lsm9ds1_axishb
 3330 005e 00BF     		.section	.text._ZN7LSM9DS113getGyroIntSrcEv,"ax",%progbits
 3331              		.align	2
 3332              		.p2align 4,,15
 3333              		.global	_ZN7LSM9DS113getGyroIntSrcEv
 3334              		.thumb
 3335              		.thumb_func
 3336              		.type	_ZN7LSM9DS113getGyroIntSrcEv, %function
 3337              	_ZN7LSM9DS113getGyroIntSrcEv:
 3338              		.fnstart
 3339              	.LFB52:
 3340              		.loc 1 800 0
 3341              		.cfi_startproc
 3342              		@ args = 0, pretend = 0, frame = 0
 3343              		@ frame_needed = 0, uses_anonymous_args = 0
 3344              	.LVL343:
 3345 0000 08B5     		push	{r3, lr}
 3346              		.save {r3, lr}
 3347              		.cfi_def_cfa_offset 8
 3348              		.cfi_offset 3, -8
 3349              		.cfi_offset 14, -4
 3350              		.loc 1 800 0
 3351 0002 0346     		mov	r3, r0
 3352              	.LVL344:
 3353              	.LBB440:
 3354              	.LBB441:
 3355              	.LBB442:
 3356              		.loc 1 895 0
 3357 0004 1422     		movs	r2, #20
 3358 0006 93F87310 		ldrb	r1, [r3, #115]	@ zero_extendqisi2
 3359 000a D0F88400 		ldr	r0, [r0, #132]
 3360              	.LVL345:
 3361 000e FFF7FEFF 		bl	_ZN7creator3I2C8ReadByteEhh
 3362              	.LVL346:
 3363              	.LBE442:
ARM GAS  /tmp/ccoI4Tqz.s 			page 60


 3364              	.LBE441:
 3365              		.loc 1 804 0
 3366 0012 00F04003 		and	r3, r0, #64
 3367 0016 03F0FF02 		and	r2, r3, #255
 3368 001a 0BB1     		cbz	r3, .L244
 3369              		.loc 1 805 0
 3370 001c 00F03F02 		and	r2, r0, #63
 3371              	.L244:
 3372              	.LBE440:
 3373              		.loc 1 809 0
 3374 0020 1046     		mov	r0, r2
 3375              	.LVL347:
 3376 0022 08BD     		pop	{r3, pc}
 3377              		.cfi_endproc
 3378              	.LFE52:
 3379              		.fnend
 3380              		.size	_ZN7LSM9DS113getGyroIntSrcEv, .-_ZN7LSM9DS113getGyroIntSrcEv
 3381              		.section	.text._ZN7LSM9DS112configMagIntEh9h_lactiveb,"ax",%progbits
 3382              		.align	2
 3383              		.p2align 4,,15
 3384              		.global	_ZN7LSM9DS112configMagIntEh9h_lactiveb
 3385              		.thumb
 3386              		.thumb_func
 3387              		.type	_ZN7LSM9DS112configMagIntEh9h_lactiveb, %function
 3388              	_ZN7LSM9DS112configMagIntEh9h_lactiveb:
 3389              		.fnstart
 3390              	.LFB53:
 3391              		.loc 1 811 0
 3392              		.cfi_startproc
 3393              		@ args = 0, pretend = 0, frame = 0
 3394              		@ frame_needed = 0, uses_anonymous_args = 0
 3395              		@ link register save eliminated.
 3396              	.LVL348:
 3397 0000 10B4     		push	{r4}
 3398              		.cfi_def_cfa_offset 4
 3399              		.cfi_offset 4, -4
 3400              		.loc 1 811 0
 3401 0002 0446     		mov	r4, r0
 3402 0004 1846     		mov	r0, r3
 3403              	.LVL349:
 3404              	.LBB443:
 3405              		.loc 1 813 0
 3406 0006 01F0E003 		and	r3, r1, #224
 3407              	.LVL350:
 3408              		.loc 1 815 0
 3409 000a 0AB9     		cbnz	r2, .L250
 3410              		.loc 1 815 0 is_stmt 0 discriminator 1
 3411 000c 43F00403 		orr	r3, r3, #4
 3412              	.LVL351:
 3413              	.L250:
 3414              		.loc 1 817 0 is_stmt 1
 3415 0010 08B9     		cbnz	r0, .L251
 3416              		.loc 1 817 0 is_stmt 0 discriminator 1
 3417 0012 43F00203 		orr	r3, r3, #2
 3418              	.LVL352:
 3419              	.L251:
 3420              		.loc 1 819 0 is_stmt 1
ARM GAS  /tmp/ccoI4Tqz.s 			page 61


 3421 0016 09B1     		cbz	r1, .L252
 3422              		.loc 1 819 0 is_stmt 0 discriminator 1
 3423 0018 43F00103 		orr	r3, r3, #1
 3424              	.LVL353:
 3425              	.L252:
 3426              	.LBB444:
 3427              	.LBB445:
 3428              		.loc 1 891 0 is_stmt 1
 3429 001c D4F88400 		ldr	r0, [r4, #132]
 3430 0020 94F87210 		ldrb	r1, [r4, #114]	@ zero_extendqisi2
 3431              	.LVL354:
 3432 0024 3022     		movs	r2, #48
 3433              	.LVL355:
 3434              	.LBE445:
 3435              	.LBE444:
 3436              	.LBE443:
 3437              		.loc 1 822 0
 3438 0026 5DF8044B 		ldr	r4, [sp], #4
 3439              		.cfi_restore 4
 3440              		.cfi_def_cfa_offset 0
 3441              	.LVL356:
 3442              	.LBB448:
 3443              	.LBB447:
 3444              	.LBB446:
 3445              		.loc 1 891 0
 3446 002a FFF7FEBF 		b	_ZN7creator3I2C9WriteByteEhhh
 3447              	.LVL357:
 3448              	.LBE446:
 3449              	.LBE447:
 3450              	.LBE448:
 3451              		.cfi_endproc
 3452              	.LFE53:
 3453              		.cantunwind
 3454              		.fnend
 3455              		.size	_ZN7LSM9DS112configMagIntEh9h_lactiveb, .-_ZN7LSM9DS112configMagIntEh9h_lactiveb
 3456 002e 00BF     		.section	.text._ZN7LSM9DS112configMagThsEt,"ax",%progbits
 3457              		.align	2
 3458              		.p2align 4,,15
 3459              		.global	_ZN7LSM9DS112configMagThsEt
 3460              		.thumb
 3461              		.thumb_func
 3462              		.type	_ZN7LSM9DS112configMagThsEt, %function
 3463              	_ZN7LSM9DS112configMagThsEt:
 3464              		.fnstart
 3465              	.LFB54:
 3466              		.loc 1 824 0
 3467              		.cfi_startproc
 3468              		@ args = 0, pretend = 0, frame = 0
 3469              		@ frame_needed = 0, uses_anonymous_args = 0
 3470              	.LVL358:
 3471 0000 70B5     		push	{r4, r5, r6, lr}
 3472              		.save {r4, r5, r6, lr}
 3473              		.cfi_def_cfa_offset 16
 3474              		.cfi_offset 4, -16
 3475              		.cfi_offset 5, -12
 3476              		.cfi_offset 6, -8
 3477              		.cfi_offset 14, -4
ARM GAS  /tmp/ccoI4Tqz.s 			page 62


 3478              		.loc 1 824 0
 3479 0002 0446     		mov	r4, r0
 3480              	.LVL359:
 3481 0004 0D46     		mov	r5, r1
 3482              	.LVL360:
 3483              	.LBB449:
 3484              	.LBB450:
 3485              		.loc 1 891 0
 3486 0006 D0F88400 		ldr	r0, [r0, #132]
 3487              	.LVL361:
 3488 000a 94F87210 		ldrb	r1, [r4, #114]	@ zero_extendqisi2
 3489              	.LVL362:
 3490 000e C5F30623 		ubfx	r3, r5, #8, #7
 3491 0012 3322     		movs	r2, #51
 3492 0014 FFF7FEFF 		bl	_ZN7creator3I2C9WriteByteEhhh
 3493              	.LVL363:
 3494              	.LBE450:
 3495              	.LBE449:
 3496              	.LBB451:
 3497              	.LBB452:
 3498 0018 EBB2     		uxtb	r3, r5
 3499 001a D4F88400 		ldr	r0, [r4, #132]
 3500 001e 94F87210 		ldrb	r1, [r4, #114]	@ zero_extendqisi2
 3501 0022 3222     		movs	r2, #50
 3502              	.LBE452:
 3503              	.LBE451:
 3504              		.loc 1 829 0
 3505 0024 BDE87040 		pop	{r4, r5, r6, lr}
 3506              		.cfi_restore 14
 3507              		.cfi_restore 6
 3508              		.cfi_restore 5
 3509              		.cfi_restore 4
 3510              		.cfi_def_cfa_offset 0
 3511              	.LVL364:
 3512              	.LBB454:
 3513              	.LBB453:
 3514              		.loc 1 891 0
 3515 0028 FFF7FEBF 		b	_ZN7creator3I2C9WriteByteEhhh
 3516              	.LVL365:
 3517              	.LBE453:
 3518              	.LBE454:
 3519              		.cfi_endproc
 3520              	.LFE54:
 3521              		.fnend
 3522              		.size	_ZN7LSM9DS112configMagThsEt, .-_ZN7LSM9DS112configMagThsEt
 3523              		.section	.text._ZN7LSM9DS112getMagIntSrcEv,"ax",%progbits
 3524              		.align	2
 3525              		.p2align 4,,15
 3526              		.global	_ZN7LSM9DS112getMagIntSrcEv
 3527              		.thumb
 3528              		.thumb_func
 3529              		.type	_ZN7LSM9DS112getMagIntSrcEv, %function
 3530              	_ZN7LSM9DS112getMagIntSrcEv:
 3531              		.fnstart
 3532              	.LFB55:
 3533              		.loc 1 831 0
 3534              		.cfi_startproc
ARM GAS  /tmp/ccoI4Tqz.s 			page 63


 3535              		@ args = 0, pretend = 0, frame = 0
 3536              		@ frame_needed = 0, uses_anonymous_args = 0
 3537              	.LVL366:
 3538 0000 08B5     		push	{r3, lr}
 3539              		.save {r3, lr}
 3540              		.cfi_def_cfa_offset 8
 3541              		.cfi_offset 3, -8
 3542              		.cfi_offset 14, -4
 3543              		.loc 1 831 0
 3544 0002 0346     		mov	r3, r0
 3545              	.LVL367:
 3546              	.LBB455:
 3547              	.LBB456:
 3548              	.LBB457:
 3549              		.loc 1 903 0
 3550 0004 3022     		movs	r2, #48
 3551 0006 93F87210 		ldrb	r1, [r3, #114]	@ zero_extendqisi2
 3552 000a D0F88400 		ldr	r0, [r0, #132]
 3553              	.LVL368:
 3554 000e FFF7FEFF 		bl	_ZN7creator3I2C8ReadByteEhh
 3555              	.LVL369:
 3556 0012 0346     		mov	r3, r0
 3557              	.LVL370:
 3558              	.LBE457:
 3559              	.LBE456:
 3560              		.loc 1 835 0
 3561 0014 10F00100 		ands	r0, r0, #1
 3562              	.LVL371:
 3563              		.loc 1 836 0
 3564 0018 18BF     		it	ne
 3565 001a 03F0FE00 		andne	r0, r3, #254
 3566              	.LBE455:
 3567              		.loc 1 840 0
 3568 001e 08BD     		pop	{r3, pc}
 3569              		.cfi_endproc
 3570              	.LFE55:
 3571              		.fnend
 3572              		.size	_ZN7LSM9DS112getMagIntSrcEv, .-_ZN7LSM9DS112getMagIntSrcEv
 3573              		.section	.text._ZN7LSM9DS19sleepGyroEb,"ax",%progbits
 3574              		.align	2
 3575              		.p2align 4,,15
 3576              		.global	_ZN7LSM9DS19sleepGyroEb
 3577              		.thumb
 3578              		.thumb_func
 3579              		.type	_ZN7LSM9DS19sleepGyroEb, %function
 3580              	_ZN7LSM9DS19sleepGyroEb:
 3581              		.fnstart
 3582              	.LFB56:
 3583              		.loc 1 842 0
 3584              		.cfi_startproc
 3585              		@ args = 0, pretend = 0, frame = 0
 3586              		@ frame_needed = 0, uses_anonymous_args = 0
 3587              	.LVL372:
 3588 0000 70B5     		push	{r4, r5, r6, lr}
 3589              		.save {r4, r5, r6, lr}
 3590              		.cfi_def_cfa_offset 16
 3591              		.cfi_offset 4, -16
ARM GAS  /tmp/ccoI4Tqz.s 			page 64


 3592              		.cfi_offset 5, -12
 3593              		.cfi_offset 6, -8
 3594              		.cfi_offset 14, -4
 3595              		.loc 1 842 0
 3596 0002 0446     		mov	r4, r0
 3597              	.LVL373:
 3598 0004 0D46     		mov	r5, r1
 3599              	.LBB458:
 3600              	.LBB459:
 3601              	.LBB460:
 3602              		.loc 1 895 0
 3603 0006 D0F88400 		ldr	r0, [r0, #132]
 3604              	.LVL374:
 3605 000a 94F87310 		ldrb	r1, [r4, #115]	@ zero_extendqisi2
 3606              	.LVL375:
 3607 000e 2322     		movs	r2, #35
 3608 0010 FFF7FEFF 		bl	_ZN7creator3I2C8ReadByteEhh
 3609              	.LVL376:
 3610              	.LBE460:
 3611              	.LBE459:
 3612              		.loc 1 844 0
 3613 0014 55B9     		cbnz	r5, .L269
 3614              		.loc 1 847 0
 3615 0016 00F0BF03 		and	r3, r0, #191
 3616              	.LVL377:
 3617              	.L267:
 3618              	.LBB461:
 3619              	.LBB462:
 3620              		.loc 1 887 0
 3621 001a D4F88400 		ldr	r0, [r4, #132]
 3622 001e 94F87310 		ldrb	r1, [r4, #115]	@ zero_extendqisi2
 3623 0022 2322     		movs	r2, #35
 3624              	.LBE462:
 3625              	.LBE461:
 3626              	.LBE458:
 3627              		.loc 1 849 0
 3628 0024 BDE87040 		pop	{r4, r5, r6, lr}
 3629              		.cfi_remember_state
 3630              		.cfi_restore 14
 3631              		.cfi_restore 6
 3632              		.cfi_restore 5
 3633              		.cfi_restore 4
 3634              		.cfi_def_cfa_offset 0
 3635              	.LVL378:
 3636              	.LBB465:
 3637              	.LBB464:
 3638              	.LBB463:
 3639              		.loc 1 887 0
 3640 0028 FFF7FEBF 		b	_ZN7creator3I2C9WriteByteEhhh
 3641              	.LVL379:
 3642              	.L269:
 3643              		.cfi_restore_state
 3644              	.LBE463:
 3645              	.LBE464:
 3646              		.loc 1 845 0
 3647 002c 40F04003 		orr	r3, r0, #64
 3648 0030 DBB2     		uxtb	r3, r3
ARM GAS  /tmp/ccoI4Tqz.s 			page 65


 3649              	.LVL380:
 3650 0032 F2E7     		b	.L267
 3651              	.LBE465:
 3652              		.cfi_endproc
 3653              	.LFE56:
 3654              		.fnend
 3655              		.size	_ZN7LSM9DS19sleepGyroEb, .-_ZN7LSM9DS19sleepGyroEb
 3656              		.section	.text._ZN7LSM9DS110enableFIFOEb,"ax",%progbits
 3657              		.align	2
 3658              		.p2align 4,,15
 3659              		.global	_ZN7LSM9DS110enableFIFOEb
 3660              		.thumb
 3661              		.thumb_func
 3662              		.type	_ZN7LSM9DS110enableFIFOEb, %function
 3663              	_ZN7LSM9DS110enableFIFOEb:
 3664              		.fnstart
 3665              	.LFB57:
 3666              		.loc 1 851 0
 3667              		.cfi_startproc
 3668              		@ args = 0, pretend = 0, frame = 0
 3669              		@ frame_needed = 0, uses_anonymous_args = 0
 3670              	.LVL381:
 3671 0000 70B5     		push	{r4, r5, r6, lr}
 3672              		.save {r4, r5, r6, lr}
 3673              		.cfi_def_cfa_offset 16
 3674              		.cfi_offset 4, -16
 3675              		.cfi_offset 5, -12
 3676              		.cfi_offset 6, -8
 3677              		.cfi_offset 14, -4
 3678              		.loc 1 851 0
 3679 0002 0446     		mov	r4, r0
 3680              	.LVL382:
 3681 0004 0D46     		mov	r5, r1
 3682              	.LBB466:
 3683              	.LBB467:
 3684              	.LBB468:
 3685              		.loc 1 895 0
 3686 0006 D0F88400 		ldr	r0, [r0, #132]
 3687              	.LVL383:
 3688 000a 94F87310 		ldrb	r1, [r4, #115]	@ zero_extendqisi2
 3689              	.LVL384:
 3690 000e 2322     		movs	r2, #35
 3691 0010 FFF7FEFF 		bl	_ZN7creator3I2C8ReadByteEhh
 3692              	.LVL385:
 3693              	.LBE468:
 3694              	.LBE467:
 3695              		.loc 1 853 0
 3696 0014 55B9     		cbnz	r5, .L274
 3697              		.loc 1 856 0
 3698 0016 00F0FD03 		and	r3, r0, #253
 3699              	.LVL386:
 3700              	.L272:
 3701              	.LBB469:
 3702              	.LBB470:
 3703              		.loc 1 887 0
 3704 001a D4F88400 		ldr	r0, [r4, #132]
 3705 001e 94F87310 		ldrb	r1, [r4, #115]	@ zero_extendqisi2
ARM GAS  /tmp/ccoI4Tqz.s 			page 66


 3706 0022 2322     		movs	r2, #35
 3707              	.LBE470:
 3708              	.LBE469:
 3709              	.LBE466:
 3710              		.loc 1 858 0
 3711 0024 BDE87040 		pop	{r4, r5, r6, lr}
 3712              		.cfi_remember_state
 3713              		.cfi_restore 14
 3714              		.cfi_restore 6
 3715              		.cfi_restore 5
 3716              		.cfi_restore 4
 3717              		.cfi_def_cfa_offset 0
 3718              	.LVL387:
 3719              	.LBB473:
 3720              	.LBB472:
 3721              	.LBB471:
 3722              		.loc 1 887 0
 3723 0028 FFF7FEBF 		b	_ZN7creator3I2C9WriteByteEhhh
 3724              	.LVL388:
 3725              	.L274:
 3726              		.cfi_restore_state
 3727              	.LBE471:
 3728              	.LBE472:
 3729              		.loc 1 854 0
 3730 002c 40F00203 		orr	r3, r0, #2
 3731 0030 DBB2     		uxtb	r3, r3
 3732              	.LVL389:
 3733 0032 F2E7     		b	.L272
 3734              	.LBE473:
 3735              		.cfi_endproc
 3736              	.LFE57:
 3737              		.fnend
 3738              		.size	_ZN7LSM9DS110enableFIFOEb, .-_ZN7LSM9DS110enableFIFOEb
 3739              		.section	.text._ZN7LSM9DS17setFIFOE13fifoMode_typeh,"ax",%progbits
 3740              		.align	2
 3741              		.p2align 4,,15
 3742              		.global	_ZN7LSM9DS17setFIFOE13fifoMode_typeh
 3743              		.thumb
 3744              		.thumb_func
 3745              		.type	_ZN7LSM9DS17setFIFOE13fifoMode_typeh, %function
 3746              	_ZN7LSM9DS17setFIFOE13fifoMode_typeh:
 3747              		.fnstart
 3748              	.LFB58:
 3749              		.loc 1 860 0
 3750              		.cfi_startproc
 3751              		@ args = 0, pretend = 0, frame = 0
 3752              		@ frame_needed = 0, uses_anonymous_args = 0
 3753              		@ link register save eliminated.
 3754              	.LVL390:
 3755              	.LBB474:
 3756              		.loc 1 864 0
 3757 0000 4901     		lsls	r1, r1, #5
 3758              	.LVL391:
 3759 0002 1F2A     		cmp	r2, #31
 3760 0004 94BF     		ite	ls
 3761 0006 41EA0203 		orrls	r3, r1, r2
 3762 000a 41F01F03 		orrhi	r3, r1, #31
ARM GAS  /tmp/ccoI4Tqz.s 			page 67


 3763              	.LBE474:
 3764              		.loc 1 860 0
 3765 000e 0246     		mov	r2, r0
 3766              	.LVL392:
 3767              	.LBB477:
 3768              	.LBB475:
 3769              	.LBB476:
 3770              		.loc 1 887 0
 3771 0010 DBB2     		uxtb	r3, r3
 3772 0012 92F87310 		ldrb	r1, [r2, #115]	@ zero_extendqisi2
 3773 0016 D0F88400 		ldr	r0, [r0, #132]
 3774              	.LVL393:
 3775 001a 2E22     		movs	r2, #46
 3776              	.LVL394:
 3777 001c FFF7FEBF 		b	_ZN7creator3I2C9WriteByteEhhh
 3778              	.LVL395:
 3779              	.LBE476:
 3780              	.LBE475:
 3781              	.LBE477:
 3782              		.cfi_endproc
 3783              	.LFE58:
 3784              		.cantunwind
 3785              		.fnend
 3786              		.size	_ZN7LSM9DS17setFIFOE13fifoMode_typeh, .-_ZN7LSM9DS17setFIFOE13fifoMode_typeh
 3787              		.global	__aeabi_f2d
 3788              		.global	__aeabi_ddiv
 3789              		.global	__aeabi_d2iz
 3790              		.section	.text._ZN7LSM9DS19calibrateEb,"ax",%progbits
 3791              		.align	2
 3792              		.p2align 4,,15
 3793              		.global	_ZN7LSM9DS19calibrateEb
 3794              		.thumb
 3795              		.thumb_func
 3796              		.type	_ZN7LSM9DS19calibrateEb, %function
 3797              	_ZN7LSM9DS19calibrateEb:
 3798              		.fnstart
 3799              	.LFB17:
 3800              		.loc 1 304 0
 3801              		.cfi_startproc
 3802              		@ args = 0, pretend = 0, frame = 40
 3803              		@ frame_needed = 0, uses_anonymous_args = 0
 3804              	.LVL396:
 3805 0000 2DE9F04F 		push	{r4, r5, r6, r7, r8, r9, r10, fp, lr}
 3806              		.save {r4, r5, r6, r7, r8, r9, r10, fp, lr}
 3807              		.cfi_def_cfa_offset 36
 3808              		.cfi_offset 4, -36
 3809              		.cfi_offset 5, -32
 3810              		.cfi_offset 6, -28
 3811              		.cfi_offset 7, -24
 3812              		.cfi_offset 8, -20
 3813              		.cfi_offset 9, -16
 3814              		.cfi_offset 10, -12
 3815              		.cfi_offset 11, -8
 3816              		.cfi_offset 14, -4
 3817 0004 0446     		mov	r4, r0
 3818              		.pad #44
 3819 0006 8BB0     		sub	sp, sp, #44
ARM GAS  /tmp/ccoI4Tqz.s 			page 68


 3820              		.cfi_def_cfa_offset 80
 3821              		.loc 1 304 0
 3822 0008 0391     		str	r1, [sp, #12]
 3823              	.LBB478:
 3824              		.loc 1 311 0
 3825 000a 0121     		movs	r1, #1
 3826              	.LVL397:
 3827 000c FFF7FEFF 		bl	_ZN7LSM9DS110enableFIFOEb
 3828              	.LVL398:
 3829              		.loc 1 312 0
 3830 0010 2046     		mov	r0, r4
 3831 0012 0121     		movs	r1, #1
 3832 0014 1F22     		movs	r2, #31
 3833 0016 FFF7FEFF 		bl	_ZN7LSM9DS17setFIFOE13fifoMode_typeh
 3834              	.LVL399:
 3835              	.L277:
 3836              	.LBB479:
 3837              	.LBB480:
 3838              		.loc 1 895 0
 3839 001a D4F88400 		ldr	r0, [r4, #132]
 3840 001e 94F87310 		ldrb	r1, [r4, #115]	@ zero_extendqisi2
 3841 0022 2F22     		movs	r2, #47
 3842 0024 FFF7FEFF 		bl	_ZN7creator3I2C8ReadByteEhh
 3843              	.LVL400:
 3844              	.LBE480:
 3845              	.LBE479:
 3846              		.loc 1 314 0
 3847 0028 00F03F00 		and	r0, r0, #63
 3848              	.LVL401:
 3849              		.loc 1 313 0
 3850 002c 1E28     		cmp	r0, #30
 3851 002e F4D9     		bls	.L277
 3852              	.LVL402:
 3853              		.loc 1 316 0
 3854 0030 0027     		movs	r7, #0
 3855 0032 BB46     		mov	fp, r7
 3856 0034 3E46     		mov	r6, r7
 3857 0036 BA46     		mov	r10, r7
 3858 0038 B946     		mov	r9, r7
 3859 003a 3D46     		mov	r5, r7
 3860 003c B846     		mov	r8, r7
 3861 003e 0290     		str	r0, [sp, #8]
 3862              	.LVL403:
 3863              	.L278:
 3864              		.loc 1 317 0
 3865 0040 2046     		mov	r0, r4
 3866 0042 FFF7FEFF 		bl	_ZN7LSM9DS18readGyroEv
 3867              	.LVL404:
 3868              		.loc 1 318 0
 3869 0046 B4F92810 		ldrsh	r1, [r4, #40]
 3870              		.loc 1 319 0
 3871 004a B4F92A20 		ldrsh	r2, [r4, #42]
 3872              		.loc 1 320 0
 3873 004e B4F92C30 		ldrsh	r3, [r4, #44]
 3874              		.loc 1 318 0
 3875 0052 8944     		add	r9, r9, r1
 3876              		.loc 1 319 0
ARM GAS  /tmp/ccoI4Tqz.s 			page 69


 3877 0054 1744     		add	r7, r7, r2
 3878              		.loc 1 320 0
 3879 0056 1D44     		add	r5, r5, r3
 3880              		.loc 1 321 0
 3881 0058 2046     		mov	r0, r4
 3882              		.loc 1 318 0
 3883 005a CDF81C90 		str	r9, [sp, #28]
 3884              		.loc 1 319 0
 3885 005e 0897     		str	r7, [sp, #32]
 3886              		.loc 1 320 0
 3887 0060 0995     		str	r5, [sp, #36]
 3888              		.loc 1 321 0
 3889 0062 FFF7FEFF 		bl	_ZN7LSM9DS19readAccelEv
 3890              	.LVL405:
 3891              		.loc 1 322 0
 3892 0066 B4F92E20 		ldrsh	r2, [r4, #46]
 3893              		.loc 1 323 0
 3894 006a B4F93030 		ldrsh	r3, [r4, #48]
 3895              		.loc 1 324 0
 3896 006e A16F     		ldr	r1, [r4, #120]	@ float
 3897              		.loc 1 322 0
 3898 0070 9244     		add	r10, r10, r2
 3899              		.loc 1 323 0
 3900 0072 1E44     		add	r6, r6, r3
 3901              		.loc 1 324 0
 3902 0074 0846     		mov	r0, r1
 3903 0076 0191     		str	r1, [sp, #4]	@ float
 3904              		.loc 1 322 0
 3905 0078 CDF810A0 		str	r10, [sp, #16]
 3906              		.loc 1 323 0
 3907 007c 0596     		str	r6, [sp, #20]
 3908              		.loc 1 324 0
 3909 007e FFF7FEFF 		bl	__aeabi_f2d
 3910              	.LVL406:
 3911 0082 0B46     		mov	r3, r1
 3912 0084 0246     		mov	r2, r0
 3913 0086 2C49     		ldr	r1, .L288
 3914 0088 0020     		movs	r0, #0
 3915 008a FFF7FEFF 		bl	__aeabi_ddiv
 3916              	.LVL407:
 3917 008e FFF7FEFF 		bl	__aeabi_d2iz
 3918              	.LVL408:
 3919 0092 B4F93230 		ldrsh	r3, [r4, #50]
 3920 0096 00B2     		sxth	r0, r0
 3921 0098 1B1A     		subs	r3, r3, r0
 3922 009a 9844     		add	r8, r8, r3
 3923              		.loc 1 316 0
 3924 009c 029B     		ldr	r3, [sp, #8]
 3925 009e 0BF1010B 		add	fp, fp, #1
 3926              	.LVL409:
 3927 00a2 9B45     		cmp	fp, r3
 3928              		.loc 1 324 0
 3929 00a4 CDF81880 		str	r8, [sp, #24]
 3930              		.loc 1 316 0
 3931 00a8 CAD1     		bne	.L278
 3932 00aa 4D46     		mov	r5, r9
 3933 00ac 9846     		mov	r8, r3
ARM GAS  /tmp/ccoI4Tqz.s 			page 70


 3934 00ae 636F     		ldr	r3, [r4, #116]	@ float
 3935 00b0 04F15E09 		add	r9, r4, #94
 3936              		.loc 1 316 0 is_stmt 0 discriminator 1
 3937 00b4 2846     		mov	r0, r5
 3938 00b6 A346     		mov	fp, r4
 3939              	.LVL410:
 3940 00b8 4D46     		mov	r5, r9
 3941 00ba 9946     		mov	r9, r3
 3942 00bc 5646     		mov	r6, r10
 3943              	.LVL411:
 3944 00be 04F16407 		add	r7, r4, #100
 3945 00c2 4FF0000A 		mov	r10, #0
 3946              	.LVL412:
 3947              	.L280:
 3948              		.loc 1 327 0 is_stmt 1 discriminator 3
 3949 00c6 90FBF8F0 		sdiv	r0, r0, r8
 3950 00ca 80B2     		uxth	r0, r0
 3951 00cc 25F8020F 		strh	r0, [r5, #2]!	@ movhi
 3952              	.LVL413:
 3953              	.LBB481:
 3954              	.LBB482:
 3955              		.loc 1 537 0 discriminator 3
 3956 00d0 00B2     		sxth	r0, r0
 3957              	.LVL414:
 3958 00d2 FFF7FEFF 		bl	__aeabi_i2f
 3959              	.LVL415:
 3960              	.LBE482:
 3961              	.LBE481:
 3962              		.loc 1 329 0 discriminator 3
 3963 00d6 96FBF8F6 		sdiv	r6, r6, r8
 3964              	.LBB484:
 3965              	.LBB483:
 3966              		.loc 1 537 0 discriminator 3
 3967 00da 4946     		mov	r1, r9
 3968 00dc FFF7FEFF 		bl	__aeabi_fmul
 3969              	.LVL416:
 3970              	.LBE483:
 3971              	.LBE484:
 3972              		.loc 1 329 0 discriminator 3
 3973 00e0 B6B2     		uxth	r6, r6
 3974              		.loc 1 328 0 discriminator 3
 3975 00e2 CBF83C00 		str	r0, [fp, #60]	@ float
 3976              		.loc 1 329 0 discriminator 3
 3977 00e6 27F8026F 		strh	r6, [r7, #2]!	@ movhi
 3978              	.LVL417:
 3979              	.LBB485:
 3980              	.LBB486:
 3981              		.loc 1 542 0 discriminator 3
 3982 00ea 30B2     		sxth	r0, r6
 3983 00ec FFF7FEFF 		bl	__aeabi_i2f
 3984              	.LVL418:
 3985 00f0 0199     		ldr	r1, [sp, #4]	@ float
 3986 00f2 FFF7FEFF 		bl	__aeabi_fmul
 3987              	.LVL419:
 3988              	.LBE486:
 3989              	.LBE485:
 3990              		.loc 1 326 0 discriminator 3
ARM GAS  /tmp/ccoI4Tqz.s 			page 71


 3991 00f6 0AF1010A 		add	r10, r10, #1
 3992              	.LVL420:
 3993 00fa BAF1030F 		cmp	r10, #3
 3994              		.loc 1 330 0 discriminator 3
 3995 00fe CBF84800 		str	r0, [fp, #72]	@ float
 3996 0102 0BF1040B 		add	fp, fp, #4
 3997              		.loc 1 326 0 discriminator 3
 3998 0106 06D0     		beq	.L279
 3999 0108 07AB     		add	r3, sp, #28
 4000 010a 53F82A00 		ldr	r0, [r3, r10, lsl #2]
 4001 010e 04AB     		add	r3, sp, #16
 4002 0110 53F82A60 		ldr	r6, [r3, r10, lsl #2]
 4003              	.LVL421:
 4004 0114 D7E7     		b	.L280
 4005              	.LVL422:
 4006              	.L279:
 4007              		.loc 1 333 0
 4008 0116 2046     		mov	r0, r4
 4009 0118 0021     		movs	r1, #0
 4010 011a FFF7FEFF 		bl	_ZN7LSM9DS110enableFIFOEb
 4011              	.LVL423:
 4012              		.loc 1 334 0
 4013 011e 0021     		movs	r1, #0
 4014 0120 2046     		mov	r0, r4
 4015 0122 0A46     		mov	r2, r1
 4016 0124 FFF7FEFF 		bl	_ZN7LSM9DS17setFIFOE13fifoMode_typeh
 4017              	.LVL424:
 4018              		.loc 1 336 0
 4019 0128 039B     		ldr	r3, [sp, #12]
 4020 012a 13B1     		cbz	r3, .L276
 4021              		.loc 1 336 0 is_stmt 0 discriminator 1
 4022 012c 0123     		movs	r3, #1
 4023 012e 84F88030 		strb	r3, [r4, #128]
 4024              	.L276:
 4025              	.LBE478:
 4026              		.loc 1 337 0 is_stmt 1
 4027 0132 0BB0     		add	sp, sp, #44
 4028              		.cfi_def_cfa_offset 36
 4029              		@ sp needed
 4030 0134 BDE8F08F 		pop	{r4, r5, r6, r7, r8, r9, r10, fp, pc}
 4031              	.LVL425:
 4032              	.L289:
 4033              		.align	2
 4034              	.L288:
 4035 0138 0000F03F 		.word	1072693248
 4036              		.cfi_endproc
 4037              	.LFE17:
 4038              		.fnend
 4039              		.size	_ZN7LSM9DS19calibrateEb, .-_ZN7LSM9DS19calibrateEb
 4040              		.section	.text._ZN7LSM9DS114getFIFOSamplesEv,"ax",%progbits
 4041              		.align	2
 4042              		.p2align 4,,15
 4043              		.global	_ZN7LSM9DS114getFIFOSamplesEv
 4044              		.thumb
 4045              		.thumb_func
 4046              		.type	_ZN7LSM9DS114getFIFOSamplesEv, %function
 4047              	_ZN7LSM9DS114getFIFOSamplesEv:
ARM GAS  /tmp/ccoI4Tqz.s 			page 72


 4048              		.fnstart
 4049              	.LFB59:
 4050              		.loc 1 867 0
 4051              		.cfi_startproc
 4052              		@ args = 0, pretend = 0, frame = 0
 4053              		@ frame_needed = 0, uses_anonymous_args = 0
 4054              	.LVL426:
 4055 0000 08B5     		push	{r3, lr}
 4056              		.save {r3, lr}
 4057              		.cfi_def_cfa_offset 8
 4058              		.cfi_offset 3, -8
 4059              		.cfi_offset 14, -4
 4060              		.loc 1 867 0
 4061 0002 0346     		mov	r3, r0
 4062              	.LVL427:
 4063              	.LBB487:
 4064              	.LBB488:
 4065              		.loc 1 895 0
 4066 0004 2F22     		movs	r2, #47
 4067 0006 93F87310 		ldrb	r1, [r3, #115]	@ zero_extendqisi2
 4068 000a D0F88400 		ldr	r0, [r0, #132]
 4069              	.LVL428:
 4070 000e FFF7FEFF 		bl	_ZN7creator3I2C8ReadByteEhh
 4071              	.LVL429:
 4072              	.LBE488:
 4073              	.LBE487:
 4074              		.loc 1 867 0
 4075 0012 00F03F00 		and	r0, r0, #63
 4076 0016 08BD     		pop	{r3, pc}
 4077              		.cfi_endproc
 4078              	.LFE59:
 4079              		.fnend
 4080              		.size	_ZN7LSM9DS114getFIFOSamplesEv, .-_ZN7LSM9DS114getFIFOSamplesEv
 4081              		.section	.text._ZN7LSM9DS115constrainScalesEv,"ax",%progbits
 4082              		.align	2
 4083              		.p2align 4,,15
 4084              		.global	_ZN7LSM9DS115constrainScalesEv
 4085              		.thumb
 4086              		.thumb_func
 4087              		.type	_ZN7LSM9DS115constrainScalesEv, %function
 4088              	_ZN7LSM9DS115constrainScalesEv:
 4089              		.fnstart
 4090              	.LFB60:
 4091              		.loc 1 869 0
 4092              		.cfi_startproc
 4093              		@ args = 0, pretend = 0, frame = 0
 4094              		@ frame_needed = 0, uses_anonymous_args = 0
 4095              		@ link register save eliminated.
 4096              	.LVL430:
 4097              		.loc 1 870 0
 4098 0000 C388     		ldrh	r3, [r0, #6]
 4099 0002 F52B     		cmp	r3, #245
 4100 0004 07D0     		beq	.L293
 4101              		.loc 1 870 0 is_stmt 0 discriminator 1
 4102 0006 B3F5FA7F 		cmp	r3, #500
 4103 000a 04D0     		beq	.L293
 4104              		.loc 1 870 0 discriminator 2
ARM GAS  /tmp/ccoI4Tqz.s 			page 73


 4105 000c B3F5FA6F 		cmp	r3, #2000
 4106              		.loc 1 872 0 is_stmt 1 discriminator 2
 4107 0010 1CBF     		itt	ne
 4108 0012 F523     		movne	r3, #245
 4109 0014 C380     		strhne	r3, [r0, #6]	@ movhi
 4110              	.L293:
 4111              		.loc 1 875 0
 4112 0016 C37D     		ldrb	r3, [r0, #23]	@ zero_extendqisi2
 4113 0018 022B     		cmp	r3, #2
 4114 001a 07D0     		beq	.L294
 4115              		.loc 1 875 0 is_stmt 0 discriminator 1
 4116 001c 042B     		cmp	r3, #4
 4117 001e 05D0     		beq	.L294
 4118              		.loc 1 875 0 discriminator 2
 4119 0020 082B     		cmp	r3, #8
 4120 0022 03D0     		beq	.L294
 4121              		.loc 1 876 0 is_stmt 1
 4122 0024 102B     		cmp	r3, #16
 4123              		.loc 1 877 0
 4124 0026 1CBF     		itt	ne
 4125 0028 0223     		movne	r3, #2
 4126 002a C375     		strbne	r3, [r0, #23]
 4127              	.L294:
 4128              		.loc 1 880 0
 4129 002c 90F82030 		ldrb	r3, [r0, #32]	@ zero_extendqisi2
 4130 0030 03F0F702 		and	r2, r3, #247
 4131 0034 042A     		cmp	r2, #4
 4132 0036 06D0     		beq	.L292
 4133              		.loc 1 880 0 is_stmt 0 discriminator 1
 4134 0038 082B     		cmp	r3, #8
 4135 003a 04D0     		beq	.L292
 4136              		.loc 1 881 0 is_stmt 1
 4137 003c 102B     		cmp	r3, #16
 4138              		.loc 1 882 0
 4139 003e 1CBF     		itt	ne
 4140 0040 0423     		movne	r3, #4
 4141 0042 80F82030 		strbne	r3, [r0, #32]
 4142              	.L292:
 4143 0046 7047     		bx	lr
 4144              		.cfi_endproc
 4145              	.LFE60:
 4146              		.cantunwind
 4147              		.fnend
 4148              		.size	_ZN7LSM9DS115constrainScalesEv, .-_ZN7LSM9DS115constrainScalesEv
 4149              		.section	.text._ZN7LSM9DS15beginEv,"ax",%progbits
 4150              		.align	2
 4151              		.p2align 4,,15
 4152              		.global	_ZN7LSM9DS15beginEv
 4153              		.thumb
 4154              		.thumb_func
 4155              		.type	_ZN7LSM9DS15beginEv, %function
 4156              	_ZN7LSM9DS15beginEv:
 4157              		.fnstart
 4158              	.LFB14:
 4159              		.loc 1 131 0
 4160              		.cfi_startproc
 4161              		@ args = 0, pretend = 0, frame = 0
ARM GAS  /tmp/ccoI4Tqz.s 			page 74


 4162              		@ frame_needed = 0, uses_anonymous_args = 0
 4163              	.LVL431:
 4164 0000 38B5     		push	{r3, r4, r5, lr}
 4165              		.save {r3, r4, r5, lr}
 4166              		.cfi_def_cfa_offset 16
 4167              		.cfi_offset 3, -16
 4168              		.cfi_offset 4, -12
 4169              		.cfi_offset 5, -8
 4170              		.cfi_offset 14, -4
 4171              		.loc 1 131 0
 4172 0002 0446     		mov	r4, r0
 4173              	.LBB489:
 4174              		.loc 1 134 0
 4175 0004 8378     		ldrb	r3, [r0, #2]	@ zero_extendqisi2
 4176              		.loc 1 133 0
 4177 0006 4278     		ldrb	r2, [r0, #1]	@ zero_extendqisi2
 4178              		.loc 1 134 0
 4179 0008 80F87230 		strb	r3, [r0, #114]
 4180              		.loc 1 133 0
 4181 000c 80F87320 		strb	r2, [r0, #115]
 4182              		.loc 1 136 0
 4183 0010 FFF7FEFF 		bl	_ZN7LSM9DS115constrainScalesEv
 4184              	.LVL432:
 4185              	.LBB490:
 4186              	.LBB491:
 4187              		.loc 1 678 0
 4188 0014 E088     		ldrh	r0, [r4, #6]
 4189 0016 FFF7FEFF 		bl	__aeabi_ui2f
 4190              	.LVL433:
 4191 001a 4FF06051 		mov	r1, #939524096
 4192 001e FFF7FEFF 		bl	__aeabi_fmul
 4193              	.LVL434:
 4194 0022 6067     		str	r0, [r4, #116]	@ float
 4195              	.LBE491:
 4196              	.LBE490:
 4197              		.loc 1 140 0
 4198 0024 2046     		mov	r0, r4
 4199 0026 FFF7FEFF 		bl	_ZN7LSM9DS18calcmResEv
 4200              	.LVL435:
 4201              	.LBB492:
 4202              	.LBB493:
 4203              		.loc 1 680 0
 4204 002a E07D     		ldrb	r0, [r4, #23]	@ zero_extendqisi2
 4205 002c FFF7FEFF 		bl	__aeabi_ui2f
 4206              	.LVL436:
 4207 0030 4FF06051 		mov	r1, #939524096
 4208 0034 FFF7FEFF 		bl	__aeabi_fmul
 4209              	.LVL437:
 4210              	.LBE493:
 4211              	.LBE492:
 4212              	.LBB495:
 4213              	.LBB496:
 4214              		.loc 1 903 0
 4215 0038 94F87210 		ldrb	r1, [r4, #114]	@ zero_extendqisi2
 4216              	.LBE496:
 4217              	.LBE495:
 4218              	.LBB499:
ARM GAS  /tmp/ccoI4Tqz.s 			page 75


 4219              	.LBB494:
 4220              		.loc 1 680 0
 4221 003c A067     		str	r0, [r4, #120]	@ float
 4222              	.LVL438:
 4223              	.LBE494:
 4224              	.LBE499:
 4225              	.LBB500:
 4226              	.LBB497:
 4227              		.loc 1 903 0
 4228 003e 0F22     		movs	r2, #15
 4229 0040 D4F88400 		ldr	r0, [r4, #132]
 4230 0044 FFF7FEFF 		bl	_ZN7creator3I2C8ReadByteEhh
 4231              	.LVL439:
 4232              	.LBE497:
 4233              	.LBE500:
 4234              	.LBB501:
 4235              	.LBB502:
 4236              		.loc 1 895 0
 4237 0048 94F87310 		ldrb	r1, [r4, #115]	@ zero_extendqisi2
 4238              	.LBE502:
 4239              	.LBE501:
 4240              	.LBB504:
 4241              	.LBB498:
 4242              		.loc 1 903 0
 4243 004c 0546     		mov	r5, r0
 4244              	.LVL440:
 4245              	.LBE498:
 4246              	.LBE504:
 4247              	.LBB505:
 4248              	.LBB503:
 4249              		.loc 1 895 0
 4250 004e 0F22     		movs	r2, #15
 4251 0050 D4F88400 		ldr	r0, [r4, #132]
 4252 0054 FFF7FEFF 		bl	_ZN7creator3I2C8ReadByteEhh
 4253              	.LVL441:
 4254              	.LBE503:
 4255              	.LBE505:
 4256              		.loc 1 149 0
 4257 0058 46F63D03 		movw	r3, #26685
 4258              		.loc 1 147 0
 4259 005c 45EA0020 		orr	r0, r5, r0, lsl #8
 4260              	.LVL442:
 4261              		.loc 1 149 0
 4262 0060 05B2     		sxth	r5, r0
 4263              	.LVL443:
 4264 0062 9D42     		cmp	r5, r3
 4265 0064 01D0     		beq	.L330
 4266 0066 0020     		movs	r0, #0
 4267              	.LBE489:
 4268              		.loc 1 162 0
 4269 0068 38BD     		pop	{r3, r4, r5, pc}
 4270              	.LVL444:
 4271              	.L330:
 4272              	.LBB506:
 4273              		.loc 1 152 0
 4274 006a 2046     		mov	r0, r4
 4275 006c FFF7FEFF 		bl	_ZN7LSM9DS18initGyroEv
ARM GAS  /tmp/ccoI4Tqz.s 			page 76


 4276              	.LVL445:
 4277              		.loc 1 155 0
 4278 0070 2046     		mov	r0, r4
 4279 0072 FFF7FEFF 		bl	_ZN7LSM9DS19initAccelEv
 4280              	.LVL446:
 4281              		.loc 1 158 0
 4282 0076 2046     		mov	r0, r4
 4283 0078 FFF7FEFF 		bl	_ZN7LSM9DS17initMagEv
 4284              	.LVL447:
 4285              		.loc 1 161 0
 4286 007c 2846     		mov	r0, r5
 4287 007e 38BD     		pop	{r3, r4, r5, pc}
 4288              	.LBE506:
 4289              		.cfi_endproc
 4290              	.LFE14:
 4291              		.fnend
 4292              		.size	_ZN7LSM9DS15beginEv, .-_ZN7LSM9DS15beginEv
 4293              		.section	.text._ZN7LSM9DS111xgWriteByteEhh,"ax",%progbits
 4294              		.align	2
 4295              		.p2align 4,,15
 4296              		.global	_ZN7LSM9DS111xgWriteByteEhh
 4297              		.thumb
 4298              		.thumb_func
 4299              		.type	_ZN7LSM9DS111xgWriteByteEhh, %function
 4300              	_ZN7LSM9DS111xgWriteByteEhh:
 4301              		.fnstart
 4302              	.LFB61:
 4303              		.loc 1 886 0
 4304              		.cfi_startproc
 4305              		@ args = 0, pretend = 0, frame = 0
 4306              		@ frame_needed = 0, uses_anonymous_args = 0
 4307              		@ link register save eliminated.
 4308              	.LVL448:
 4309 0000 10B4     		push	{r4}
 4310              		.cfi_def_cfa_offset 4
 4311              		.cfi_offset 4, -4
 4312              		.loc 1 886 0
 4313 0002 0446     		mov	r4, r0
 4314 0004 1346     		mov	r3, r2
 4315              		.loc 1 887 0
 4316 0006 D0F88400 		ldr	r0, [r0, #132]
 4317              	.LVL449:
 4318 000a 0A46     		mov	r2, r1
 4319              	.LVL450:
 4320 000c 94F87310 		ldrb	r1, [r4, #115]	@ zero_extendqisi2
 4321              	.LVL451:
 4322              		.loc 1 888 0
 4323 0010 5DF8044B 		ldr	r4, [sp], #4
 4324              		.cfi_restore 4
 4325              		.cfi_def_cfa_offset 0
 4326              	.LVL452:
 4327              		.loc 1 887 0
 4328 0014 FFF7FEBF 		b	_ZN7creator3I2C9WriteByteEhhh
 4329              	.LVL453:
 4330              		.cfi_endproc
 4331              	.LFE61:
 4332              		.cantunwind
ARM GAS  /tmp/ccoI4Tqz.s 			page 77


 4333              		.fnend
 4334              		.size	_ZN7LSM9DS111xgWriteByteEhh, .-_ZN7LSM9DS111xgWriteByteEhh
 4335              		.section	.text._ZN7LSM9DS110mWriteByteEhh,"ax",%progbits
 4336              		.align	2
 4337              		.p2align 4,,15
 4338              		.global	_ZN7LSM9DS110mWriteByteEhh
 4339              		.thumb
 4340              		.thumb_func
 4341              		.type	_ZN7LSM9DS110mWriteByteEhh, %function
 4342              	_ZN7LSM9DS110mWriteByteEhh:
 4343              		.fnstart
 4344              	.LFB62:
 4345              		.loc 1 890 0
 4346              		.cfi_startproc
 4347              		@ args = 0, pretend = 0, frame = 0
 4348              		@ frame_needed = 0, uses_anonymous_args = 0
 4349              		@ link register save eliminated.
 4350              	.LVL454:
 4351 0000 10B4     		push	{r4}
 4352              		.cfi_def_cfa_offset 4
 4353              		.cfi_offset 4, -4
 4354              		.loc 1 890 0
 4355 0002 0446     		mov	r4, r0
 4356 0004 1346     		mov	r3, r2
 4357              		.loc 1 891 0
 4358 0006 D0F88400 		ldr	r0, [r0, #132]
 4359              	.LVL455:
 4360 000a 0A46     		mov	r2, r1
 4361              	.LVL456:
 4362 000c 94F87210 		ldrb	r1, [r4, #114]	@ zero_extendqisi2
 4363              	.LVL457:
 4364              		.loc 1 892 0
 4365 0010 5DF8044B 		ldr	r4, [sp], #4
 4366              		.cfi_restore 4
 4367              		.cfi_def_cfa_offset 0
 4368              	.LVL458:
 4369              		.loc 1 891 0
 4370 0014 FFF7FEBF 		b	_ZN7creator3I2C9WriteByteEhhh
 4371              	.LVL459:
 4372              		.cfi_endproc
 4373              	.LFE62:
 4374              		.cantunwind
 4375              		.fnend
 4376              		.size	_ZN7LSM9DS110mWriteByteEhh, .-_ZN7LSM9DS110mWriteByteEhh
 4377              		.section	.text._ZN7LSM9DS110xgReadByteEh,"ax",%progbits
 4378              		.align	2
 4379              		.p2align 4,,15
 4380              		.global	_ZN7LSM9DS110xgReadByteEh
 4381              		.thumb
 4382              		.thumb_func
 4383              		.type	_ZN7LSM9DS110xgReadByteEh, %function
 4384              	_ZN7LSM9DS110xgReadByteEh:
 4385              		.fnstart
 4386              	.LFB63:
 4387              		.loc 1 894 0
 4388              		.cfi_startproc
 4389              		@ args = 0, pretend = 0, frame = 0
ARM GAS  /tmp/ccoI4Tqz.s 			page 78


 4390              		@ frame_needed = 0, uses_anonymous_args = 0
 4391              		@ link register save eliminated.
 4392              	.LVL460:
 4393              		.loc 1 894 0
 4394 0000 0346     		mov	r3, r0
 4395 0002 0A46     		mov	r2, r1
 4396              		.loc 1 895 0
 4397 0004 D0F88400 		ldr	r0, [r0, #132]
 4398              	.LVL461:
 4399 0008 93F87310 		ldrb	r1, [r3, #115]	@ zero_extendqisi2
 4400              	.LVL462:
 4401 000c FFF7FEBF 		b	_ZN7creator3I2C8ReadByteEhh
 4402              	.LVL463:
 4403              		.cfi_endproc
 4404              	.LFE63:
 4405              		.cantunwind
 4406              		.fnend
 4407              		.size	_ZN7LSM9DS110xgReadByteEh, .-_ZN7LSM9DS110xgReadByteEh
 4408              		.section	.text._ZN7LSM9DS111xgReadBytesEhPhh,"ax",%progbits
 4409              		.align	2
 4410              		.p2align 4,,15
 4411              		.global	_ZN7LSM9DS111xgReadBytesEhPhh
 4412              		.thumb
 4413              		.thumb_func
 4414              		.type	_ZN7LSM9DS111xgReadBytesEhPhh, %function
 4415              	_ZN7LSM9DS111xgReadBytesEhPhh:
 4416              		.fnstart
 4417              	.LFB64:
 4418              		.loc 1 898 0
 4419              		.cfi_startproc
 4420              		@ args = 0, pretend = 0, frame = 0
 4421              		@ frame_needed = 0, uses_anonymous_args = 0
 4422              	.LVL464:
 4423 0000 70B5     		push	{r4, r5, r6, lr}
 4424              		.save {r4, r5, r6, lr}
 4425              		.cfi_def_cfa_offset 16
 4426              		.cfi_offset 4, -16
 4427              		.cfi_offset 5, -12
 4428              		.cfi_offset 6, -8
 4429              		.cfi_offset 14, -4
 4430 0002 0E46     		mov	r6, r1
 4431 0004 1446     		mov	r4, r2
 4432              		.loc 1 899 0
 4433 0006 D0F88450 		ldr	r5, [r0, #132]
 4434              		.loc 1 898 0
 4435              		.pad #8
 4436 000a 82B0     		sub	sp, sp, #8
 4437              		.cfi_def_cfa_offset 24
 4438              		.loc 1 899 0
 4439 000c 90F87310 		ldrb	r1, [r0, #115]	@ zero_extendqisi2
 4440              	.LVL465:
 4441 0010 3246     		mov	r2, r6
 4442              	.LVL466:
 4443 0012 0093     		str	r3, [sp]
 4444 0014 2846     		mov	r0, r5
 4445              	.LVL467:
 4446 0016 2346     		mov	r3, r4
ARM GAS  /tmp/ccoI4Tqz.s 			page 79


 4447              	.LVL468:
 4448 0018 FFF7FEFF 		bl	_ZN7creator3I2C9ReadBytesEhhPhh
 4449              	.LVL469:
 4450              		.loc 1 900 0
 4451 001c 02B0     		add	sp, sp, #8
 4452              		.cfi_def_cfa_offset 16
 4453              		@ sp needed
 4454 001e 70BD     		pop	{r4, r5, r6, pc}
 4455              		.cfi_endproc
 4456              	.LFE64:
 4457              		.fnend
 4458              		.size	_ZN7LSM9DS111xgReadBytesEhPhh, .-_ZN7LSM9DS111xgReadBytesEhPhh
 4459              		.section	.text._ZN7LSM9DS19mReadByteEh,"ax",%progbits
 4460              		.align	2
 4461              		.p2align 4,,15
 4462              		.global	_ZN7LSM9DS19mReadByteEh
 4463              		.thumb
 4464              		.thumb_func
 4465              		.type	_ZN7LSM9DS19mReadByteEh, %function
 4466              	_ZN7LSM9DS19mReadByteEh:
 4467              		.fnstart
 4468              	.LFB65:
 4469              		.loc 1 902 0
 4470              		.cfi_startproc
 4471              		@ args = 0, pretend = 0, frame = 0
 4472              		@ frame_needed = 0, uses_anonymous_args = 0
 4473              		@ link register save eliminated.
 4474              	.LVL470:
 4475              		.loc 1 902 0
 4476 0000 0346     		mov	r3, r0
 4477 0002 0A46     		mov	r2, r1
 4478              		.loc 1 903 0
 4479 0004 D0F88400 		ldr	r0, [r0, #132]
 4480              	.LVL471:
 4481 0008 93F87210 		ldrb	r1, [r3, #114]	@ zero_extendqisi2
 4482              	.LVL472:
 4483 000c FFF7FEBF 		b	_ZN7creator3I2C8ReadByteEhh
 4484              	.LVL473:
 4485              		.cfi_endproc
 4486              	.LFE65:
 4487              		.cantunwind
 4488              		.fnend
 4489              		.size	_ZN7LSM9DS19mReadByteEh, .-_ZN7LSM9DS19mReadByteEh
 4490              		.section	.text._ZN7LSM9DS110mReadBytesEhPhh,"ax",%progbits
 4491              		.align	2
 4492              		.p2align 4,,15
 4493              		.global	_ZN7LSM9DS110mReadBytesEhPhh
 4494              		.thumb
 4495              		.thumb_func
 4496              		.type	_ZN7LSM9DS110mReadBytesEhPhh, %function
 4497              	_ZN7LSM9DS110mReadBytesEhPhh:
 4498              		.fnstart
 4499              	.LFB66:
 4500              		.loc 1 906 0
 4501              		.cfi_startproc
 4502              		@ args = 0, pretend = 0, frame = 0
 4503              		@ frame_needed = 0, uses_anonymous_args = 0
ARM GAS  /tmp/ccoI4Tqz.s 			page 80


 4504              	.LVL474:
 4505 0000 70B5     		push	{r4, r5, r6, lr}
 4506              		.save {r4, r5, r6, lr}
 4507              		.cfi_def_cfa_offset 16
 4508              		.cfi_offset 4, -16
 4509              		.cfi_offset 5, -12
 4510              		.cfi_offset 6, -8
 4511              		.cfi_offset 14, -4
 4512 0002 0E46     		mov	r6, r1
 4513 0004 1446     		mov	r4, r2
 4514              		.loc 1 907 0
 4515 0006 D0F88450 		ldr	r5, [r0, #132]
 4516              		.loc 1 906 0
 4517              		.pad #8
 4518 000a 82B0     		sub	sp, sp, #8
 4519              		.cfi_def_cfa_offset 24
 4520              		.loc 1 907 0
 4521 000c 90F87210 		ldrb	r1, [r0, #114]	@ zero_extendqisi2
 4522              	.LVL475:
 4523 0010 3246     		mov	r2, r6
 4524              	.LVL476:
 4525 0012 0093     		str	r3, [sp]
 4526 0014 2846     		mov	r0, r5
 4527              	.LVL477:
 4528 0016 2346     		mov	r3, r4
 4529              	.LVL478:
 4530 0018 FFF7FEFF 		bl	_ZN7creator3I2C9ReadBytesEhhPhh
 4531              	.LVL479:
 4532              		.loc 1 908 0
 4533 001c 02B0     		add	sp, sp, #8
 4534              		.cfi_def_cfa_offset 16
 4535              		@ sp needed
 4536 001e 70BD     		pop	{r4, r5, r6, pc}
 4537              		.cfi_endproc
 4538              	.LFE66:
 4539              		.fnend
 4540              		.size	_ZN7LSM9DS110mReadBytesEhPhh, .-_ZN7LSM9DS110mReadBytesEhPhh
 4541              		.global	magSensitivity
 4542              		.section	.rodata.CSWTCH.36,"a",%progbits
 4543              		.align	2
 4544              		.set	.LANCHOR0,. + 0
 4545              		.type	CSWTCH.36, %object
 4546              		.size	CSWTCH.36, 9
 4547              	CSWTCH.36:
 4548 0000 20       		.byte	32
 4549 0001 00       		.byte	0
 4550 0002 00       		.byte	0
 4551 0003 00       		.byte	0
 4552 0004 40       		.byte	64
 4553 0005 00       		.byte	0
 4554 0006 00       		.byte	0
 4555 0007 00       		.byte	0
 4556 0008 60       		.byte	96
 4557              		.section	.data.magSensitivity,"aw",%progbits
 4558              		.align	2
 4559              		.set	.LANCHOR1,. + 0
 4560              		.type	magSensitivity, %object
ARM GAS  /tmp/ccoI4Tqz.s 			page 81


 4561              		.size	magSensitivity, 16
 4562              	magSensitivity:
 4563 0000 F7CC1239 		.word	957533431
 4564 0004 240B9839 		.word	966265636
 4565 0008 9F71E139 		.word	971075999
 4566 000c 240B183A 		.word	974654244
 4567              		.text
 4568              	.Letext0:
 4569              		.file 2 "/usr/include/newlib/machine/_default_types.h"
 4570              		.file 3 "/usr/include/newlib/sys/_stdint.h"
 4571              		.file 4 "lsm9ds1_types.h"
 4572              		.file 5 "../third_party/ChibiOS/os/hal/platforms/AT91SAM3S/SAM3S.h"
 4573              		.file 6 "../third_party/ChibiOS/os/hal/platforms/AT91SAM3S/async.h"
 4574              		.file 7 "../third_party/ChibiOS/os/hal/platforms/AT91SAM3S/atmel_twid.h"
 4575              		.file 8 "./i2c.h"
 4576              		.file 9 "lsm9ds1.h"
 4577              		.section	.debug_info,"",%progbits
 4578              	.Ldebug_info0:
 4579 0000 93360000 		.4byte	0x3693
 4580 0004 0400     		.2byte	0x4
 4581 0006 00000000 		.4byte	.Ldebug_abbrev0
 4582 000a 04       		.byte	0x4
 4583 000b 01       		.uleb128 0x1
 4584 000c 7E000000 		.4byte	.LASF303
 4585 0010 04       		.byte	0x4
 4586 0011 B6020000 		.4byte	.LASF304
 4587 0015 40030000 		.4byte	.LASF305
 4588 0019 A0050000 		.4byte	.Ldebug_ranges0+0x5a0
 4589 001d 00000000 		.4byte	0
 4590 0021 00000000 		.4byte	.Ldebug_line0
 4591 0025 02       		.uleb128 0x2
 4592 0026 04       		.byte	0x4
 4593 0027 05       		.byte	0x5
 4594 0028 696E7400 		.ascii	"int\000"
 4595 002c 03       		.uleb128 0x3
 4596 002d 04       		.byte	0x4
 4597 002e 07       		.byte	0x7
 4598 002f 6C0A0000 		.4byte	.LASF0
 4599 0033 04       		.uleb128 0x4
 4600 0034 730C0000 		.4byte	.LASF2
 4601 0038 02       		.byte	0x2
 4602 0039 1B       		.byte	0x1b
 4603 003a 3E000000 		.4byte	0x3e
 4604 003e 03       		.uleb128 0x3
 4605 003f 01       		.byte	0x1
 4606 0040 06       		.byte	0x6
 4607 0041 48040000 		.4byte	.LASF1
 4608 0045 04       		.uleb128 0x4
 4609 0046 E5020000 		.4byte	.LASF3
 4610 004a 02       		.byte	0x2
 4611 004b 1D       		.byte	0x1d
 4612 004c 50000000 		.4byte	0x50
 4613 0050 03       		.uleb128 0x3
 4614 0051 01       		.byte	0x1
 4615 0052 08       		.byte	0x8
 4616 0053 B6040000 		.4byte	.LASF4
 4617 0057 04       		.uleb128 0x4
ARM GAS  /tmp/ccoI4Tqz.s 			page 82


 4618 0058 EA0D0000 		.4byte	.LASF5
 4619 005c 02       		.byte	0x2
 4620 005d 29       		.byte	0x29
 4621 005e 62000000 		.4byte	0x62
 4622 0062 03       		.uleb128 0x3
 4623 0063 02       		.byte	0x2
 4624 0064 05       		.byte	0x5
 4625 0065 560F0000 		.4byte	.LASF6
 4626 0069 04       		.uleb128 0x4
 4627 006a BD050000 		.4byte	.LASF7
 4628 006e 02       		.byte	0x2
 4629 006f 2B       		.byte	0x2b
 4630 0070 74000000 		.4byte	0x74
 4631 0074 03       		.uleb128 0x3
 4632 0075 02       		.byte	0x2
 4633 0076 07       		.byte	0x7
 4634 0077 8D100000 		.4byte	.LASF8
 4635 007b 03       		.uleb128 0x3
 4636 007c 04       		.byte	0x4
 4637 007d 05       		.byte	0x5
 4638 007e 2F030000 		.4byte	.LASF9
 4639 0082 04       		.uleb128 0x4
 4640 0083 23090000 		.4byte	.LASF10
 4641 0087 02       		.byte	0x2
 4642 0088 41       		.byte	0x41
 4643 0089 8D000000 		.4byte	0x8d
 4644 008d 03       		.uleb128 0x3
 4645 008e 04       		.byte	0x4
 4646 008f 07       		.byte	0x7
 4647 0090 57070000 		.4byte	.LASF11
 4648 0094 03       		.uleb128 0x3
 4649 0095 08       		.byte	0x8
 4650 0096 05       		.byte	0x5
 4651 0097 36090000 		.4byte	.LASF12
 4652 009b 03       		.uleb128 0x3
 4653 009c 08       		.byte	0x8
 4654 009d 07       		.byte	0x7
 4655 009e 8C0C0000 		.4byte	.LASF13
 4656 00a2 04       		.uleb128 0x4
 4657 00a3 51000000 		.4byte	.LASF14
 4658 00a7 03       		.byte	0x3
 4659 00a8 13       		.byte	0x13
 4660 00a9 33000000 		.4byte	0x33
 4661 00ad 04       		.uleb128 0x4
 4662 00ae 54040000 		.4byte	.LASF15
 4663 00b2 03       		.byte	0x3
 4664 00b3 14       		.byte	0x14
 4665 00b4 45000000 		.4byte	0x45
 4666 00b8 04       		.uleb128 0x4
 4667 00b9 7B0F0000 		.4byte	.LASF16
 4668 00bd 03       		.byte	0x3
 4669 00be 19       		.byte	0x19
 4670 00bf 57000000 		.4byte	0x57
 4671 00c3 04       		.uleb128 0x4
 4672 00c4 C20C0000 		.4byte	.LASF17
 4673 00c8 03       		.byte	0x3
 4674 00c9 1A       		.byte	0x1a
ARM GAS  /tmp/ccoI4Tqz.s 			page 83


 4675 00ca 69000000 		.4byte	0x69
 4676 00ce 04       		.uleb128 0x4
 4677 00cf 4B100000 		.4byte	.LASF18
 4678 00d3 03       		.byte	0x3
 4679 00d4 20       		.byte	0x20
 4680 00d5 82000000 		.4byte	0x82
 4681 00d9 05       		.uleb128 0x5
 4682 00da 0F0B0000 		.4byte	.LASF21
 4683 00de 01       		.byte	0x1
 4684 00df 04       		.byte	0x4
 4685 00e0 1E       		.byte	0x1e
 4686 00e1 F2000000 		.4byte	0xf2
 4687 00e5 06       		.uleb128 0x6
 4688 00e6 1E0C0000 		.4byte	.LASF19
 4689 00ea 00       		.sleb128 0
 4690 00eb 06       		.uleb128 0x6
 4691 00ec 0B0C0000 		.4byte	.LASF20
 4692 00f0 01       		.sleb128 1
 4693 00f1 00       		.byte	0
 4694 00f2 05       		.uleb128 0x5
 4695 00f3 68110000 		.4byte	.LASF22
 4696 00f7 01       		.byte	0x1
 4697 00f8 04       		.byte	0x4
 4698 00f9 65       		.byte	0x65
 4699 00fa 0B010000 		.4byte	0x10b
 4700 00fe 06       		.uleb128 0x6
 4701 00ff D70A0000 		.4byte	.LASF23
 4702 0103 0C       		.sleb128 12
 4703 0104 06       		.uleb128 0x6
 4704 0105 DF0A0000 		.4byte	.LASF24
 4705 0109 0D       		.sleb128 13
 4706 010a 00       		.byte	0
 4707 010b 05       		.uleb128 0x5
 4708 010c 5C020000 		.4byte	.LASF25
 4709 0110 01       		.byte	0x1
 4710 0111 04       		.byte	0x4
 4711 0112 8D       		.byte	0x8d
 4712 0113 24010000 		.4byte	0x124
 4713 0117 06       		.uleb128 0x6
 4714 0118 97050000 		.4byte	.LASF26
 4715 011c 00       		.sleb128 0
 4716 011d 06       		.uleb128 0x6
 4717 011e 6F000000 		.4byte	.LASF27
 4718 0122 01       		.sleb128 1
 4719 0123 00       		.byte	0
 4720 0124 05       		.uleb128 0x5
 4721 0125 A00B0000 		.4byte	.LASF28
 4722 0129 01       		.byte	0x1
 4723 012a 04       		.byte	0x4
 4724 012b 8F       		.byte	0x8f
 4725 012c 3D010000 		.4byte	0x13d
 4726 0130 06       		.uleb128 0x6
 4727 0131 D60C0000 		.4byte	.LASF29
 4728 0135 00       		.sleb128 0
 4729 0136 06       		.uleb128 0x6
 4730 0137 B80E0000 		.4byte	.LASF30
 4731 013b 01       		.sleb128 1
ARM GAS  /tmp/ccoI4Tqz.s 			page 84


 4732 013c 00       		.byte	0
 4733 013d 05       		.uleb128 0x5
 4734 013e BA0A0000 		.4byte	.LASF31
 4735 0142 01       		.byte	0x1
 4736 0143 04       		.byte	0x4
 4737 0144 91       		.byte	0x91
 4738 0145 68010000 		.4byte	0x168
 4739 0149 06       		.uleb128 0x6
 4740 014a D6100000 		.4byte	.LASF32
 4741 014e 00       		.sleb128 0
 4742 014f 06       		.uleb128 0x6
 4743 0150 66000000 		.4byte	.LASF33
 4744 0154 01       		.sleb128 1
 4745 0155 06       		.uleb128 0x6
 4746 0156 11080000 		.4byte	.LASF34
 4747 015a 03       		.sleb128 3
 4748 015b 06       		.uleb128 0x6
 4749 015c 4D0C0000 		.4byte	.LASF35
 4750 0160 04       		.sleb128 4
 4751 0161 06       		.uleb128 0x6
 4752 0162 9E060000 		.4byte	.LASF36
 4753 0166 05       		.sleb128 5
 4754 0167 00       		.byte	0
 4755 0168 07       		.uleb128 0x7
 4756 0169 C9100000 		.4byte	.LASF52
 4757 016d 12       		.byte	0x12
 4758 016e 04       		.byte	0x4
 4759 016f 99       		.byte	0x99
 4760 0170 29020000 		.4byte	0x229
 4761 0174 08       		.uleb128 0x8
 4762 0175 4F070000 		.4byte	.LASF37
 4763 0179 04       		.byte	0x4
 4764 017a 9B       		.byte	0x9b
 4765 017b AD000000 		.4byte	0xad
 4766 017f 00       		.byte	0
 4767 0180 08       		.uleb128 0x8
 4768 0181 89040000 		.4byte	.LASF38
 4769 0185 04       		.byte	0x4
 4770 0186 9C       		.byte	0x9c
 4771 0187 C3000000 		.4byte	0xc3
 4772 018b 02       		.byte	0x2
 4773 018c 08       		.uleb128 0x8
 4774 018d F7090000 		.4byte	.LASF39
 4775 0191 04       		.byte	0x4
 4776 0192 9D       		.byte	0x9d
 4777 0193 AD000000 		.4byte	0xad
 4778 0197 04       		.byte	0x4
 4779 0198 08       		.uleb128 0x8
 4780 0199 E70A0000 		.4byte	.LASF40
 4781 019d 04       		.byte	0x4
 4782 019e 9F       		.byte	0x9f
 4783 019f AD000000 		.4byte	0xad
 4784 01a3 05       		.byte	0x5
 4785 01a4 08       		.uleb128 0x8
 4786 01a5 3D010000 		.4byte	.LASF41
 4787 01a9 04       		.byte	0x4
 4788 01aa A0       		.byte	0xa0
ARM GAS  /tmp/ccoI4Tqz.s 			page 85


 4789 01ab AD000000 		.4byte	0xad
 4790 01af 06       		.byte	0x6
 4791 01b0 08       		.uleb128 0x8
 4792 01b1 44020000 		.4byte	.LASF42
 4793 01b5 04       		.byte	0x4
 4794 01b6 A1       		.byte	0xa1
 4795 01b7 AD000000 		.4byte	0xad
 4796 01bb 07       		.byte	0x7
 4797 01bc 08       		.uleb128 0x8
 4798 01bd D30E0000 		.4byte	.LASF43
 4799 01c1 04       		.byte	0x4
 4800 01c2 A2       		.byte	0xa2
 4801 01c3 AD000000 		.4byte	0xad
 4802 01c7 08       		.byte	0x8
 4803 01c8 08       		.uleb128 0x8
 4804 01c9 36040000 		.4byte	.LASF44
 4805 01cd 04       		.byte	0x4
 4806 01ce A3       		.byte	0xa3
 4807 01cf AD000000 		.4byte	0xad
 4808 01d3 09       		.byte	0x9
 4809 01d4 08       		.uleb128 0x8
 4810 01d5 3C040000 		.4byte	.LASF45
 4811 01d9 04       		.byte	0x4
 4812 01da A4       		.byte	0xa4
 4813 01db AD000000 		.4byte	0xad
 4814 01df 0A       		.byte	0xa
 4815 01e0 08       		.uleb128 0x8
 4816 01e1 42040000 		.4byte	.LASF46
 4817 01e5 04       		.byte	0x4
 4818 01e6 A5       		.byte	0xa5
 4819 01e7 AD000000 		.4byte	0xad
 4820 01eb 0B       		.byte	0xb
 4821 01ec 08       		.uleb128 0x8
 4822 01ed 690F0000 		.4byte	.LASF47
 4823 01f1 04       		.byte	0x4
 4824 01f2 A6       		.byte	0xa6
 4825 01f3 AD000000 		.4byte	0xad
 4826 01f7 0C       		.byte	0xc
 4827 01f8 08       		.uleb128 0x8
 4828 01f9 37070000 		.4byte	.LASF48
 4829 01fd 04       		.byte	0x4
 4830 01fe A7       		.byte	0xa7
 4831 01ff AD000000 		.4byte	0xad
 4832 0203 0D       		.byte	0xd
 4833 0204 08       		.uleb128 0x8
 4834 0205 3F070000 		.4byte	.LASF49
 4835 0209 04       		.byte	0x4
 4836 020a A8       		.byte	0xa8
 4837 020b AD000000 		.4byte	0xad
 4838 020f 0E       		.byte	0xe
 4839 0210 08       		.uleb128 0x8
 4840 0211 47070000 		.4byte	.LASF50
 4841 0215 04       		.byte	0x4
 4842 0216 A9       		.byte	0xa9
 4843 0217 AD000000 		.4byte	0xad
 4844 021b 0F       		.byte	0xf
 4845 021c 08       		.uleb128 0x8
ARM GAS  /tmp/ccoI4Tqz.s 			page 86


 4846 021d C80A0000 		.4byte	.LASF51
 4847 0221 04       		.byte	0x4
 4848 0222 AA       		.byte	0xaa
 4849 0223 AD000000 		.4byte	0xad
 4850 0227 10       		.byte	0x10
 4851 0228 00       		.byte	0
 4852 0229 07       		.uleb128 0x7
 4853 022a 88050000 		.4byte	.LASF53
 4854 022e 03       		.byte	0x3
 4855 022f 04       		.byte	0x4
 4856 0230 AD       		.byte	0xad
 4857 0231 5A020000 		.4byte	0x25a
 4858 0235 08       		.uleb128 0x8
 4859 0236 41080000 		.4byte	.LASF54
 4860 023a 04       		.byte	0x4
 4861 023b AE       		.byte	0xae
 4862 023c AD000000 		.4byte	0xad
 4863 0240 00       		.byte	0
 4864 0241 08       		.uleb128 0x8
 4865 0242 41110000 		.4byte	.LASF55
 4866 0246 04       		.byte	0x4
 4867 0247 AF       		.byte	0xaf
 4868 0248 AD000000 		.4byte	0xad
 4869 024c 01       		.byte	0x1
 4870 024d 08       		.uleb128 0x8
 4871 024e B10B0000 		.4byte	.LASF56
 4872 0252 04       		.byte	0x4
 4873 0253 B0       		.byte	0xb0
 4874 0254 AD000000 		.4byte	0xad
 4875 0258 02       		.byte	0x2
 4876 0259 00       		.byte	0
 4877 025a 07       		.uleb128 0x7
 4878 025b 4E020000 		.4byte	.LASF57
 4879 025f 09       		.byte	0x9
 4880 0260 04       		.byte	0x4
 4881 0261 B3       		.byte	0xb3
 4882 0262 D3020000 		.4byte	0x2d3
 4883 0266 08       		.uleb128 0x8
 4884 0267 4F070000 		.4byte	.LASF37
 4885 026b 04       		.byte	0x4
 4886 026c B5       		.byte	0xb5
 4887 026d AD000000 		.4byte	0xad
 4888 0271 00       		.byte	0
 4889 0272 08       		.uleb128 0x8
 4890 0273 89040000 		.4byte	.LASF38
 4891 0277 04       		.byte	0x4
 4892 0278 B6       		.byte	0xb6
 4893 0279 AD000000 		.4byte	0xad
 4894 027d 01       		.byte	0x1
 4895 027e 08       		.uleb128 0x8
 4896 027f F7090000 		.4byte	.LASF39
 4897 0283 04       		.byte	0x4
 4898 0284 B7       		.byte	0xb7
 4899 0285 AD000000 		.4byte	0xad
 4900 0289 02       		.byte	0x2
 4901 028a 08       		.uleb128 0x8
 4902 028b 37070000 		.4byte	.LASF48
ARM GAS  /tmp/ccoI4Tqz.s 			page 87


 4903 028f 04       		.byte	0x4
 4904 0290 B9       		.byte	0xb9
 4905 0291 AD000000 		.4byte	0xad
 4906 0295 03       		.byte	0x3
 4907 0296 08       		.uleb128 0x8
 4908 0297 3F070000 		.4byte	.LASF49
 4909 029b 04       		.byte	0x4
 4910 029c BA       		.byte	0xba
 4911 029d AD000000 		.4byte	0xad
 4912 02a1 04       		.byte	0x4
 4913 02a2 08       		.uleb128 0x8
 4914 02a3 47070000 		.4byte	.LASF50
 4915 02a7 04       		.byte	0x4
 4916 02a8 BB       		.byte	0xbb
 4917 02a9 AD000000 		.4byte	0xad
 4918 02ad 05       		.byte	0x5
 4919 02ae 08       		.uleb128 0x8
 4920 02af E70A0000 		.4byte	.LASF40
 4921 02b3 04       		.byte	0x4
 4922 02b4 BC       		.byte	0xbc
 4923 02b5 A2000000 		.4byte	0xa2
 4924 02b9 06       		.byte	0x6
 4925 02ba 08       		.uleb128 0x8
 4926 02bb A40F0000 		.4byte	.LASF58
 4927 02bf 04       		.byte	0x4
 4928 02c0 BD       		.byte	0xbd
 4929 02c1 AD000000 		.4byte	0xad
 4930 02c5 07       		.byte	0x7
 4931 02c6 08       		.uleb128 0x8
 4932 02c7 49050000 		.4byte	.LASF59
 4933 02cb 04       		.byte	0x4
 4934 02cc BE       		.byte	0xbe
 4935 02cd AD000000 		.4byte	0xad
 4936 02d1 08       		.byte	0x8
 4937 02d2 00       		.byte	0
 4938 02d3 07       		.uleb128 0x7
 4939 02d4 BD030000 		.4byte	.LASF60
 4940 02d8 08       		.byte	0x8
 4941 02d9 04       		.byte	0x4
 4942 02da C1       		.byte	0xc1
 4943 02db 40030000 		.4byte	0x340
 4944 02df 08       		.uleb128 0x8
 4945 02e0 4F070000 		.4byte	.LASF37
 4946 02e4 04       		.byte	0x4
 4947 02e5 C3       		.byte	0xc3
 4948 02e6 AD000000 		.4byte	0xad
 4949 02ea 00       		.byte	0
 4950 02eb 08       		.uleb128 0x8
 4951 02ec 89040000 		.4byte	.LASF38
 4952 02f0 04       		.byte	0x4
 4953 02f1 C4       		.byte	0xc4
 4954 02f2 AD000000 		.4byte	0xad
 4955 02f6 01       		.byte	0x1
 4956 02f7 08       		.uleb128 0x8
 4957 02f8 F7090000 		.4byte	.LASF39
 4958 02fc 04       		.byte	0x4
 4959 02fd C5       		.byte	0xc5
ARM GAS  /tmp/ccoI4Tqz.s 			page 88


 4960 02fe AD000000 		.4byte	0xad
 4961 0302 02       		.byte	0x2
 4962 0303 08       		.uleb128 0x8
 4963 0304 FC0E0000 		.4byte	.LASF61
 4964 0308 04       		.byte	0x4
 4965 0309 C7       		.byte	0xc7
 4966 030a AD000000 		.4byte	0xad
 4967 030e 03       		.byte	0x3
 4968 030f 08       		.uleb128 0x8
 4969 0310 DA060000 		.4byte	.LASF62
 4970 0314 04       		.byte	0x4
 4971 0315 C8       		.byte	0xc8
 4972 0316 AD000000 		.4byte	0xad
 4973 031a 04       		.byte	0x4
 4974 031b 08       		.uleb128 0x8
 4975 031c 8B030000 		.4byte	.LASF63
 4976 0320 04       		.byte	0x4
 4977 0321 C9       		.byte	0xc9
 4978 0322 AD000000 		.4byte	0xad
 4979 0326 05       		.byte	0x5
 4980 0327 08       		.uleb128 0x8
 4981 0328 3D010000 		.4byte	.LASF41
 4982 032c 04       		.byte	0x4
 4983 032d CA       		.byte	0xca
 4984 032e AD000000 		.4byte	0xad
 4985 0332 06       		.byte	0x6
 4986 0333 08       		.uleb128 0x8
 4987 0334 75090000 		.4byte	.LASF64
 4988 0338 04       		.byte	0x4
 4989 0339 CB       		.byte	0xcb
 4990 033a AD000000 		.4byte	0xad
 4991 033e 07       		.byte	0x7
 4992 033f 00       		.byte	0
 4993 0340 07       		.uleb128 0x7
 4994 0341 DA080000 		.4byte	.LASF65
 4995 0345 01       		.byte	0x1
 4996 0346 04       		.byte	0x4
 4997 0347 CE       		.byte	0xce
 4998 0348 59030000 		.4byte	0x359
 4999 034c 08       		.uleb128 0x8
 5000 034d 4F070000 		.4byte	.LASF37
 5001 0351 04       		.byte	0x4
 5002 0352 D0       		.byte	0xd0
 5003 0353 AD000000 		.4byte	0xad
 5004 0357 00       		.byte	0
 5005 0358 00       		.byte	0
 5006 0359 07       		.uleb128 0x7
 5007 035a 8A0B0000 		.4byte	.LASF66
 5008 035e 28       		.byte	0x28
 5009 035f 04       		.byte	0x4
 5010 0360 D3       		.byte	0xd3
 5011 0361 A2030000 		.4byte	0x3a2
 5012 0365 08       		.uleb128 0x8
 5013 0366 7C0C0000 		.4byte	.LASF67
 5014 036a 04       		.byte	0x4
 5015 036b D4       		.byte	0xd4
 5016 036c 29020000 		.4byte	0x229
ARM GAS  /tmp/ccoI4Tqz.s 			page 89


 5017 0370 00       		.byte	0
 5018 0371 08       		.uleb128 0x8
 5019 0372 83050000 		.4byte	.LASF68
 5020 0376 04       		.byte	0x4
 5021 0377 D6       		.byte	0xd6
 5022 0378 68010000 		.4byte	0x168
 5023 037c 04       		.byte	0x4
 5024 037d 08       		.uleb128 0x8
 5025 037e 04100000 		.4byte	.LASF69
 5026 0382 04       		.byte	0x4
 5027 0383 D7       		.byte	0xd7
 5028 0384 5A020000 		.4byte	0x25a
 5029 0388 16       		.byte	0x16
 5030 0389 09       		.uleb128 0x9
 5031 038a 6D616700 		.ascii	"mag\000"
 5032 038e 04       		.byte	0x4
 5033 038f D8       		.byte	0xd8
 5034 0390 D3020000 		.4byte	0x2d3
 5035 0394 1F       		.byte	0x1f
 5036 0395 08       		.uleb128 0x8
 5037 0396 54110000 		.4byte	.LASF70
 5038 039a 04       		.byte	0x4
 5039 039b DA       		.byte	0xda
 5040 039c 40030000 		.4byte	0x340
 5041 03a0 27       		.byte	0x27
 5042 03a1 00       		.byte	0
 5043 03a2 0A       		.uleb128 0xa
 5044 03a3 04       		.byte	0x4
 5045 03a4 0B       		.uleb128 0xb
 5046 03a5 AD000000 		.4byte	0xad
 5047 03a9 0B       		.uleb128 0xb
 5048 03aa CE000000 		.4byte	0xce
 5049 03ae 03       		.uleb128 0x3
 5050 03af 04       		.byte	0x4
 5051 03b0 07       		.byte	0x7
 5052 03b1 58000000 		.4byte	.LASF71
 5053 03b5 0C       		.uleb128 0xc
 5054 03b6 8D000000 		.4byte	0x8d
 5055 03ba C5030000 		.4byte	0x3c5
 5056 03be 0D       		.uleb128 0xd
 5057 03bf AE030000 		.4byte	0x3ae
 5058 03c3 02       		.byte	0x2
 5059 03c4 00       		.byte	0
 5060 03c5 0C       		.uleb128 0xc
 5061 03c6 8D000000 		.4byte	0x8d
 5062 03ca D5030000 		.4byte	0x3d5
 5063 03ce 0D       		.uleb128 0xd
 5064 03cf AE030000 		.4byte	0x3ae
 5065 03d3 03       		.byte	0x3
 5066 03d4 00       		.byte	0
 5067 03d5 03       		.uleb128 0x3
 5068 03d6 01       		.byte	0x1
 5069 03d7 08       		.byte	0x8
 5070 03d8 5A050000 		.4byte	.LASF72
 5071 03dc 0E       		.uleb128 0xe
 5072 03dd 04       		.byte	0x4
 5073 03de AD000000 		.4byte	0xad
ARM GAS  /tmp/ccoI4Tqz.s 			page 90


 5074 03e2 04       		.uleb128 0x4
 5075 03e3 750F0000 		.4byte	.LASF73
 5076 03e7 05       		.byte	0x5
 5077 03e8 37       		.byte	0x37
 5078 03e9 A9030000 		.4byte	0x3a9
 5079 03ed 04       		.uleb128 0x4
 5080 03ee 7C010000 		.4byte	.LASF74
 5081 03f2 05       		.byte	0x5
 5082 03f3 39       		.byte	0x39
 5083 03f4 A9030000 		.4byte	0x3a9
 5084 03f8 04       		.uleb128 0x4
 5085 03f9 FE0F0000 		.4byte	.LASF75
 5086 03fd 05       		.byte	0x5
 5087 03fe 3A       		.byte	0x3a
 5088 03ff A9030000 		.4byte	0x3a9
 5089 0403 0F       		.uleb128 0xf
 5090 0404 2801     		.2byte	0x128
 5091 0406 05       		.byte	0x5
 5092 0407 5616     		.2byte	0x1656
 5093 0409 2B0D0000 		.4byte	.LASF306
 5094 040d 47050000 		.4byte	0x547
 5095 0411 10       		.uleb128 0x10
 5096 0412 2A060000 		.4byte	.LASF76
 5097 0416 05       		.byte	0x5
 5098 0417 5716     		.2byte	0x1657
 5099 0419 ED030000 		.4byte	0x3ed
 5100 041d 00       		.byte	0
 5101 041e 10       		.uleb128 0x10
 5102 041f BA0B0000 		.4byte	.LASF77
 5103 0423 05       		.byte	0x5
 5104 0424 5816     		.2byte	0x1658
 5105 0426 F8030000 		.4byte	0x3f8
 5106 042a 04       		.byte	0x4
 5107 042b 10       		.uleb128 0x10
 5108 042c D70F0000 		.4byte	.LASF78
 5109 0430 05       		.byte	0x5
 5110 0431 5916     		.2byte	0x1659
 5111 0433 F8030000 		.4byte	0x3f8
 5112 0437 08       		.byte	0x8
 5113 0438 10       		.uleb128 0x10
 5114 0439 5C040000 		.4byte	.LASF79
 5115 043d 05       		.byte	0x5
 5116 043e 5A16     		.2byte	0x165a
 5117 0440 F8030000 		.4byte	0x3f8
 5118 0444 0C       		.byte	0xc
 5119 0445 10       		.uleb128 0x10
 5120 0446 380D0000 		.4byte	.LASF80
 5121 044a 05       		.byte	0x5
 5122 044b 5B16     		.2byte	0x165b
 5123 044d F8030000 		.4byte	0x3f8
 5124 0451 10       		.byte	0x10
 5125 0452 10       		.uleb128 0x10
 5126 0453 670E0000 		.4byte	.LASF81
 5127 0457 05       		.byte	0x5
 5128 0458 5C16     		.2byte	0x165c
 5129 045a 47050000 		.4byte	0x547
 5130 045e 14       		.byte	0x14
ARM GAS  /tmp/ccoI4Tqz.s 			page 91


 5131 045f 10       		.uleb128 0x10
 5132 0460 75020000 		.4byte	.LASF82
 5133 0464 05       		.byte	0x5
 5134 0465 5D16     		.2byte	0x165d
 5135 0467 E2030000 		.4byte	0x3e2
 5136 046b 20       		.byte	0x20
 5137 046c 10       		.uleb128 0x10
 5138 046d 890A0000 		.4byte	.LASF83
 5139 0471 05       		.byte	0x5
 5140 0472 5E16     		.2byte	0x165e
 5141 0474 ED030000 		.4byte	0x3ed
 5142 0478 24       		.byte	0x24
 5143 0479 10       		.uleb128 0x10
 5144 047a 300A0000 		.4byte	.LASF84
 5145 047e 05       		.byte	0x5
 5146 047f 5F16     		.2byte	0x165f
 5147 0481 ED030000 		.4byte	0x3ed
 5148 0485 28       		.byte	0x28
 5149 0486 10       		.uleb128 0x10
 5150 0487 830F0000 		.4byte	.LASF85
 5151 048b 05       		.byte	0x5
 5152 048c 6016     		.2byte	0x1660
 5153 048e E2030000 		.4byte	0x3e2
 5154 0492 2C       		.byte	0x2c
 5155 0493 10       		.uleb128 0x10
 5156 0494 EE080000 		.4byte	.LASF86
 5157 0498 05       		.byte	0x5
 5158 0499 6116     		.2byte	0x1661
 5159 049b E2030000 		.4byte	0x3e2
 5160 049f 30       		.byte	0x30
 5161 04a0 10       		.uleb128 0x10
 5162 04a1 22100000 		.4byte	.LASF87
 5163 04a5 05       		.byte	0x5
 5164 04a6 6216     		.2byte	0x1662
 5165 04a8 ED030000 		.4byte	0x3ed
 5166 04ac 34       		.byte	0x34
 5167 04ad 10       		.uleb128 0x10
 5168 04ae 710E0000 		.4byte	.LASF88
 5169 04b2 05       		.byte	0x5
 5170 04b3 6316     		.2byte	0x1663
 5171 04b5 5C050000 		.4byte	0x55c
 5172 04b9 38       		.byte	0x38
 5173 04ba 11       		.uleb128 0x11
 5174 04bb E20D0000 		.4byte	.LASF89
 5175 04bf 05       		.byte	0x5
 5176 04c0 6416     		.2byte	0x1664
 5177 04c2 F8030000 		.4byte	0x3f8
 5178 04c6 0001     		.2byte	0x100
 5179 04c8 11       		.uleb128 0x11
 5180 04c9 31060000 		.4byte	.LASF90
 5181 04cd 05       		.byte	0x5
 5182 04ce 6516     		.2byte	0x1665
 5183 04d0 F8030000 		.4byte	0x3f8
 5184 04d4 0401     		.2byte	0x104
 5185 04d6 11       		.uleb128 0x11
 5186 04d7 38030000 		.4byte	.LASF91
 5187 04db 05       		.byte	0x5
ARM GAS  /tmp/ccoI4Tqz.s 			page 92


 5188 04dc 6616     		.2byte	0x1666
 5189 04de F8030000 		.4byte	0x3f8
 5190 04e2 0801     		.2byte	0x108
 5191 04e4 11       		.uleb128 0x11
 5192 04e5 760D0000 		.4byte	.LASF92
 5193 04e9 05       		.byte	0x5
 5194 04ea 6716     		.2byte	0x1667
 5195 04ec F8030000 		.4byte	0x3f8
 5196 04f0 0C01     		.2byte	0x10c
 5197 04f2 11       		.uleb128 0x11
 5198 04f3 260E0000 		.4byte	.LASF93
 5199 04f7 05       		.byte	0x5
 5200 04f8 6816     		.2byte	0x1668
 5201 04fa F8030000 		.4byte	0x3f8
 5202 04fe 1001     		.2byte	0x110
 5203 0500 11       		.uleb128 0x11
 5204 0501 95060000 		.4byte	.LASF94
 5205 0505 05       		.byte	0x5
 5206 0506 6916     		.2byte	0x1669
 5207 0508 F8030000 		.4byte	0x3f8
 5208 050c 1401     		.2byte	0x114
 5209 050e 11       		.uleb128 0x11
 5210 050f 890E0000 		.4byte	.LASF95
 5211 0513 05       		.byte	0x5
 5212 0514 6A16     		.2byte	0x166a
 5213 0516 F8030000 		.4byte	0x3f8
 5214 051a 1801     		.2byte	0x118
 5215 051c 11       		.uleb128 0x11
 5216 051d BC060000 		.4byte	.LASF96
 5217 0521 05       		.byte	0x5
 5218 0522 6B16     		.2byte	0x166b
 5219 0524 F8030000 		.4byte	0x3f8
 5220 0528 1C01     		.2byte	0x11c
 5221 052a 11       		.uleb128 0x11
 5222 052b 450A0000 		.4byte	.LASF97
 5223 052f 05       		.byte	0x5
 5224 0530 6C16     		.2byte	0x166c
 5225 0532 ED030000 		.4byte	0x3ed
 5226 0536 2001     		.2byte	0x120
 5227 0538 11       		.uleb128 0x11
 5228 0539 B9010000 		.4byte	.LASF98
 5229 053d 05       		.byte	0x5
 5230 053e 6D16     		.2byte	0x166d
 5231 0540 E2030000 		.4byte	0x3e2
 5232 0544 2401     		.2byte	0x124
 5233 0546 00       		.byte	0
 5234 0547 0B       		.uleb128 0xb
 5235 0548 B5030000 		.4byte	0x3b5
 5236 054c 0C       		.uleb128 0xc
 5237 054d 8D000000 		.4byte	0x8d
 5238 0551 5C050000 		.4byte	0x55c
 5239 0555 0D       		.uleb128 0xd
 5240 0556 AE030000 		.4byte	0x3ae
 5241 055a 31       		.byte	0x31
 5242 055b 00       		.byte	0
 5243 055c 0B       		.uleb128 0xb
 5244 055d 4C050000 		.4byte	0x54c
ARM GAS  /tmp/ccoI4Tqz.s 			page 93


 5245 0561 12       		.uleb128 0x12
 5246 0562 54776900 		.ascii	"Twi\000"
 5247 0566 05       		.byte	0x5
 5248 0567 6E16     		.2byte	0x166e
 5249 0569 03040000 		.4byte	0x403
 5250 056d 07       		.uleb128 0x7
 5251 056e A0100000 		.4byte	.LASF99
 5252 0572 18       		.byte	0x18
 5253 0573 06       		.byte	0x6
 5254 0574 3C       		.byte	0x3c
 5255 0575 9E050000 		.4byte	0x59e
 5256 0579 08       		.uleb128 0x8
 5257 057a 6F070000 		.4byte	.LASF100
 5258 057e 06       		.byte	0x6
 5259 057f 3F       		.byte	0x3f
 5260 0580 A4030000 		.4byte	0x3a4
 5261 0584 00       		.byte	0
 5262 0585 08       		.uleb128 0x8
 5263 0586 9D020000 		.4byte	.LASF101
 5264 058a 06       		.byte	0x6
 5265 058b 41       		.byte	0x41
 5266 058c A2030000 		.4byte	0x3a2
 5267 0590 04       		.byte	0x4
 5268 0591 08       		.uleb128 0x8
 5269 0592 40060000 		.4byte	.LASF102
 5270 0596 06       		.byte	0x6
 5271 0597 43       		.byte	0x43
 5272 0598 C5030000 		.4byte	0x3c5
 5273 059c 08       		.byte	0x8
 5274 059d 00       		.byte	0
 5275 059e 04       		.uleb128 0x4
 5276 059f AB0B0000 		.4byte	.LASF103
 5277 05a3 06       		.byte	0x6
 5278 05a4 44       		.byte	0x44
 5279 05a5 6D050000 		.4byte	0x56d
 5280 05a9 07       		.uleb128 0x7
 5281 05aa 120E0000 		.4byte	.LASF104
 5282 05ae 08       		.byte	0x8
 5283 05af 07       		.byte	0x7
 5284 05b0 3B       		.byte	0x3b
 5285 05b1 CE050000 		.4byte	0x5ce
 5286 05b5 08       		.uleb128 0x8
 5287 05b6 E8090000 		.4byte	.LASF105
 5288 05ba 07       		.byte	0x7
 5289 05bb 3E       		.byte	0x3e
 5290 05bc CE050000 		.4byte	0x5ce
 5291 05c0 00       		.byte	0
 5292 05c1 08       		.uleb128 0x8
 5293 05c2 D0080000 		.4byte	.LASF106
 5294 05c6 07       		.byte	0x7
 5295 05c7 40       		.byte	0x40
 5296 05c8 D4050000 		.4byte	0x5d4
 5297 05cc 04       		.byte	0x4
 5298 05cd 00       		.byte	0
 5299 05ce 0E       		.uleb128 0xe
 5300 05cf 04       		.byte	0x4
 5301 05d0 61050000 		.4byte	0x561
ARM GAS  /tmp/ccoI4Tqz.s 			page 94


 5302 05d4 0E       		.uleb128 0xe
 5303 05d5 04       		.byte	0x4
 5304 05d6 9E050000 		.4byte	0x59e
 5305 05da 04       		.uleb128 0x4
 5306 05db 46100000 		.4byte	.LASF107
 5307 05df 07       		.byte	0x7
 5308 05e0 41       		.byte	0x41
 5309 05e1 A9050000 		.4byte	0x5a9
 5310 05e5 13       		.uleb128 0x13
 5311 05e6 54100000 		.4byte	.LASF307
 5312 05ea 08       		.byte	0x8
 5313 05eb 1C       		.byte	0x1c
 5314 05ec E6060000 		.4byte	0x6e6
 5315 05f0 14       		.uleb128 0x14
 5316 05f1 49324300 		.ascii	"I2C\000"
 5317 05f5 08       		.byte	0x8
 5318 05f6 08       		.byte	0x8
 5319 05f7 1E       		.byte	0x1e
 5320 05f8 08       		.uleb128 0x8
 5321 05f9 E2090000 		.4byte	.LASF108
 5322 05fd 08       		.byte	0x8
 5323 05fe 2C       		.byte	0x2c
 5324 05ff DA050000 		.4byte	0x5da
 5325 0603 00       		.byte	0
 5326 0604 15       		.uleb128 0x15
 5327 0605 1E0B0000 		.4byte	.LASF109
 5328 0609 08       		.byte	0x8
 5329 060a 20       		.byte	0x20
 5330 060b 9C070000 		.4byte	.LASF111
 5331 060f 01       		.byte	0x1
 5332 0610 18060000 		.4byte	0x618
 5333 0614 1E060000 		.4byte	0x61e
 5334 0618 16       		.uleb128 0x16
 5335 0619 E6060000 		.4byte	0x6e6
 5336 061d 00       		.byte	0
 5337 061e 15       		.uleb128 0x15
 5338 061f 78030000 		.4byte	.LASF110
 5339 0623 08       		.byte	0x8
 5340 0624 22       		.byte	0x22
 5341 0625 AC0D0000 		.4byte	.LASF112
 5342 0629 01       		.byte	0x1
 5343 062a 32060000 		.4byte	0x632
 5344 062e 47060000 		.4byte	0x647
 5345 0632 16       		.uleb128 0x16
 5346 0633 E6060000 		.4byte	0x6e6
 5347 0637 17       		.uleb128 0x17
 5348 0638 AD000000 		.4byte	0xad
 5349 063c 17       		.uleb128 0x17
 5350 063d AD000000 		.4byte	0xad
 5351 0641 17       		.uleb128 0x17
 5352 0642 AD000000 		.4byte	0xad
 5353 0646 00       		.byte	0
 5354 0647 15       		.uleb128 0x15
 5355 0648 78030000 		.4byte	.LASF110
 5356 064c 08       		.byte	0x8
 5357 064d 24       		.byte	0x24
 5358 064e 6D0B0000 		.4byte	.LASF113
ARM GAS  /tmp/ccoI4Tqz.s 			page 95


 5359 0652 01       		.byte	0x1
 5360 0653 5B060000 		.4byte	0x65b
 5361 0657 6B060000 		.4byte	0x66b
 5362 065b 16       		.uleb128 0x16
 5363 065c E6060000 		.4byte	0x6e6
 5364 0660 17       		.uleb128 0x17
 5365 0661 AD000000 		.4byte	0xad
 5366 0665 17       		.uleb128 0x17
 5367 0666 AD000000 		.4byte	0xad
 5368 066a 00       		.byte	0
 5369 066b 18       		.uleb128 0x18
 5370 066c 800A0000 		.4byte	.LASF114
 5371 0670 08       		.byte	0x8
 5372 0671 26       		.byte	0x26
 5373 0672 83090000 		.4byte	.LASF115
 5374 0676 AD000000 		.4byte	0xad
 5375 067a 01       		.byte	0x1
 5376 067b 83060000 		.4byte	0x683
 5377 067f 93060000 		.4byte	0x693
 5378 0683 16       		.uleb128 0x16
 5379 0684 E6060000 		.4byte	0x6e6
 5380 0688 17       		.uleb128 0x17
 5381 0689 AD000000 		.4byte	0xad
 5382 068d 17       		.uleb128 0x17
 5383 068e AD000000 		.4byte	0xad
 5384 0692 00       		.byte	0
 5385 0693 18       		.uleb128 0x18
 5386 0694 800A0000 		.4byte	.LASF114
 5387 0698 08       		.byte	0x8
 5388 0699 27       		.byte	0x27
 5389 069a 3B0F0000 		.4byte	.LASF116
 5390 069e AD000000 		.4byte	0xad
 5391 06a2 01       		.byte	0x1
 5392 06a3 AB060000 		.4byte	0x6ab
 5393 06a7 B6060000 		.4byte	0x6b6
 5394 06ab 16       		.uleb128 0x16
 5395 06ac E6060000 		.4byte	0x6e6
 5396 06b0 17       		.uleb128 0x17
 5397 06b1 AD000000 		.4byte	0xad
 5398 06b5 00       		.byte	0
 5399 06b6 19       		.uleb128 0x19
 5400 06b7 83110000 		.4byte	.LASF117
 5401 06bb 08       		.byte	0x8
 5402 06bc 28       		.byte	0x28
 5403 06bd C20B0000 		.4byte	.LASF118
 5404 06c1 AD000000 		.4byte	0xad
 5405 06c5 01       		.byte	0x1
 5406 06c6 CA060000 		.4byte	0x6ca
 5407 06ca 16       		.uleb128 0x16
 5408 06cb E6060000 		.4byte	0x6e6
 5409 06cf 17       		.uleb128 0x17
 5410 06d0 AD000000 		.4byte	0xad
 5411 06d4 17       		.uleb128 0x17
 5412 06d5 AD000000 		.4byte	0xad
 5413 06d9 17       		.uleb128 0x17
 5414 06da DC030000 		.4byte	0x3dc
 5415 06de 17       		.uleb128 0x17
ARM GAS  /tmp/ccoI4Tqz.s 			page 96


 5416 06df AD000000 		.4byte	0xad
 5417 06e3 00       		.byte	0
 5418 06e4 00       		.byte	0
 5419 06e5 00       		.byte	0
 5420 06e6 0E       		.uleb128 0xe
 5421 06e7 04       		.byte	0x4
 5422 06e8 F0050000 		.4byte	0x5f0
 5423 06ec 05       		.uleb128 0x5
 5424 06ed DF100000 		.4byte	.LASF119
 5425 06f1 01       		.byte	0x1
 5426 06f2 09       		.byte	0x9
 5427 06f3 21       		.byte	0x21
 5428 06f4 11070000 		.4byte	0x711
 5429 06f8 06       		.uleb128 0x6
 5430 06f9 0E040000 		.4byte	.LASF120
 5431 06fd 00       		.sleb128 0
 5432 06fe 06       		.uleb128 0x6
 5433 06ff 340F0000 		.4byte	.LASF121
 5434 0703 01       		.sleb128 1
 5435 0704 06       		.uleb128 0x6
 5436 0705 7E070000 		.4byte	.LASF122
 5437 0709 02       		.sleb128 2
 5438 070a 06       		.uleb128 0x6
 5439 070b 020A0000 		.4byte	.LASF123
 5440 070f 03       		.sleb128 3
 5441 0710 00       		.byte	0
 5442 0711 1A       		.uleb128 0x1a
 5443 0712 00000000 		.4byte	.LASF139
 5444 0716 88       		.byte	0x88
 5445 0717 09       		.byte	0x9
 5446 0718 23       		.byte	0x23
 5447 0719 48100000 		.4byte	0x1048
 5448 071d 1B       		.uleb128 0x1b
 5449 071e E7010000 		.4byte	.LASF124
 5450 0722 09       		.byte	0x9
 5451 0723 25       		.byte	0x25
 5452 0724 59030000 		.4byte	0x359
 5453 0728 00       		.byte	0
 5454 0729 01       		.byte	0x1
 5455 072a 1C       		.uleb128 0x1c
 5456 072b 677800   		.ascii	"gx\000"
 5457 072e 09       		.byte	0x9
 5458 072f 2C       		.byte	0x2c
 5459 0730 B8000000 		.4byte	0xb8
 5460 0734 28       		.byte	0x28
 5461 0735 01       		.byte	0x1
 5462 0736 1C       		.uleb128 0x1c
 5463 0737 677900   		.ascii	"gy\000"
 5464 073a 09       		.byte	0x9
 5465 073b 2C       		.byte	0x2c
 5466 073c B8000000 		.4byte	0xb8
 5467 0740 2A       		.byte	0x2a
 5468 0741 01       		.byte	0x1
 5469 0742 1C       		.uleb128 0x1c
 5470 0743 677A00   		.ascii	"gz\000"
 5471 0746 09       		.byte	0x9
 5472 0747 2C       		.byte	0x2c
ARM GAS  /tmp/ccoI4Tqz.s 			page 97


 5473 0748 B8000000 		.4byte	0xb8
 5474 074c 2C       		.byte	0x2c
 5475 074d 01       		.byte	0x1
 5476 074e 1C       		.uleb128 0x1c
 5477 074f 617800   		.ascii	"ax\000"
 5478 0752 09       		.byte	0x9
 5479 0753 2D       		.byte	0x2d
 5480 0754 B8000000 		.4byte	0xb8
 5481 0758 2E       		.byte	0x2e
 5482 0759 01       		.byte	0x1
 5483 075a 1C       		.uleb128 0x1c
 5484 075b 617900   		.ascii	"ay\000"
 5485 075e 09       		.byte	0x9
 5486 075f 2D       		.byte	0x2d
 5487 0760 B8000000 		.4byte	0xb8
 5488 0764 30       		.byte	0x30
 5489 0765 01       		.byte	0x1
 5490 0766 1C       		.uleb128 0x1c
 5491 0767 617A00   		.ascii	"az\000"
 5492 076a 09       		.byte	0x9
 5493 076b 2D       		.byte	0x2d
 5494 076c B8000000 		.4byte	0xb8
 5495 0770 32       		.byte	0x32
 5496 0771 01       		.byte	0x1
 5497 0772 1C       		.uleb128 0x1c
 5498 0773 6D7800   		.ascii	"mx\000"
 5499 0776 09       		.byte	0x9
 5500 0777 2E       		.byte	0x2e
 5501 0778 B8000000 		.4byte	0xb8
 5502 077c 34       		.byte	0x34
 5503 077d 01       		.byte	0x1
 5504 077e 1C       		.uleb128 0x1c
 5505 077f 6D7900   		.ascii	"my\000"
 5506 0782 09       		.byte	0x9
 5507 0783 2E       		.byte	0x2e
 5508 0784 B8000000 		.4byte	0xb8
 5509 0788 36       		.byte	0x36
 5510 0789 01       		.byte	0x1
 5511 078a 1C       		.uleb128 0x1c
 5512 078b 6D7A00   		.ascii	"mz\000"
 5513 078e 09       		.byte	0x9
 5514 078f 2E       		.byte	0x2e
 5515 0790 B8000000 		.4byte	0xb8
 5516 0794 38       		.byte	0x38
 5517 0795 01       		.byte	0x1
 5518 0796 1B       		.uleb128 0x1b
 5519 0797 F40D0000 		.4byte	.LASF125
 5520 079b 09       		.byte	0x9
 5521 079c 2F       		.byte	0x2f
 5522 079d B8000000 		.4byte	0xb8
 5523 07a1 3A       		.byte	0x3a
 5524 07a2 01       		.byte	0x1
 5525 07a3 1B       		.uleb128 0x1b
 5526 07a4 B6060000 		.4byte	.LASF126
 5527 07a8 09       		.byte	0x9
 5528 07a9 30       		.byte	0x30
 5529 07aa 48100000 		.4byte	0x1048
ARM GAS  /tmp/ccoI4Tqz.s 			page 98


 5530 07ae 3C       		.byte	0x3c
 5531 07af 01       		.byte	0x1
 5532 07b0 1B       		.uleb128 0x1b
 5533 07b1 60060000 		.4byte	.LASF127
 5534 07b5 09       		.byte	0x9
 5535 07b6 30       		.byte	0x30
 5536 07b7 48100000 		.4byte	0x1048
 5537 07bb 48       		.byte	0x48
 5538 07bc 01       		.byte	0x1
 5539 07bd 1B       		.uleb128 0x1b
 5540 07be 69070000 		.4byte	.LASF128
 5541 07c2 09       		.byte	0x9
 5542 07c3 30       		.byte	0x30
 5543 07c4 48100000 		.4byte	0x1048
 5544 07c8 54       		.byte	0x54
 5545 07c9 01       		.byte	0x1
 5546 07ca 1B       		.uleb128 0x1b
 5547 07cb 600F0000 		.4byte	.LASF129
 5548 07cf 09       		.byte	0x9
 5549 07d0 31       		.byte	0x31
 5550 07d1 5F100000 		.4byte	0x105f
 5551 07d5 60       		.byte	0x60
 5552 07d6 01       		.byte	0x1
 5553 07d7 1B       		.uleb128 0x1b
 5554 07d8 6A0C0000 		.4byte	.LASF130
 5555 07dc 09       		.byte	0x9
 5556 07dd 31       		.byte	0x31
 5557 07de 5F100000 		.4byte	0x105f
 5558 07e2 66       		.byte	0x66
 5559 07e3 01       		.byte	0x1
 5560 07e4 1B       		.uleb128 0x1b
 5561 07e5 4B110000 		.4byte	.LASF131
 5562 07e9 09       		.byte	0x9
 5563 07ea 31       		.byte	0x31
 5564 07eb 5F100000 		.4byte	0x105f
 5565 07ef 6C       		.byte	0x6c
 5566 07f0 01       		.byte	0x1
 5567 07f1 1D       		.uleb128 0x1d
 5568 07f2 E20B0000 		.4byte	.LASF132
 5569 07f6 09       		.byte	0x9
 5570 07f7 5601     		.2byte	0x156
 5571 07f9 AD000000 		.4byte	0xad
 5572 07fd 72       		.byte	0x72
 5573 07fe 02       		.byte	0x2
 5574 07ff 1D       		.uleb128 0x1d
 5575 0800 A7100000 		.4byte	.LASF133
 5576 0804 09       		.byte	0x9
 5577 0805 5601     		.2byte	0x156
 5578 0807 AD000000 		.4byte	0xad
 5579 080b 73       		.byte	0x73
 5580 080c 02       		.byte	0x2
 5581 080d 1D       		.uleb128 0x1d
 5582 080e 8D110000 		.4byte	.LASF134
 5583 0812 09       		.byte	0x9
 5584 0813 5B01     		.2byte	0x15b
 5585 0815 58100000 		.4byte	0x1058
 5586 0819 74       		.byte	0x74
ARM GAS  /tmp/ccoI4Tqz.s 			page 99


 5587 081a 02       		.byte	0x2
 5588 081b 1D       		.uleb128 0x1d
 5589 081c 30110000 		.4byte	.LASF135
 5590 0820 09       		.byte	0x9
 5591 0821 5B01     		.2byte	0x15b
 5592 0823 58100000 		.4byte	0x1058
 5593 0827 78       		.byte	0x78
 5594 0828 02       		.byte	0x2
 5595 0829 1D       		.uleb128 0x1d
 5596 082a 61000000 		.4byte	.LASF136
 5597 082e 09       		.byte	0x9
 5598 082f 5B01     		.2byte	0x15b
 5599 0831 58100000 		.4byte	0x1058
 5600 0835 7C       		.byte	0x7c
 5601 0836 02       		.byte	0x2
 5602 0837 1D       		.uleb128 0x1d
 5603 0838 02050000 		.4byte	.LASF137
 5604 083c 09       		.byte	0x9
 5605 083d 5F01     		.2byte	0x15f
 5606 083f 6F100000 		.4byte	0x106f
 5607 0843 80       		.byte	0x80
 5608 0844 02       		.byte	0x2
 5609 0845 10       		.uleb128 0x10
 5610 0846 BE080000 		.4byte	.LASF138
 5611 084a 09       		.byte	0x9
 5612 084b F201     		.2byte	0x1f2
 5613 084d E6060000 		.4byte	0x6e6
 5614 0851 84       		.byte	0x84
 5615 0852 1E       		.uleb128 0x1e
 5616 0853 00000000 		.4byte	.LASF139
 5617 0857 09       		.byte	0x9
 5618 0858 44       		.byte	0x44
 5619 0859 76100000 		.4byte	0x1076
 5620 085d 01       		.byte	0x1
 5621 085e 66080000 		.4byte	0x866
 5622 0862 80080000 		.4byte	0x880
 5623 0866 16       		.uleb128 0x16
 5624 0867 76100000 		.4byte	0x1076
 5625 086b 17       		.uleb128 0x17
 5626 086c E6060000 		.4byte	0x6e6
 5627 0870 17       		.uleb128 0x17
 5628 0871 D9000000 		.4byte	0xd9
 5629 0875 17       		.uleb128 0x17
 5630 0876 AD000000 		.4byte	0xad
 5631 087a 17       		.uleb128 0x17
 5632 087b AD000000 		.4byte	0xad
 5633 087f 00       		.byte	0
 5634 0880 1E       		.uleb128 0x1e
 5635 0881 00000000 		.4byte	.LASF139
 5636 0885 09       		.byte	0x9
 5637 0886 46       		.byte	0x46
 5638 0887 76100000 		.4byte	0x1076
 5639 088b 01       		.byte	0x1
 5640 088c 94080000 		.4byte	0x894
 5641 0890 9F080000 		.4byte	0x89f
 5642 0894 16       		.uleb128 0x16
 5643 0895 76100000 		.4byte	0x1076
ARM GAS  /tmp/ccoI4Tqz.s 			page 100


 5644 0899 17       		.uleb128 0x17
 5645 089a E6060000 		.4byte	0x6e6
 5646 089e 00       		.byte	0
 5647 089f 18       		.uleb128 0x18
 5648 08a0 180C0000 		.4byte	.LASF140
 5649 08a4 09       		.byte	0x9
 5650 08a5 4B       		.byte	0x4b
 5651 08a6 F10A0000 		.4byte	.LASF141
 5652 08aa C3000000 		.4byte	0xc3
 5653 08ae 01       		.byte	0x1
 5654 08af B7080000 		.4byte	0x8b7
 5655 08b3 BD080000 		.4byte	0x8bd
 5656 08b7 16       		.uleb128 0x16
 5657 08b8 76100000 		.4byte	0x1076
 5658 08bc 00       		.byte	0
 5659 08bd 15       		.uleb128 0x15
 5660 08be 960B0000 		.4byte	.LASF142
 5661 08c2 09       		.byte	0x9
 5662 08c3 4D       		.byte	0x4d
 5663 08c4 5C100000 		.4byte	.LASF143
 5664 08c8 01       		.byte	0x1
 5665 08c9 D1080000 		.4byte	0x8d1
 5666 08cd DC080000 		.4byte	0x8dc
 5667 08d1 16       		.uleb128 0x16
 5668 08d2 76100000 		.4byte	0x1076
 5669 08d6 17       		.uleb128 0x17
 5670 08d7 6F100000 		.4byte	0x106f
 5671 08db 00       		.byte	0
 5672 08dc 15       		.uleb128 0x15
 5673 08dd 8B0F0000 		.4byte	.LASF144
 5674 08e1 09       		.byte	0x9
 5675 08e2 4E       		.byte	0x4e
 5676 08e3 F2030000 		.4byte	.LASF145
 5677 08e7 01       		.byte	0x1
 5678 08e8 F0080000 		.4byte	0x8f0
 5679 08ec FB080000 		.4byte	0x8fb
 5680 08f0 16       		.uleb128 0x16
 5681 08f1 76100000 		.4byte	0x1076
 5682 08f5 17       		.uleb128 0x17
 5683 08f6 6F100000 		.4byte	0x106f
 5684 08fa 00       		.byte	0
 5685 08fb 15       		.uleb128 0x15
 5686 08fc F9020000 		.4byte	.LASF146
 5687 0900 09       		.byte	0x9
 5688 0901 4F       		.byte	0x4f
 5689 0902 63010000 		.4byte	.LASF147
 5690 0906 01       		.byte	0x1
 5691 0907 0F090000 		.4byte	0x90f
 5692 090b 1F090000 		.4byte	0x91f
 5693 090f 16       		.uleb128 0x16
 5694 0910 76100000 		.4byte	0x1076
 5695 0914 17       		.uleb128 0x17
 5696 0915 AD000000 		.4byte	0xad
 5697 0919 17       		.uleb128 0x17
 5698 091a B8000000 		.4byte	0xb8
 5699 091e 00       		.byte	0
 5700 091f 18       		.uleb128 0x18
ARM GAS  /tmp/ccoI4Tqz.s 			page 101


 5701 0920 F8050000 		.4byte	.LASF148
 5702 0924 09       		.byte	0x9
 5703 0925 55       		.byte	0x55
 5704 0926 C2020000 		.4byte	.LASF149
 5705 092a AD000000 		.4byte	0xad
 5706 092e 01       		.byte	0x1
 5707 092f 37090000 		.4byte	0x937
 5708 0933 3D090000 		.4byte	0x93d
 5709 0937 16       		.uleb128 0x16
 5710 0938 76100000 		.4byte	0x1076
 5711 093c 00       		.byte	0
 5712 093d 18       		.uleb128 0x18
 5713 093e E8060000 		.4byte	.LASF150
 5714 0942 09       		.byte	0x9
 5715 0943 5B       		.byte	0x5b
 5716 0944 22020000 		.4byte	.LASF151
 5717 0948 AD000000 		.4byte	0xad
 5718 094c 01       		.byte	0x1
 5719 094d 55090000 		.4byte	0x955
 5720 0951 5B090000 		.4byte	0x95b
 5721 0955 16       		.uleb128 0x16
 5722 0956 76100000 		.4byte	0x1076
 5723 095a 00       		.byte	0
 5724 095b 18       		.uleb128 0x18
 5725 095c A8060000 		.4byte	.LASF152
 5726 0960 09       		.byte	0x9
 5727 0961 61       		.byte	0x61
 5728 0962 410D0000 		.4byte	.LASF153
 5729 0966 AD000000 		.4byte	0xad
 5730 096a 01       		.byte	0x1
 5731 096b 73090000 		.4byte	0x973
 5732 096f 79090000 		.4byte	0x979
 5733 0973 16       		.uleb128 0x16
 5734 0974 76100000 		.4byte	0x1076
 5735 0978 00       		.byte	0
 5736 0979 18       		.uleb128 0x18
 5737 097a C3080000 		.4byte	.LASF154
 5738 097e 09       		.byte	0x9
 5739 097f 6B       		.byte	0x6b
 5740 0980 C9030000 		.4byte	.LASF155
 5741 0984 AD000000 		.4byte	0xad
 5742 0988 01       		.byte	0x1
 5743 0989 91090000 		.4byte	0x991
 5744 098d 9C090000 		.4byte	0x99c
 5745 0991 16       		.uleb128 0x16
 5746 0992 76100000 		.4byte	0x1076
 5747 0996 17       		.uleb128 0x17
 5748 0997 EC060000 		.4byte	0x6ec
 5749 099b 00       		.byte	0
 5750 099c 15       		.uleb128 0x15
 5751 099d 830C0000 		.4byte	.LASF156
 5752 09a1 09       		.byte	0x9
 5753 09a2 71       		.byte	0x71
 5754 09a3 990E0000 		.4byte	.LASF157
 5755 09a7 01       		.byte	0x1
 5756 09a8 B0090000 		.4byte	0x9b0
 5757 09ac B6090000 		.4byte	0x9b6
ARM GAS  /tmp/ccoI4Tqz.s 			page 102


 5758 09b0 16       		.uleb128 0x16
 5759 09b1 76100000 		.4byte	0x1076
 5760 09b5 00       		.byte	0
 5761 09b6 18       		.uleb128 0x18
 5762 09b7 830C0000 		.4byte	.LASF156
 5763 09bb 09       		.byte	0x9
 5764 09bc 79       		.byte	0x79
 5765 09bd 5F050000 		.4byte	.LASF158
 5766 09c1 B8000000 		.4byte	0xb8
 5767 09c5 01       		.byte	0x1
 5768 09c6 CE090000 		.4byte	0x9ce
 5769 09ca D9090000 		.4byte	0x9d9
 5770 09ce 16       		.uleb128 0x16
 5771 09cf 76100000 		.4byte	0x1076
 5772 09d3 17       		.uleb128 0x17
 5773 09d4 EC060000 		.4byte	0x6ec
 5774 09d8 00       		.byte	0
 5775 09d9 15       		.uleb128 0x15
 5776 09da 350C0000 		.4byte	.LASF159
 5777 09de 09       		.byte	0x9
 5778 09df 7F       		.byte	0x7f
 5779 09e0 18110000 		.4byte	.LASF160
 5780 09e4 01       		.byte	0x1
 5781 09e5 ED090000 		.4byte	0x9ed
 5782 09e9 F3090000 		.4byte	0x9f3
 5783 09ed 16       		.uleb128 0x16
 5784 09ee 76100000 		.4byte	0x1076
 5785 09f2 00       		.byte	0
 5786 09f3 18       		.uleb128 0x18
 5787 09f4 350C0000 		.4byte	.LASF159
 5788 09f8 09       		.byte	0x9
 5789 09f9 87       		.byte	0x87
 5790 09fa 2C000000 		.4byte	.LASF161
 5791 09fe B8000000 		.4byte	0xb8
 5792 0a02 01       		.byte	0x1
 5793 0a03 0B0A0000 		.4byte	0xa0b
 5794 0a07 160A0000 		.4byte	0xa16
 5795 0a0b 16       		.uleb128 0x16
 5796 0a0c 76100000 		.4byte	0x1076
 5797 0a10 17       		.uleb128 0x17
 5798 0a11 EC060000 		.4byte	0x6ec
 5799 0a15 00       		.byte	0
 5800 0a16 15       		.uleb128 0x15
 5801 0a17 2E090000 		.4byte	.LASF162
 5802 0a1b 09       		.byte	0x9
 5803 0a1c 8D       		.byte	0x8d
 5804 0a1d A7050000 		.4byte	.LASF163
 5805 0a21 01       		.byte	0x1
 5806 0a22 2A0A0000 		.4byte	0xa2a
 5807 0a26 300A0000 		.4byte	0xa30
 5808 0a2a 16       		.uleb128 0x16
 5809 0a2b 76100000 		.4byte	0x1076
 5810 0a2f 00       		.byte	0
 5811 0a30 18       		.uleb128 0x18
 5812 0a31 2E090000 		.4byte	.LASF162
 5813 0a35 09       		.byte	0x9
 5814 0a36 95       		.byte	0x95
ARM GAS  /tmp/ccoI4Tqz.s 			page 103


 5815 0a37 7D080000 		.4byte	.LASF164
 5816 0a3b B8000000 		.4byte	0xb8
 5817 0a3f 01       		.byte	0x1
 5818 0a40 480A0000 		.4byte	0xa48
 5819 0a44 530A0000 		.4byte	0xa53
 5820 0a48 16       		.uleb128 0x16
 5821 0a49 76100000 		.4byte	0x1076
 5822 0a4d 17       		.uleb128 0x17
 5823 0a4e EC060000 		.4byte	0x6ec
 5824 0a52 00       		.byte	0
 5825 0a53 15       		.uleb128 0x15
 5826 0a54 8F010000 		.4byte	.LASF165
 5827 0a58 09       		.byte	0x9
 5828 0a59 9B       		.byte	0x9b
 5829 0a5a E70F0000 		.4byte	.LASF166
 5830 0a5e 01       		.byte	0x1
 5831 0a5f 670A0000 		.4byte	0xa67
 5832 0a63 6D0A0000 		.4byte	0xa6d
 5833 0a67 16       		.uleb128 0x16
 5834 0a68 76100000 		.4byte	0x1076
 5835 0a6c 00       		.byte	0
 5836 0a6d 18       		.uleb128 0x18
 5837 0a6e 2D040000 		.4byte	.LASF167
 5838 0a72 09       		.byte	0x9
 5839 0a73 A2       		.byte	0xa2
 5840 0a74 49060000 		.4byte	.LASF168
 5841 0a78 58100000 		.4byte	0x1058
 5842 0a7c 01       		.byte	0x1
 5843 0a7d 850A0000 		.4byte	0xa85
 5844 0a81 900A0000 		.4byte	0xa90
 5845 0a85 16       		.uleb128 0x16
 5846 0a86 76100000 		.4byte	0x1076
 5847 0a8a 17       		.uleb128 0x17
 5848 0a8b B8000000 		.4byte	0xb8
 5849 0a8f 00       		.byte	0
 5850 0a90 18       		.uleb128 0x18
 5851 0a91 9A0D0000 		.4byte	.LASF169
 5852 0a95 09       		.byte	0x9
 5853 0a96 A9       		.byte	0xa9
 5854 0a97 15040000 		.4byte	.LASF170
 5855 0a9b 58100000 		.4byte	0x1058
 5856 0a9f 01       		.byte	0x1
 5857 0aa0 A80A0000 		.4byte	0xaa8
 5858 0aa4 B30A0000 		.4byte	0xab3
 5859 0aa8 16       		.uleb128 0x16
 5860 0aa9 76100000 		.4byte	0x1076
 5861 0aad 17       		.uleb128 0x17
 5862 0aae B8000000 		.4byte	0xb8
 5863 0ab2 00       		.byte	0
 5864 0ab3 18       		.uleb128 0x18
 5865 0ab4 76070000 		.4byte	.LASF171
 5866 0ab8 09       		.byte	0x9
 5867 0ab9 B0       		.byte	0xb0
 5868 0aba 9F090000 		.4byte	.LASF172
 5869 0abe 58100000 		.4byte	0x1058
 5870 0ac2 01       		.byte	0x1
 5871 0ac3 CB0A0000 		.4byte	0xacb
ARM GAS  /tmp/ccoI4Tqz.s 			page 104


 5872 0ac7 D60A0000 		.4byte	0xad6
 5873 0acb 16       		.uleb128 0x16
 5874 0acc 76100000 		.4byte	0x1076
 5875 0ad0 17       		.uleb128 0x17
 5876 0ad1 B8000000 		.4byte	0xb8
 5877 0ad5 00       		.byte	0
 5878 0ad6 15       		.uleb128 0x15
 5879 0ad7 000E0000 		.4byte	.LASF173
 5880 0adb 09       		.byte	0x9
 5881 0adc B8       		.byte	0xb8
 5882 0add 180F0000 		.4byte	.LASF174
 5883 0ae1 01       		.byte	0x1
 5884 0ae2 EA0A0000 		.4byte	0xaea
 5885 0ae6 F50A0000 		.4byte	0xaf5
 5886 0aea 16       		.uleb128 0x16
 5887 0aeb 76100000 		.4byte	0x1076
 5888 0aef 17       		.uleb128 0x17
 5889 0af0 C3000000 		.4byte	0xc3
 5890 0af4 00       		.byte	0
 5891 0af5 15       		.uleb128 0x15
 5892 0af6 4C010000 		.4byte	.LASF175
 5893 0afa 09       		.byte	0x9
 5894 0afb C0       		.byte	0xc0
 5895 0afc 19050000 		.4byte	.LASF176
 5896 0b00 01       		.byte	0x1
 5897 0b01 090B0000 		.4byte	0xb09
 5898 0b05 140B0000 		.4byte	0xb14
 5899 0b09 16       		.uleb128 0x16
 5900 0b0a 76100000 		.4byte	0x1076
 5901 0b0e 17       		.uleb128 0x17
 5902 0b0f AD000000 		.4byte	0xad
 5903 0b13 00       		.byte	0
 5904 0b14 15       		.uleb128 0x15
 5905 0b15 980F0000 		.4byte	.LASF177
 5906 0b19 09       		.byte	0x9
 5907 0b1a C8       		.byte	0xc8
 5908 0b1b 07020000 		.4byte	.LASF178
 5909 0b1f 01       		.byte	0x1
 5910 0b20 280B0000 		.4byte	0xb28
 5911 0b24 330B0000 		.4byte	0xb33
 5912 0b28 16       		.uleb128 0x16
 5913 0b29 76100000 		.4byte	0x1076
 5914 0b2d 17       		.uleb128 0x17
 5915 0b2e AD000000 		.4byte	0xad
 5916 0b32 00       		.byte	0
 5917 0b33 15       		.uleb128 0x15
 5918 0b34 65040000 		.4byte	.LASF179
 5919 0b38 09       		.byte	0x9
 5920 0b39 CD       		.byte	0xcd
 5921 0b3a B20F0000 		.4byte	.LASF180
 5922 0b3e 01       		.byte	0x1
 5923 0b3f 470B0000 		.4byte	0xb47
 5924 0b43 520B0000 		.4byte	0xb52
 5925 0b47 16       		.uleb128 0x16
 5926 0b48 76100000 		.4byte	0x1076
 5927 0b4c 17       		.uleb128 0x17
 5928 0b4d AD000000 		.4byte	0xad
ARM GAS  /tmp/ccoI4Tqz.s 			page 105


 5929 0b51 00       		.byte	0
 5930 0b52 15       		.uleb128 0x15
 5931 0b53 5E0C0000 		.4byte	.LASF181
 5932 0b57 09       		.byte	0x9
 5933 0b58 D2       		.byte	0xd2
 5934 0b59 910A0000 		.4byte	.LASF182
 5935 0b5d 01       		.byte	0x1
 5936 0b5e 660B0000 		.4byte	0xb66
 5937 0b62 710B0000 		.4byte	0xb71
 5938 0b66 16       		.uleb128 0x16
 5939 0b67 76100000 		.4byte	0x1076
 5940 0b6b 17       		.uleb128 0x17
 5941 0b6c AD000000 		.4byte	0xad
 5942 0b70 00       		.byte	0
 5943 0b71 15       		.uleb128 0x15
 5944 0b72 2B0C0000 		.4byte	.LASF183
 5945 0b76 09       		.byte	0x9
 5946 0b77 D7       		.byte	0xd7
 5947 0b78 CA0D0000 		.4byte	.LASF184
 5948 0b7c 01       		.byte	0x1
 5949 0b7d 850B0000 		.4byte	0xb85
 5950 0b81 900B0000 		.4byte	0xb90
 5951 0b85 16       		.uleb128 0x16
 5952 0b86 76100000 		.4byte	0x1076
 5953 0b8a 17       		.uleb128 0x17
 5954 0b8b AD000000 		.4byte	0xad
 5955 0b8f 00       		.byte	0
 5956 0b90 15       		.uleb128 0x15
 5957 0b91 2F0E0000 		.4byte	.LASF185
 5958 0b95 09       		.byte	0x9
 5959 0b96 E0       		.byte	0xe0
 5960 0b97 B5090000 		.4byte	.LASF186
 5961 0b9b 01       		.byte	0x1
 5962 0b9c A40B0000 		.4byte	0xba4
 5963 0ba0 B90B0000 		.4byte	0xbb9
 5964 0ba4 16       		.uleb128 0x16
 5965 0ba5 76100000 		.4byte	0x1076
 5966 0ba9 17       		.uleb128 0x17
 5967 0baa AD000000 		.4byte	0xad
 5968 0bae 17       		.uleb128 0x17
 5969 0baf AD000000 		.4byte	0xad
 5970 0bb3 17       		.uleb128 0x17
 5971 0bb4 6F100000 		.4byte	0x106f
 5972 0bb8 00       		.byte	0
 5973 0bb9 15       		.uleb128 0x15
 5974 0bba 09110000 		.4byte	.LASF187
 5975 0bbe 09       		.byte	0x9
 5976 0bbf EA       		.byte	0xea
 5977 0bc0 A30C0000 		.4byte	.LASF188
 5978 0bc4 01       		.byte	0x1
 5979 0bc5 CD0B0000 		.4byte	0xbcd
 5980 0bc9 DD0B0000 		.4byte	0xbdd
 5981 0bcd 16       		.uleb128 0x16
 5982 0bce 76100000 		.4byte	0x1076
 5983 0bd2 17       		.uleb128 0x17
 5984 0bd3 AD000000 		.4byte	0xad
 5985 0bd7 17       		.uleb128 0x17
ARM GAS  /tmp/ccoI4Tqz.s 			page 106


 5986 0bd8 6F100000 		.4byte	0x106f
 5987 0bdc 00       		.byte	0
 5988 0bdd 15       		.uleb128 0x15
 5989 0bde 59110000 		.4byte	.LASF189
 5990 0be2 09       		.byte	0x9
 5991 0be3 F6       		.byte	0xf6
 5992 0be4 4F080000 		.4byte	.LASF190
 5993 0be8 01       		.byte	0x1
 5994 0be9 F10B0000 		.4byte	0xbf1
 5995 0bed 0B0C0000 		.4byte	0xc0b
 5996 0bf1 16       		.uleb128 0x16
 5997 0bf2 76100000 		.4byte	0x1076
 5998 0bf6 17       		.uleb128 0x17
 5999 0bf7 AD000000 		.4byte	0xad
 6000 0bfb 17       		.uleb128 0x17
 6001 0bfc EC060000 		.4byte	0x6ec
 6002 0c00 17       		.uleb128 0x17
 6003 0c01 AD000000 		.4byte	0xad
 6004 0c05 17       		.uleb128 0x17
 6005 0c06 6F100000 		.4byte	0x106f
 6006 0c0a 00       		.byte	0
 6007 0c0b 1F       		.uleb128 0x1f
 6008 0c0c 180E0000 		.4byte	.LASF191
 6009 0c10 09       		.byte	0x9
 6010 0c11 0101     		.2byte	0x101
 6011 0c13 10030000 		.4byte	.LASF193
 6012 0c17 01       		.byte	0x1
 6013 0c18 200C0000 		.4byte	0xc20
 6014 0c1c 350C0000 		.4byte	0xc35
 6015 0c20 16       		.uleb128 0x16
 6016 0c21 76100000 		.4byte	0x1076
 6017 0c25 17       		.uleb128 0x17
 6018 0c26 AD000000 		.4byte	0xad
 6019 0c2a 17       		.uleb128 0x17
 6020 0c2b 6F100000 		.4byte	0x106f
 6021 0c2f 17       		.uleb128 0x17
 6022 0c30 6F100000 		.4byte	0x106f
 6023 0c34 00       		.byte	0
 6024 0c35 1F       		.uleb128 0x1f
 6025 0c36 7B0E0000 		.4byte	.LASF192
 6026 0c3a 09       		.byte	0x9
 6027 0c3b 0D01     		.2byte	0x10d
 6028 0c3d F6080000 		.4byte	.LASF194
 6029 0c41 01       		.byte	0x1
 6030 0c42 4A0C0000 		.4byte	0xc4a
 6031 0c46 640C0000 		.4byte	0xc64
 6032 0c4a 16       		.uleb128 0x16
 6033 0c4b 76100000 		.4byte	0x1076
 6034 0c4f 17       		.uleb128 0x17
 6035 0c50 B8000000 		.4byte	0xb8
 6036 0c54 17       		.uleb128 0x17
 6037 0c55 EC060000 		.4byte	0x6ec
 6038 0c59 17       		.uleb128 0x17
 6039 0c5a AD000000 		.4byte	0xad
 6040 0c5e 17       		.uleb128 0x17
 6041 0c5f 6F100000 		.4byte	0x106f
 6042 0c63 00       		.byte	0
ARM GAS  /tmp/ccoI4Tqz.s 			page 107


 6043 0c64 1F       		.uleb128 0x1f
 6044 0c65 07080000 		.4byte	.LASF195
 6045 0c69 09       		.byte	0x9
 6046 0c6a 1D01     		.2byte	0x11d
 6047 0c6c C8070000 		.4byte	.LASF196
 6048 0c70 01       		.byte	0x1
 6049 0c71 790C0000 		.4byte	0xc79
 6050 0c75 930C0000 		.4byte	0xc93
 6051 0c79 16       		.uleb128 0x16
 6052 0c7a 76100000 		.4byte	0x1076
 6053 0c7e 17       		.uleb128 0x17
 6054 0c7f F2000000 		.4byte	0xf2
 6055 0c83 17       		.uleb128 0x17
 6056 0c84 AD000000 		.4byte	0xad
 6057 0c88 17       		.uleb128 0x17
 6058 0c89 0B010000 		.4byte	0x10b
 6059 0c8d 17       		.uleb128 0x17
 6060 0c8e 24010000 		.4byte	0x124
 6061 0c92 00       		.byte	0
 6062 0c93 1F       		.uleb128 0x1f
 6063 0c94 82010000 		.4byte	.LASF197
 6064 0c98 09       		.byte	0x9
 6065 0c99 2801     		.2byte	0x128
 6066 0c9b 8F040000 		.4byte	.LASF198
 6067 0c9f 01       		.byte	0x1
 6068 0ca0 A80C0000 		.4byte	0xca8
 6069 0ca4 BD0C0000 		.4byte	0xcbd
 6070 0ca8 16       		.uleb128 0x16
 6071 0ca9 76100000 		.4byte	0x1076
 6072 0cad 17       		.uleb128 0x17
 6073 0cae AD000000 		.4byte	0xad
 6074 0cb2 17       		.uleb128 0x17
 6075 0cb3 0B010000 		.4byte	0x10b
 6076 0cb7 17       		.uleb128 0x17
 6077 0cb8 6F100000 		.4byte	0x106f
 6078 0cbc 00       		.byte	0
 6079 0cbd 1F       		.uleb128 0x1f
 6080 0cbe C9010000 		.4byte	.LASF199
 6081 0cc2 09       		.byte	0x9
 6082 0cc3 2E01     		.2byte	0x12e
 6083 0cc5 F20C0000 		.4byte	.LASF200
 6084 0cc9 01       		.byte	0x1
 6085 0cca D20C0000 		.4byte	0xcd2
 6086 0cce DD0C0000 		.4byte	0xcdd
 6087 0cd2 16       		.uleb128 0x16
 6088 0cd3 76100000 		.4byte	0x1076
 6089 0cd7 17       		.uleb128 0x17
 6090 0cd8 C3000000 		.4byte	0xc3
 6091 0cdc 00       		.byte	0
 6092 0cdd 20       		.uleb128 0x20
 6093 0cde 540A0000 		.4byte	.LASF201
 6094 0ce2 09       		.byte	0x9
 6095 0ce3 3101     		.2byte	0x131
 6096 0ce5 EC100000 		.4byte	.LASF203
 6097 0ce9 AD000000 		.4byte	0xad
 6098 0ced 01       		.byte	0x1
 6099 0cee F60C0000 		.4byte	0xcf6
ARM GAS  /tmp/ccoI4Tqz.s 			page 108


 6100 0cf2 FC0C0000 		.4byte	0xcfc
 6101 0cf6 16       		.uleb128 0x16
 6102 0cf7 76100000 		.4byte	0x1076
 6103 0cfb 00       		.byte	0
 6104 0cfc 20       		.uleb128 0x20
 6105 0cfd 19070000 		.4byte	.LASF202
 6106 0d01 09       		.byte	0x9
 6107 0d02 3401     		.2byte	0x134
 6108 0d04 08000000 		.4byte	.LASF204
 6109 0d08 AD000000 		.4byte	0xad
 6110 0d0c 01       		.byte	0x1
 6111 0d0d 150D0000 		.4byte	0xd15
 6112 0d11 1B0D0000 		.4byte	0xd1b
 6113 0d15 16       		.uleb128 0x16
 6114 0d16 76100000 		.4byte	0x1076
 6115 0d1a 00       		.byte	0
 6116 0d1b 20       		.uleb128 0x20
 6117 0d1c 0C050000 		.4byte	.LASF205
 6118 0d20 09       		.byte	0x9
 6119 0d21 3701     		.2byte	0x137
 6120 0d23 66060000 		.4byte	.LASF206
 6121 0d27 AD000000 		.4byte	0xad
 6122 0d2b 01       		.byte	0x1
 6123 0d2c 340D0000 		.4byte	0xd34
 6124 0d30 3A0D0000 		.4byte	0xd3a
 6125 0d34 16       		.uleb128 0x16
 6126 0d35 76100000 		.4byte	0x1076
 6127 0d39 00       		.byte	0
 6128 0d3a 20       		.uleb128 0x20
 6129 0d3b 3F0C0000 		.4byte	.LASF207
 6130 0d3f 09       		.byte	0x9
 6131 0d40 3A01     		.2byte	0x13a
 6132 0d42 0E0D0000 		.4byte	.LASF208
 6133 0d46 AD000000 		.4byte	0xad
 6134 0d4a 01       		.byte	0x1
 6135 0d4b 530D0000 		.4byte	0xd53
 6136 0d4f 590D0000 		.4byte	0xd59
 6137 0d53 16       		.uleb128 0x16
 6138 0d54 76100000 		.4byte	0x1076
 6139 0d58 00       		.byte	0
 6140 0d59 1F       		.uleb128 0x1f
 6141 0d5a 7E100000 		.4byte	.LASF209
 6142 0d5e 09       		.byte	0x9
 6143 0d5f 3F01     		.2byte	0x13f
 6144 0d61 7C020000 		.4byte	.LASF210
 6145 0d65 01       		.byte	0x1
 6146 0d66 6E0D0000 		.4byte	0xd6e
 6147 0d6a 790D0000 		.4byte	0xd79
 6148 0d6e 16       		.uleb128 0x16
 6149 0d6f 76100000 		.4byte	0x1076
 6150 0d73 17       		.uleb128 0x17
 6151 0d74 6F100000 		.4byte	0x106f
 6152 0d78 00       		.byte	0
 6153 0d79 1F       		.uleb128 0x1f
 6154 0d7a CC0F0000 		.4byte	.LASF211
 6155 0d7e 09       		.byte	0x9
 6156 0d7f 4401     		.2byte	0x144
ARM GAS  /tmp/ccoI4Tqz.s 			page 109


 6157 0d81 98010000 		.4byte	.LASF212
 6158 0d85 01       		.byte	0x1
 6159 0d86 8E0D0000 		.4byte	0xd8e
 6160 0d8a 990D0000 		.4byte	0xd99
 6161 0d8e 16       		.uleb128 0x16
 6162 0d8f 76100000 		.4byte	0x1076
 6163 0d93 17       		.uleb128 0x17
 6164 0d94 6F100000 		.4byte	0x106f
 6165 0d98 00       		.byte	0
 6166 0d99 1F       		.uleb128 0x1f
 6167 0d9a A40D0000 		.4byte	.LASF213
 6168 0d9e 09       		.byte	0x9
 6169 0d9f 4E01     		.2byte	0x14e
 6170 0da1 0B0A0000 		.4byte	.LASF214
 6171 0da5 01       		.byte	0x1
 6172 0da6 AE0D0000 		.4byte	0xdae
 6173 0daa BE0D0000 		.4byte	0xdbe
 6174 0dae 16       		.uleb128 0x16
 6175 0daf 76100000 		.4byte	0x1076
 6176 0db3 17       		.uleb128 0x17
 6177 0db4 3D010000 		.4byte	0x13d
 6178 0db8 17       		.uleb128 0x17
 6179 0db9 AD000000 		.4byte	0xad
 6180 0dbd 00       		.byte	0
 6181 0dbe 20       		.uleb128 0x20
 6182 0dbf 66020000 		.4byte	.LASF215
 6183 0dc3 09       		.byte	0x9
 6184 0dc4 5101     		.2byte	0x151
 6185 0dc6 23080000 		.4byte	.LASF216
 6186 0dca AD000000 		.4byte	0xad
 6187 0dce 01       		.byte	0x1
 6188 0dcf D70D0000 		.4byte	0xdd7
 6189 0dd3 DD0D0000 		.4byte	0xddd
 6190 0dd7 16       		.uleb128 0x16
 6191 0dd8 76100000 		.4byte	0x1076
 6192 0ddc 00       		.byte	0
 6193 0ddd 1F       		.uleb128 0x1f
 6194 0dde 620E0000 		.4byte	.LASF217
 6195 0de2 09       		.byte	0x9
 6196 0de3 6701     		.2byte	0x167
 6197 0de5 C4040000 		.4byte	.LASF218
 6198 0de9 02       		.byte	0x2
 6199 0dea F20D0000 		.4byte	0xdf2
 6200 0dee 070E0000 		.4byte	0xe07
 6201 0df2 16       		.uleb128 0x16
 6202 0df3 76100000 		.4byte	0x1076
 6203 0df7 17       		.uleb128 0x17
 6204 0df8 D9000000 		.4byte	0xd9
 6205 0dfc 17       		.uleb128 0x17
 6206 0dfd AD000000 		.4byte	0xad
 6207 0e01 17       		.uleb128 0x17
 6208 0e02 AD000000 		.4byte	0xad
 6209 0e06 00       		.byte	0
 6210 0e07 1F       		.uleb128 0x1f
 6211 0e08 44090000 		.4byte	.LASF219
 6212 0e0c 09       		.byte	0x9
 6213 0e0d 7501     		.2byte	0x175
ARM GAS  /tmp/ccoI4Tqz.s 			page 110


 6214 0e0f B2100000 		.4byte	.LASF220
 6215 0e13 02       		.byte	0x2
 6216 0e14 1C0E0000 		.4byte	0xe1c
 6217 0e18 220E0000 		.4byte	0xe22
 6218 0e1c 16       		.uleb128 0x16
 6219 0e1d 76100000 		.4byte	0x1076
 6220 0e21 00       		.byte	0
 6221 0e22 1F       		.uleb128 0x1f
 6222 0e23 050B0000 		.4byte	.LASF221
 6223 0e27 09       		.byte	0x9
 6224 0e28 7F01     		.2byte	0x17f
 6225 0e2a DD0E0000 		.4byte	.LASF222
 6226 0e2e 02       		.byte	0x2
 6227 0e2f 370E0000 		.4byte	0xe37
 6228 0e33 3D0E0000 		.4byte	0xe3d
 6229 0e37 16       		.uleb128 0x16
 6230 0e38 76100000 		.4byte	0x1076
 6231 0e3c 00       		.byte	0
 6232 0e3d 1F       		.uleb128 0x1f
 6233 0e3e DF010000 		.4byte	.LASF223
 6234 0e42 09       		.byte	0x9
 6235 0e43 8A01     		.2byte	0x18a
 6236 0e45 03070000 		.4byte	.LASF224
 6237 0e49 02       		.byte	0x2
 6238 0e4a 520E0000 		.4byte	0xe52
 6239 0e4e 580E0000 		.4byte	0xe58
 6240 0e52 16       		.uleb128 0x16
 6241 0e53 76100000 		.4byte	0x1076
 6242 0e57 00       		.byte	0
 6243 0e58 20       		.uleb128 0x20
 6244 0e59 ED090000 		.4byte	.LASF225
 6245 0e5d 09       		.byte	0x9
 6246 0e5e 9101     		.2byte	0x191
 6247 0e60 5E0D0000 		.4byte	.LASF226
 6248 0e64 AD000000 		.4byte	0xad
 6249 0e68 02       		.byte	0x2
 6250 0e69 710E0000 		.4byte	0xe71
 6251 0e6d 7C0E0000 		.4byte	0xe7c
 6252 0e71 16       		.uleb128 0x16
 6253 0e72 76100000 		.4byte	0x1076
 6254 0e76 17       		.uleb128 0x17
 6255 0e77 AD000000 		.4byte	0xad
 6256 0e7b 00       		.byte	0
 6257 0e7c 1F       		.uleb128 0x1f
 6258 0e7d CB0C0000 		.4byte	.LASF227
 6259 0e81 09       		.byte	0x9
 6260 0e82 9C01     		.2byte	0x19c
 6261 0e84 07060000 		.4byte	.LASF228
 6262 0e88 02       		.byte	0x2
 6263 0e89 910E0000 		.4byte	0xe91
 6264 0e8d A60E0000 		.4byte	0xea6
 6265 0e91 16       		.uleb128 0x16
 6266 0e92 76100000 		.4byte	0x1076
 6267 0e96 17       		.uleb128 0x17
 6268 0e97 AD000000 		.4byte	0xad
 6269 0e9b 17       		.uleb128 0x17
 6270 0e9c DC030000 		.4byte	0x3dc
ARM GAS  /tmp/ccoI4Tqz.s 			page 111


 6271 0ea0 17       		.uleb128 0x17
 6272 0ea1 AD000000 		.4byte	0xad
 6273 0ea5 00       		.byte	0
 6274 0ea6 1F       		.uleb128 0x1f
 6275 0ea7 17100000 		.4byte	.LASF229
 6276 0eab 09       		.byte	0x9
 6277 0eac A201     		.2byte	0x1a2
 6278 0eae 4D090000 		.4byte	.LASF230
 6279 0eb2 02       		.byte	0x2
 6280 0eb3 BB0E0000 		.4byte	0xebb
 6281 0eb7 CB0E0000 		.4byte	0xecb
 6282 0ebb 16       		.uleb128 0x16
 6283 0ebc 76100000 		.4byte	0x1076
 6284 0ec0 17       		.uleb128 0x17
 6285 0ec1 AD000000 		.4byte	0xad
 6286 0ec5 17       		.uleb128 0x17
 6287 0ec6 AD000000 		.4byte	0xad
 6288 0eca 00       		.byte	0
 6289 0ecb 20       		.uleb128 0x20
 6290 0ecc 570E0000 		.4byte	.LASF231
 6291 0ed0 09       		.byte	0x9
 6292 0ed1 A901     		.2byte	0x1a9
 6293 0ed3 E8040000 		.4byte	.LASF232
 6294 0ed7 AD000000 		.4byte	0xad
 6295 0edb 02       		.byte	0x2
 6296 0edc E40E0000 		.4byte	0xee4
 6297 0ee0 EF0E0000 		.4byte	0xeef
 6298 0ee4 16       		.uleb128 0x16
 6299 0ee5 76100000 		.4byte	0x1076
 6300 0ee9 17       		.uleb128 0x17
 6301 0eea AD000000 		.4byte	0xad
 6302 0eee 00       		.byte	0
 6303 0eef 1F       		.uleb128 0x1f
 6304 0ef0 230B0000 		.4byte	.LASF233
 6305 0ef4 09       		.byte	0x9
 6306 0ef5 B401     		.2byte	0x1b4
 6307 0ef7 A0080000 		.4byte	.LASF234
 6308 0efb 02       		.byte	0x2
 6309 0efc 040F0000 		.4byte	0xf04
 6310 0f00 190F0000 		.4byte	0xf19
 6311 0f04 16       		.uleb128 0x16
 6312 0f05 76100000 		.4byte	0x1076
 6313 0f09 17       		.uleb128 0x17
 6314 0f0a AD000000 		.4byte	0xad
 6315 0f0e 17       		.uleb128 0x17
 6316 0f0f DC030000 		.4byte	0x3dc
 6317 0f13 17       		.uleb128 0x17
 6318 0f14 AD000000 		.4byte	0xad
 6319 0f18 00       		.byte	0
 6320 0f19 1F       		.uleb128 0x1f
 6321 0f1a C70E0000 		.4byte	.LASF235
 6322 0f1e 09       		.byte	0x9
 6323 0f1f BA01     		.2byte	0x1ba
 6324 0f21 98030000 		.4byte	.LASF236
 6325 0f25 02       		.byte	0x2
 6326 0f26 2E0F0000 		.4byte	0xf2e
 6327 0f2a 3E0F0000 		.4byte	0xf3e
ARM GAS  /tmp/ccoI4Tqz.s 			page 112


 6328 0f2e 16       		.uleb128 0x16
 6329 0f2f 76100000 		.4byte	0x1076
 6330 0f33 17       		.uleb128 0x17
 6331 0f34 AD000000 		.4byte	0xad
 6332 0f38 17       		.uleb128 0x17
 6333 0f39 AD000000 		.4byte	0xad
 6334 0f3d 00       		.byte	0
 6335 0f3e 1F       		.uleb128 0x1f
 6336 0f3f D6010000 		.4byte	.LASF237
 6337 0f43 09       		.byte	0x9
 6338 0f44 BF01     		.2byte	0x1bf
 6339 0f46 85070000 		.4byte	.LASF238
 6340 0f4a 02       		.byte	0x2
 6341 0f4b 530F0000 		.4byte	0xf53
 6342 0f4f 590F0000 		.4byte	0xf59
 6343 0f53 16       		.uleb128 0x16
 6344 0f54 76100000 		.4byte	0x1076
 6345 0f58 00       		.byte	0
 6346 0f59 1F       		.uleb128 0x1f
 6347 0f5a 94020000 		.4byte	.LASF239
 6348 0f5e 09       		.byte	0x9
 6349 0f5f C401     		.2byte	0x1c4
 6350 0f61 400E0000 		.4byte	.LASF240
 6351 0f65 02       		.byte	0x2
 6352 0f66 6E0F0000 		.4byte	0xf6e
 6353 0f6a 740F0000 		.4byte	0xf74
 6354 0f6e 16       		.uleb128 0x16
 6355 0f6f 76100000 		.4byte	0x1076
 6356 0f73 00       		.byte	0
 6357 0f74 1F       		.uleb128 0x1f
 6358 0f75 5A010000 		.4byte	.LASF241
 6359 0f79 09       		.byte	0x9
 6360 0f7a C901     		.2byte	0x1c9
 6361 0f7c F0010000 		.4byte	.LASF242
 6362 0f80 02       		.byte	0x2
 6363 0f81 890F0000 		.4byte	0xf89
 6364 0f85 8F0F0000 		.4byte	0xf8f
 6365 0f89 16       		.uleb128 0x16
 6366 0f8a 76100000 		.4byte	0x1076
 6367 0f8e 00       		.byte	0
 6368 0f8f 1F       		.uleb128 0x1f
 6369 0f90 A6020000 		.4byte	.LASF243
 6370 0f94 09       		.byte	0x9
 6371 0f95 CE01     		.2byte	0x1ce
 6372 0f97 EC0B0000 		.4byte	.LASF244
 6373 0f9b 02       		.byte	0x2
 6374 0f9c A40F0000 		.4byte	0xfa4
 6375 0fa0 AA0F0000 		.4byte	0xfaa
 6376 0fa4 16       		.uleb128 0x16
 6377 0fa5 76100000 		.4byte	0x1076
 6378 0fa9 00       		.byte	0
 6379 0faa 1F       		.uleb128 0x1f
 6380 0fab 300D0000 		.4byte	.LASF245
 6381 0faf 09       		.byte	0x9
 6382 0fb0 D501     		.2byte	0x1d5
 6383 0fb2 B0110000 		.4byte	.LASF246
 6384 0fb6 02       		.byte	0x2
ARM GAS  /tmp/ccoI4Tqz.s 			page 113


 6385 0fb7 BF0F0000 		.4byte	0xfbf
 6386 0fbb C50F0000 		.4byte	0xfc5
 6387 0fbf 16       		.uleb128 0x16
 6388 0fc0 76100000 		.4byte	0x1076
 6389 0fc4 00       		.byte	0
 6390 0fc5 1F       		.uleb128 0x1f
 6391 0fc6 3C050000 		.4byte	.LASF247
 6392 0fca 09       		.byte	0x9
 6393 0fcb DC01     		.2byte	0x1dc
 6394 0fcd 92110000 		.4byte	.LASF248
 6395 0fd1 02       		.byte	0x2
 6396 0fd2 DA0F0000 		.4byte	0xfda
 6397 0fd6 EF0F0000 		.4byte	0xfef
 6398 0fda 16       		.uleb128 0x16
 6399 0fdb 76100000 		.4byte	0x1076
 6400 0fdf 17       		.uleb128 0x17
 6401 0fe0 AD000000 		.4byte	0xad
 6402 0fe4 17       		.uleb128 0x17
 6403 0fe5 AD000000 		.4byte	0xad
 6404 0fe9 17       		.uleb128 0x17
 6405 0fea AD000000 		.4byte	0xad
 6406 0fee 00       		.byte	0
 6407 0fef 20       		.uleb128 0x20
 6408 0ff0 35110000 		.4byte	.LASF249
 6409 0ff4 09       		.byte	0x9
 6410 0ff5 E401     		.2byte	0x1e4
 6411 0ff7 7E0D0000 		.4byte	.LASF250
 6412 0ffb AD000000 		.4byte	0xad
 6413 0fff 02       		.byte	0x2
 6414 1000 08100000 		.4byte	0x1008
 6415 1004 18100000 		.4byte	0x1018
 6416 1008 16       		.uleb128 0x16
 6417 1009 76100000 		.4byte	0x1076
 6418 100d 17       		.uleb128 0x17
 6419 100e AD000000 		.4byte	0xad
 6420 1012 17       		.uleb128 0x17
 6421 1013 AD000000 		.4byte	0xad
 6422 1017 00       		.byte	0
 6423 1018 21       		.uleb128 0x21
 6424 1019 F6060000 		.4byte	.LASF251
 6425 101d 09       		.byte	0x9
 6426 101e EE01     		.2byte	0x1ee
 6427 1020 2F0B0000 		.4byte	.LASF252
 6428 1024 AD000000 		.4byte	0xad
 6429 1028 02       		.byte	0x2
 6430 1029 2D100000 		.4byte	0x102d
 6431 102d 16       		.uleb128 0x16
 6432 102e 76100000 		.4byte	0x1076
 6433 1032 17       		.uleb128 0x17
 6434 1033 AD000000 		.4byte	0xad
 6435 1037 17       		.uleb128 0x17
 6436 1038 AD000000 		.4byte	0xad
 6437 103c 17       		.uleb128 0x17
 6438 103d DC030000 		.4byte	0x3dc
 6439 1041 17       		.uleb128 0x17
 6440 1042 AD000000 		.4byte	0xad
 6441 1046 00       		.byte	0
ARM GAS  /tmp/ccoI4Tqz.s 			page 114


 6442 1047 00       		.byte	0
 6443 1048 0C       		.uleb128 0xc
 6444 1049 58100000 		.4byte	0x1058
 6445 104d 58100000 		.4byte	0x1058
 6446 1051 0D       		.uleb128 0xd
 6447 1052 AE030000 		.4byte	0x3ae
 6448 1056 02       		.byte	0x2
 6449 1057 00       		.byte	0
 6450 1058 03       		.uleb128 0x3
 6451 1059 04       		.byte	0x4
 6452 105a 04       		.byte	0x4
 6453 105b 3F0A0000 		.4byte	.LASF253
 6454 105f 0C       		.uleb128 0xc
 6455 1060 62000000 		.4byte	0x62
 6456 1064 6F100000 		.4byte	0x106f
 6457 1068 0D       		.uleb128 0xd
 6458 1069 AE030000 		.4byte	0x3ae
 6459 106d 02       		.byte	0x2
 6460 106e 00       		.byte	0
 6461 106f 03       		.uleb128 0x3
 6462 1070 01       		.byte	0x1
 6463 1071 02       		.byte	0x2
 6464 1072 A60B0000 		.4byte	.LASF254
 6465 1076 0E       		.uleb128 0xe
 6466 1077 04       		.byte	0x4
 6467 1078 11070000 		.4byte	0x711
 6468 107c 22       		.uleb128 0x22
 6469 107d 190F0000 		.4byte	0xf19
 6470 1081 01       		.byte	0x1
 6471 1082 7603     		.2byte	0x376
 6472 1084 01       		.byte	0x1
 6473 1085 8D100000 		.4byte	0x108d
 6474 1089 AF100000 		.4byte	0x10af
 6475 108d 23       		.uleb128 0x23
 6476 108e 02080000 		.4byte	.LASF257
 6477 1092 AF100000 		.4byte	0x10af
 6478 1096 24       		.uleb128 0x24
 6479 1097 D7090000 		.4byte	.LASF255
 6480 109b 01       		.byte	0x1
 6481 109c 7603     		.2byte	0x376
 6482 109e AD000000 		.4byte	0xad
 6483 10a2 24       		.uleb128 0x24
 6484 10a3 32070000 		.4byte	.LASF256
 6485 10a7 01       		.byte	0x1
 6486 10a8 7603     		.2byte	0x376
 6487 10aa AD000000 		.4byte	0xad
 6488 10ae 00       		.byte	0
 6489 10af 25       		.uleb128 0x25
 6490 10b0 76100000 		.4byte	0x1076
 6491 10b4 22       		.uleb128 0x22
 6492 10b5 A60E0000 		.4byte	0xea6
 6493 10b9 01       		.byte	0x1
 6494 10ba 7A03     		.2byte	0x37a
 6495 10bc 01       		.byte	0x1
 6496 10bd C5100000 		.4byte	0x10c5
 6497 10c1 E7100000 		.4byte	0x10e7
 6498 10c5 23       		.uleb128 0x23
ARM GAS  /tmp/ccoI4Tqz.s 			page 115


 6499 10c6 02080000 		.4byte	.LASF257
 6500 10ca AF100000 		.4byte	0x10af
 6501 10ce 24       		.uleb128 0x24
 6502 10cf D7090000 		.4byte	.LASF255
 6503 10d3 01       		.byte	0x1
 6504 10d4 7A03     		.2byte	0x37a
 6505 10d6 AD000000 		.4byte	0xad
 6506 10da 24       		.uleb128 0x24
 6507 10db 32070000 		.4byte	.LASF256
 6508 10df 01       		.byte	0x1
 6509 10e0 7A03     		.2byte	0x37a
 6510 10e2 AD000000 		.4byte	0xad
 6511 10e6 00       		.byte	0
 6512 10e7 22       		.uleb128 0x22
 6513 10e8 FB080000 		.4byte	0x8fb
 6514 10ec 01       		.byte	0x1
 6515 10ed 6B01     		.2byte	0x16b
 6516 10ef 01       		.byte	0x1
 6517 10f0 F8100000 		.4byte	0x10f8
 6518 10f4 34110000 		.4byte	0x1134
 6519 10f8 23       		.uleb128 0x23
 6520 10f9 02080000 		.4byte	.LASF257
 6521 10fd AF100000 		.4byte	0x10af
 6522 1101 24       		.uleb128 0x24
 6523 1102 82060000 		.4byte	.LASF258
 6524 1106 01       		.byte	0x1
 6525 1107 6B01     		.2byte	0x16b
 6526 1109 AD000000 		.4byte	0xad
 6527 110d 24       		.uleb128 0x24
 6528 110e 920E0000 		.4byte	.LASF259
 6529 1112 01       		.byte	0x1
 6530 1113 6B01     		.2byte	0x16b
 6531 1115 B8000000 		.4byte	0xb8
 6532 1119 26       		.uleb128 0x26
 6533 111a 27       		.uleb128 0x27
 6534 111b 6D736200 		.ascii	"msb\000"
 6535 111f 01       		.byte	0x1
 6536 1120 6D01     		.2byte	0x16d
 6537 1122 AD000000 		.4byte	0xad
 6538 1126 27       		.uleb128 0x27
 6539 1127 6C736200 		.ascii	"lsb\000"
 6540 112b 01       		.byte	0x1
 6541 112c 6D01     		.2byte	0x16d
 6542 112e AD000000 		.4byte	0xad
 6543 1132 00       		.byte	0
 6544 1133 00       		.byte	0
 6545 1134 22       		.uleb128 0x22
 6546 1135 CB0E0000 		.4byte	0xecb
 6547 1139 01       		.byte	0x1
 6548 113a 7E03     		.2byte	0x37e
 6549 113c 01       		.byte	0x1
 6550 113d 45110000 		.4byte	0x1145
 6551 1141 5B110000 		.4byte	0x115b
 6552 1145 23       		.uleb128 0x23
 6553 1146 02080000 		.4byte	.LASF257
 6554 114a AF100000 		.4byte	0x10af
 6555 114e 24       		.uleb128 0x24
ARM GAS  /tmp/ccoI4Tqz.s 			page 116


 6556 114f D7090000 		.4byte	.LASF255
 6557 1153 01       		.byte	0x1
 6558 1154 7E03     		.2byte	0x37e
 6559 1156 AD000000 		.4byte	0xad
 6560 115a 00       		.byte	0
 6561 115b 22       		.uleb128 0x22
 6562 115c 3E0F0000 		.4byte	0xf3e
 6563 1160 01       		.byte	0x1
 6564 1161 A602     		.2byte	0x2a6
 6565 1163 01       		.byte	0x1
 6566 1164 6C110000 		.4byte	0x116c
 6567 1168 76110000 		.4byte	0x1176
 6568 116c 23       		.uleb128 0x23
 6569 116d 02080000 		.4byte	.LASF257
 6570 1171 AF100000 		.4byte	0x10af
 6571 1175 00       		.byte	0
 6572 1176 22       		.uleb128 0x22
 6573 1177 740F0000 		.4byte	0xf74
 6574 117b 01       		.byte	0x1
 6575 117c A802     		.2byte	0x2a8
 6576 117e 01       		.byte	0x1
 6577 117f 87110000 		.4byte	0x1187
 6578 1183 91110000 		.4byte	0x1191
 6579 1187 23       		.uleb128 0x23
 6580 1188 02080000 		.4byte	.LASF257
 6581 118c AF100000 		.4byte	0x10af
 6582 1190 00       		.byte	0
 6583 1191 22       		.uleb128 0x22
 6584 1192 EF0E0000 		.4byte	0xeef
 6585 1196 01       		.byte	0x1
 6586 1197 8203     		.2byte	0x382
 6587 1199 01       		.byte	0x1
 6588 119a A2110000 		.4byte	0x11a2
 6589 119e D0110000 		.4byte	0x11d0
 6590 11a2 23       		.uleb128 0x23
 6591 11a3 02080000 		.4byte	.LASF257
 6592 11a7 AF100000 		.4byte	0x10af
 6593 11ab 24       		.uleb128 0x24
 6594 11ac D7090000 		.4byte	.LASF255
 6595 11b0 01       		.byte	0x1
 6596 11b1 8203     		.2byte	0x382
 6597 11b3 AD000000 		.4byte	0xad
 6598 11b7 24       		.uleb128 0x24
 6599 11b8 0D0E0000 		.4byte	.LASF260
 6600 11bc 01       		.byte	0x1
 6601 11bd 8203     		.2byte	0x382
 6602 11bf DC030000 		.4byte	0x3dc
 6603 11c3 24       		.uleb128 0x24
 6604 11c4 4E0A0000 		.4byte	.LASF261
 6605 11c8 01       		.byte	0x1
 6606 11c9 8203     		.2byte	0x382
 6607 11cb AD000000 		.4byte	0xad
 6608 11cf 00       		.byte	0
 6609 11d0 22       		.uleb128 0x22
 6610 11d1 6D0A0000 		.4byte	0xa6d
 6611 11d5 01       		.byte	0x1
 6612 11d6 1702     		.2byte	0x217
ARM GAS  /tmp/ccoI4Tqz.s 			page 117


 6613 11d8 01       		.byte	0x1
 6614 11d9 E1110000 		.4byte	0x11e1
 6615 11dd F7110000 		.4byte	0x11f7
 6616 11e1 23       		.uleb128 0x23
 6617 11e2 02080000 		.4byte	.LASF257
 6618 11e6 AF100000 		.4byte	0x10af
 6619 11ea 24       		.uleb128 0x24
 6620 11eb 83050000 		.4byte	.LASF68
 6621 11ef 01       		.byte	0x1
 6622 11f0 1702     		.2byte	0x217
 6623 11f2 B8000000 		.4byte	0xb8
 6624 11f6 00       		.byte	0
 6625 11f7 22       		.uleb128 0x22
 6626 11f8 900A0000 		.4byte	0xa90
 6627 11fc 01       		.byte	0x1
 6628 11fd 1C02     		.2byte	0x21c
 6629 11ff 01       		.byte	0x1
 6630 1200 08120000 		.4byte	0x1208
 6631 1204 1E120000 		.4byte	0x121e
 6632 1208 23       		.uleb128 0x23
 6633 1209 02080000 		.4byte	.LASF257
 6634 120d AF100000 		.4byte	0x10af
 6635 1211 24       		.uleb128 0x24
 6636 1212 04100000 		.4byte	.LASF69
 6637 1216 01       		.byte	0x1
 6638 1217 1C02     		.2byte	0x21c
 6639 1219 B8000000 		.4byte	0xb8
 6640 121d 00       		.byte	0
 6641 121e 22       		.uleb128 0x22
 6642 121f 580E0000 		.4byte	0xe58
 6643 1223 01       		.byte	0x1
 6644 1224 8603     		.2byte	0x386
 6645 1226 01       		.byte	0x1
 6646 1227 2F120000 		.4byte	0x122f
 6647 122b 45120000 		.4byte	0x1245
 6648 122f 23       		.uleb128 0x23
 6649 1230 02080000 		.4byte	.LASF257
 6650 1234 AF100000 		.4byte	0x10af
 6651 1238 24       		.uleb128 0x24
 6652 1239 D7090000 		.4byte	.LASF255
 6653 123d 01       		.byte	0x1
 6654 123e 8603     		.2byte	0x386
 6655 1240 AD000000 		.4byte	0xad
 6656 1244 00       		.byte	0
 6657 1245 22       		.uleb128 0x22
 6658 1246 7C0E0000 		.4byte	0xe7c
 6659 124a 01       		.byte	0x1
 6660 124b 8A03     		.2byte	0x38a
 6661 124d 01       		.byte	0x1
 6662 124e 56120000 		.4byte	0x1256
 6663 1252 84120000 		.4byte	0x1284
 6664 1256 23       		.uleb128 0x23
 6665 1257 02080000 		.4byte	.LASF257
 6666 125b AF100000 		.4byte	0x10af
 6667 125f 24       		.uleb128 0x24
 6668 1260 D7090000 		.4byte	.LASF255
 6669 1264 01       		.byte	0x1
ARM GAS  /tmp/ccoI4Tqz.s 			page 118


 6670 1265 8A03     		.2byte	0x38a
 6671 1267 AD000000 		.4byte	0xad
 6672 126b 24       		.uleb128 0x24
 6673 126c 0D0E0000 		.4byte	.LASF260
 6674 1270 01       		.byte	0x1
 6675 1271 8A03     		.2byte	0x38a
 6676 1273 DC030000 		.4byte	0x3dc
 6677 1277 24       		.uleb128 0x24
 6678 1278 4E0A0000 		.4byte	.LASF261
 6679 127c 01       		.byte	0x1
 6680 127d 8A03     		.2byte	0x38a
 6681 127f AD000000 		.4byte	0xad
 6682 1283 00       		.byte	0
 6683 1284 22       		.uleb128 0x22
 6684 1285 79090000 		.4byte	0x979
 6685 1289 01       		.byte	0x1
 6686 128a C901     		.2byte	0x1c9
 6687 128c 01       		.byte	0x1
 6688 128d 95120000 		.4byte	0x1295
 6689 1291 B9120000 		.4byte	0x12b9
 6690 1295 23       		.uleb128 0x23
 6691 1296 02080000 		.4byte	.LASF257
 6692 129a AF100000 		.4byte	0x10af
 6693 129e 24       		.uleb128 0x24
 6694 129f 82060000 		.4byte	.LASF258
 6695 12a3 01       		.byte	0x1
 6696 12a4 C901     		.2byte	0x1c9
 6697 12a6 EC060000 		.4byte	0x6ec
 6698 12aa 26       		.uleb128 0x26
 6699 12ab 28       		.uleb128 0x28
 6700 12ac 6F070000 		.4byte	.LASF100
 6701 12b0 01       		.byte	0x1
 6702 12b1 CA01     		.2byte	0x1ca
 6703 12b3 AD000000 		.4byte	0xad
 6704 12b7 00       		.byte	0
 6705 12b8 00       		.byte	0
 6706 12b9 22       		.uleb128 0x22
 6707 12ba B30A0000 		.4byte	0xab3
 6708 12be 01       		.byte	0x1
 6709 12bf 2102     		.2byte	0x221
 6710 12c1 01       		.byte	0x1
 6711 12c2 CA120000 		.4byte	0x12ca
 6712 12c6 E0120000 		.4byte	0x12e0
 6713 12ca 23       		.uleb128 0x23
 6714 12cb 02080000 		.4byte	.LASF257
 6715 12cf AF100000 		.4byte	0x10af
 6716 12d3 29       		.uleb128 0x29
 6717 12d4 6D616700 		.ascii	"mag\000"
 6718 12d8 01       		.byte	0x1
 6719 12d9 2102     		.2byte	0x221
 6720 12db B8000000 		.4byte	0xb8
 6721 12df 00       		.byte	0
 6722 12e0 2A       		.uleb128 0x2a
 6723 12e1 E7100000 		.4byte	0x10e7
 6724 12e5 00000000 		.4byte	.LFB67
 6725 12e9 38000000 		.4byte	.LFE67-.LFB67
 6726 12ed 01       		.uleb128 0x1
ARM GAS  /tmp/ccoI4Tqz.s 			page 119


 6727 12ee 9C       		.byte	0x9c
 6728 12ef F7120000 		.4byte	0x12f7
 6729 12f3 AA130000 		.4byte	0x13aa
 6730 12f7 2B       		.uleb128 0x2b
 6731 12f8 F8100000 		.4byte	0x10f8
 6732 12fc 00000000 		.4byte	.LLST0
 6733 1300 2B       		.uleb128 0x2b
 6734 1301 01110000 		.4byte	0x1101
 6735 1305 2C000000 		.4byte	.LLST1
 6736 1309 2B       		.uleb128 0x2b
 6737 130a 0D110000 		.4byte	0x110d
 6738 130e 4D000000 		.4byte	.LLST2
 6739 1312 2C       		.uleb128 0x2c
 6740 1313 00000000 		.4byte	.Ldebug_ranges0+0
 6741 1317 2D       		.uleb128 0x2d
 6742 1318 1A110000 		.4byte	0x111a
 6743 131c 6E000000 		.4byte	.LLST3
 6744 1320 2D       		.uleb128 0x2d
 6745 1321 26110000 		.4byte	0x1126
 6746 1325 8D000000 		.4byte	.LLST4
 6747 1329 2E       		.uleb128 0x2e
 6748 132a B4100000 		.4byte	0x10b4
 6749 132e 0C000000 		.4byte	.LBB204
 6750 1332 10000000 		.4byte	.LBE204-.LBB204
 6751 1336 01       		.byte	0x1
 6752 1337 7001     		.2byte	0x170
 6753 1339 73130000 		.4byte	0x1373
 6754 133d 2B       		.uleb128 0x2b
 6755 133e DA100000 		.4byte	0x10da
 6756 1342 8D000000 		.4byte	.LLST4
 6757 1346 2B       		.uleb128 0x2b
 6758 1347 CE100000 		.4byte	0x10ce
 6759 134b A0000000 		.4byte	.LLST6
 6760 134f 2B       		.uleb128 0x2b
 6761 1350 C5100000 		.4byte	0x10c5
 6762 1354 CB000000 		.4byte	.LLST7
 6763 1358 2F       		.uleb128 0x2f
 6764 1359 1C000000 		.4byte	.LVL5
 6765 135d 1E060000 		.4byte	0x61e
 6766 1361 30       		.uleb128 0x30
 6767 1362 01       		.uleb128 0x1
 6768 1363 53       		.byte	0x53
 6769 1364 02       		.uleb128 0x2
 6770 1365 76       		.byte	0x76
 6771 1366 00       		.sleb128 0
 6772 1367 30       		.uleb128 0x30
 6773 1368 01       		.uleb128 0x1
 6774 1369 52       		.byte	0x52
 6775 136a 06       		.uleb128 0x6
 6776 136b 74       		.byte	0x74
 6777 136c 00       		.sleb128 0
 6778 136d 31       		.byte	0x31
 6779 136e 24       		.byte	0x24
 6780 136f 23       		.byte	0x23
 6781 1370 05       		.uleb128 0x5
 6782 1371 00       		.byte	0
 6783 1372 00       		.byte	0
ARM GAS  /tmp/ccoI4Tqz.s 			page 120


 6784 1373 31       		.uleb128 0x31
 6785 1374 B4100000 		.4byte	0x10b4
 6786 1378 20000000 		.4byte	.LBB206
 6787 137c 18000000 		.4byte	.Ldebug_ranges0+0x18
 6788 1380 01       		.byte	0x1
 6789 1381 7101     		.2byte	0x171
 6790 1383 2B       		.uleb128 0x2b
 6791 1384 DA100000 		.4byte	0x10da
 6792 1388 F7000000 		.4byte	.LLST8
 6793 138c 2B       		.uleb128 0x2b
 6794 138d CE100000 		.4byte	0x10ce
 6795 1391 16010000 		.4byte	.LLST9
 6796 1395 2B       		.uleb128 0x2b
 6797 1396 C5100000 		.4byte	0x10c5
 6798 139a 32010000 		.4byte	.LLST10
 6799 139e 32       		.uleb128 0x32
 6800 139f 38000000 		.4byte	.LVL7
 6801 13a3 1E060000 		.4byte	0x61e
 6802 13a7 00       		.byte	0
 6803 13a8 00       		.byte	0
 6804 13a9 00       		.byte	0
 6805 13aa 33       		.uleb128 0x33
 6806 13ab DD0D0000 		.4byte	0xddd
 6807 13af 01       		.byte	0x1
 6808 13b0 2A       		.byte	0x2a
 6809 13b1 00000000 		.4byte	.LFB13
 6810 13b5 BC000000 		.4byte	.LFE13-.LFB13
 6811 13b9 01       		.uleb128 0x1
 6812 13ba 9C       		.byte	0x9c
 6813 13bb C3130000 		.4byte	0x13c3
 6814 13bf 0F140000 		.4byte	0x140f
 6815 13c3 34       		.uleb128 0x34
 6816 13c4 02080000 		.4byte	.LASF257
 6817 13c8 AF100000 		.4byte	0x10af
 6818 13cc 01       		.uleb128 0x1
 6819 13cd 50       		.byte	0x50
 6820 13ce 35       		.uleb128 0x35
 6821 13cf 28070000 		.4byte	.LASF262
 6822 13d3 01       		.byte	0x1
 6823 13d4 2A       		.byte	0x2a
 6824 13d5 D9000000 		.4byte	0xd9
 6825 13d9 53010000 		.4byte	.LLST11
 6826 13dd 35       		.uleb128 0x35
 6827 13de 70040000 		.4byte	.LASF263
 6828 13e2 01       		.byte	0x1
 6829 13e3 2A       		.byte	0x2a
 6830 13e4 AD000000 		.4byte	0xad
 6831 13e8 80010000 		.4byte	.LLST12
 6832 13ec 35       		.uleb128 0x35
 6833 13ed 26000000 		.4byte	.LASF264
 6834 13f1 01       		.byte	0x1
 6835 13f2 2A       		.byte	0x2a
 6836 13f3 AD000000 		.4byte	0xad
 6837 13f7 AD010000 		.4byte	.LLST13
 6838 13fb 2C       		.uleb128 0x2c
 6839 13fc 30000000 		.4byte	.Ldebug_ranges0+0x30
 6840 1400 36       		.uleb128 0x36
ARM GAS  /tmp/ccoI4Tqz.s 			page 121


 6841 1401 6900     		.ascii	"i\000"
 6842 1403 01       		.byte	0x1
 6843 1404 78       		.byte	0x78
 6844 1405 25000000 		.4byte	0x25
 6845 1409 DA010000 		.4byte	.LLST14
 6846 140d 00       		.byte	0
 6847 140e 00       		.byte	0
 6848 140f 37       		.uleb128 0x37
 6849 1410 80080000 		.4byte	0x880
 6850 1414 01       		.byte	0x1
 6851 1415 20       		.byte	0x20
 6852 1416 00       		.byte	0
 6853 1417 1F140000 		.4byte	0x141f
 6854 141b 34140000 		.4byte	0x1434
 6855 141f 23       		.uleb128 0x23
 6856 1420 02080000 		.4byte	.LASF257
 6857 1424 AF100000 		.4byte	0x10af
 6858 1428 38       		.uleb128 0x38
 6859 1429 69326300 		.ascii	"i2c\000"
 6860 142d 01       		.byte	0x1
 6861 142e 20       		.byte	0x20
 6862 142f E6060000 		.4byte	0x6e6
 6863 1433 00       		.byte	0
 6864 1434 39       		.uleb128 0x39
 6865 1435 0F140000 		.4byte	0x140f
 6866 1439 4F0B0000 		.4byte	.LASF265
 6867 143d 00000000 		.4byte	.LFB8
 6868 1441 16000000 		.4byte	.LFE8-.LFB8
 6869 1445 01       		.uleb128 0x1
 6870 1446 9C       		.byte	0x9c
 6871 1447 4F140000 		.4byte	0x144f
 6872 144b 82140000 		.4byte	0x1482
 6873 144f 2B       		.uleb128 0x2b
 6874 1450 1F140000 		.4byte	0x141f
 6875 1454 0C020000 		.4byte	.LLST15
 6876 1458 2B       		.uleb128 0x2b
 6877 1459 28140000 		.4byte	0x1428
 6878 145d 2A020000 		.4byte	.LLST16
 6879 1461 2F       		.uleb128 0x2f
 6880 1462 12000000 		.4byte	.LVL18
 6881 1466 AA130000 		.4byte	0x13aa
 6882 146a 30       		.uleb128 0x30
 6883 146b 01       		.uleb128 0x1
 6884 146c 53       		.byte	0x53
 6885 146d 01       		.uleb128 0x1
 6886 146e 4E       		.byte	0x4e
 6887 146f 30       		.uleb128 0x30
 6888 1470 01       		.uleb128 0x1
 6889 1471 52       		.byte	0x52
 6890 1472 02       		.uleb128 0x2
 6891 1473 08       		.byte	0x8
 6892 1474 6B       		.byte	0x6b
 6893 1475 30       		.uleb128 0x30
 6894 1476 01       		.uleb128 0x1
 6895 1477 51       		.byte	0x51
 6896 1478 01       		.uleb128 0x1
 6897 1479 31       		.byte	0x31
ARM GAS  /tmp/ccoI4Tqz.s 			page 122


 6898 147a 30       		.uleb128 0x30
 6899 147b 01       		.uleb128 0x1
 6900 147c 50       		.byte	0x50
 6901 147d 02       		.uleb128 0x2
 6902 147e 74       		.byte	0x74
 6903 147f 00       		.sleb128 0
 6904 1480 00       		.byte	0
 6905 1481 00       		.byte	0
 6906 1482 37       		.uleb128 0x37
 6907 1483 52080000 		.4byte	0x852
 6908 1487 01       		.byte	0x1
 6909 1488 24       		.byte	0x24
 6910 1489 00       		.byte	0
 6911 148a 92140000 		.4byte	0x1492
 6912 148e C8140000 		.4byte	0x14c8
 6913 1492 23       		.uleb128 0x23
 6914 1493 02080000 		.4byte	.LASF257
 6915 1497 AF100000 		.4byte	0x10af
 6916 149b 38       		.uleb128 0x38
 6917 149c 69326300 		.ascii	"i2c\000"
 6918 14a0 01       		.byte	0x1
 6919 14a1 24       		.byte	0x24
 6920 14a2 E6060000 		.4byte	0x6e6
 6921 14a6 3A       		.uleb128 0x3a
 6922 14a7 28070000 		.4byte	.LASF262
 6923 14ab 01       		.byte	0x1
 6924 14ac 24       		.byte	0x24
 6925 14ad D9000000 		.4byte	0xd9
 6926 14b1 3A       		.uleb128 0x3a
 6927 14b2 70040000 		.4byte	.LASF263
 6928 14b6 01       		.byte	0x1
 6929 14b7 24       		.byte	0x24
 6930 14b8 AD000000 		.4byte	0xad
 6931 14bc 3A       		.uleb128 0x3a
 6932 14bd 26000000 		.4byte	.LASF264
 6933 14c1 01       		.byte	0x1
 6934 14c2 25       		.byte	0x25
 6935 14c3 AD000000 		.4byte	0xad
 6936 14c7 00       		.byte	0
 6937 14c8 39       		.uleb128 0x39
 6938 14c9 82140000 		.4byte	0x1482
 6939 14cd C8050000 		.4byte	.LASF266
 6940 14d1 00000000 		.4byte	.LFB11
 6941 14d5 1A000000 		.4byte	.LFE11-.LFB11
 6942 14d9 01       		.uleb128 0x1
 6943 14da 9C       		.byte	0x9c
 6944 14db E3140000 		.4byte	0x14e3
 6945 14df 26150000 		.4byte	0x1526
 6946 14e3 2B       		.uleb128 0x2b
 6947 14e4 92140000 		.4byte	0x1492
 6948 14e8 58020000 		.4byte	.LLST17
 6949 14ec 2B       		.uleb128 0x2b
 6950 14ed 9B140000 		.4byte	0x149b
 6951 14f1 76020000 		.4byte	.LLST18
 6952 14f5 2B       		.uleb128 0x2b
 6953 14f6 A6140000 		.4byte	0x14a6
 6954 14fa A4020000 		.4byte	.LLST19
ARM GAS  /tmp/ccoI4Tqz.s 			page 123


 6955 14fe 2B       		.uleb128 0x2b
 6956 14ff B1140000 		.4byte	0x14b1
 6957 1503 C5020000 		.4byte	.LLST20
 6958 1507 3B       		.uleb128 0x3b
 6959 1508 BC140000 		.4byte	0x14bc
 6960 150c 02       		.uleb128 0x2
 6961 150d 91       		.byte	0x91
 6962 150e 00       		.sleb128 0
 6963 150f 2F       		.uleb128 0x2f
 6964 1510 16000000 		.4byte	.LVL23
 6965 1514 AA130000 		.4byte	0x13aa
 6966 1518 30       		.uleb128 0x30
 6967 1519 01       		.uleb128 0x1
 6968 151a 53       		.byte	0x53
 6969 151b 02       		.uleb128 0x2
 6970 151c 75       		.byte	0x75
 6971 151d 00       		.sleb128 0
 6972 151e 30       		.uleb128 0x30
 6973 151f 01       		.uleb128 0x1
 6974 1520 50       		.byte	0x50
 6975 1521 02       		.uleb128 0x2
 6976 1522 74       		.byte	0x74
 6977 1523 00       		.sleb128 0
 6978 1524 00       		.byte	0
 6979 1525 00       		.byte	0
 6980 1526 33       		.uleb128 0x33
 6981 1527 070E0000 		.4byte	0xe07
 6982 152b 01       		.byte	0x1
 6983 152c A4       		.byte	0xa4
 6984 152d 00000000 		.4byte	.LFB15
 6985 1531 D6000000 		.4byte	.LFE15-.LFB15
 6986 1535 01       		.uleb128 0x1
 6987 1536 9C       		.byte	0x9c
 6988 1537 3F150000 		.4byte	0x153f
 6989 153b 99160000 		.4byte	0x1699
 6990 153f 3C       		.uleb128 0x3c
 6991 1540 02080000 		.4byte	.LASF257
 6992 1544 AF100000 		.4byte	0x10af
 6993 1548 E6020000 		.4byte	.LLST21
 6994 154c 2C       		.uleb128 0x2c
 6995 154d 50000000 		.4byte	.Ldebug_ranges0+0x50
 6996 1551 3D       		.uleb128 0x3d
 6997 1552 39100000 		.4byte	.LASF267
 6998 1556 01       		.byte	0x1
 6999 1557 A5       		.byte	0xa5
 7000 1558 AD000000 		.4byte	0xad
 7001 155c 1D030000 		.4byte	.LLST22
 7002 1560 3E       		.uleb128 0x3e
 7003 1561 7C100000 		.4byte	0x107c
 7004 1565 1E000000 		.4byte	.LBB218
 7005 1569 70000000 		.4byte	.Ldebug_ranges0+0x70
 7006 156d 01       		.byte	0x1
 7007 156e BC       		.byte	0xbc
 7008 156f 9E150000 		.4byte	0x159e
 7009 1573 2B       		.uleb128 0x2b
 7010 1574 A2100000 		.4byte	0x10a2
 7011 1578 01040000 		.4byte	.LLST23
ARM GAS  /tmp/ccoI4Tqz.s 			page 124


 7012 157c 2B       		.uleb128 0x2b
 7013 157d 96100000 		.4byte	0x1096
 7014 1581 30040000 		.4byte	.LLST24
 7015 1585 2B       		.uleb128 0x2b
 7016 1586 8D100000 		.4byte	0x108d
 7017 158a 44040000 		.4byte	.LLST25
 7018 158e 2F       		.uleb128 0x2f
 7019 158f 32000000 		.4byte	.LVL30
 7020 1593 1E060000 		.4byte	0x61e
 7021 1597 30       		.uleb128 0x30
 7022 1598 01       		.uleb128 0x1
 7023 1599 52       		.byte	0x52
 7024 159a 01       		.uleb128 0x1
 7025 159b 40       		.byte	0x40
 7026 159c 00       		.byte	0
 7027 159d 00       		.byte	0
 7028 159e 3F       		.uleb128 0x3f
 7029 159f 7C100000 		.4byte	0x107c
 7030 15a3 32000000 		.4byte	.LBB222
 7031 15a7 10000000 		.4byte	.LBE222-.LBB222
 7032 15ab 01       		.byte	0x1
 7033 15ac C2       		.byte	0xc2
 7034 15ad E1150000 		.4byte	0x15e1
 7035 15b1 2B       		.uleb128 0x2b
 7036 15b2 A2100000 		.4byte	0x10a2
 7037 15b6 65040000 		.4byte	.LLST26
 7038 15ba 2B       		.uleb128 0x2b
 7039 15bb 96100000 		.4byte	0x1096
 7040 15bf 79040000 		.4byte	.LLST27
 7041 15c3 2B       		.uleb128 0x2b
 7042 15c4 8D100000 		.4byte	0x108d
 7043 15c8 8D040000 		.4byte	.LLST28
 7044 15cc 2F       		.uleb128 0x2f
 7045 15cd 42000000 		.4byte	.LVL31
 7046 15d1 1E060000 		.4byte	0x61e
 7047 15d5 30       		.uleb128 0x30
 7048 15d6 01       		.uleb128 0x1
 7049 15d7 53       		.byte	0x53
 7050 15d8 01       		.uleb128 0x1
 7051 15d9 30       		.byte	0x30
 7052 15da 30       		.uleb128 0x30
 7053 15db 01       		.uleb128 0x1
 7054 15dc 52       		.byte	0x52
 7055 15dd 01       		.uleb128 0x1
 7056 15de 41       		.byte	0x41
 7057 15df 00       		.byte	0
 7058 15e0 00       		.byte	0
 7059 15e1 3F       		.uleb128 0x3f
 7060 15e2 7C100000 		.4byte	0x107c
 7061 15e6 5C000000 		.4byte	.LBB224
 7062 15ea 0E000000 		.4byte	.LBE224-.LBB224
 7063 15ee 01       		.byte	0x1
 7064 15ef CD       		.byte	0xcd
 7065 15f0 1F160000 		.4byte	0x161f
 7066 15f4 2B       		.uleb128 0x2b
 7067 15f5 A2100000 		.4byte	0x10a2
 7068 15f9 AE040000 		.4byte	.LLST29
ARM GAS  /tmp/ccoI4Tqz.s 			page 125


 7069 15fd 2B       		.uleb128 0x2b
 7070 15fe 96100000 		.4byte	0x1096
 7071 1602 C1040000 		.4byte	.LLST30
 7072 1606 2B       		.uleb128 0x2b
 7073 1607 8D100000 		.4byte	0x108d
 7074 160b D5040000 		.4byte	.LLST31
 7075 160f 2F       		.uleb128 0x2f
 7076 1610 6A000000 		.4byte	.LVL34
 7077 1614 1E060000 		.4byte	0x61e
 7078 1618 30       		.uleb128 0x30
 7079 1619 01       		.uleb128 0x1
 7080 161a 52       		.byte	0x52
 7081 161b 01       		.uleb128 0x1
 7082 161c 42       		.byte	0x42
 7083 161d 00       		.byte	0
 7084 161e 00       		.byte	0
 7085 161f 3F       		.uleb128 0x3f
 7086 1620 7C100000 		.4byte	0x107c
 7087 1624 8E000000 		.4byte	.LBB226
 7088 1628 0E000000 		.4byte	.LBE226-.LBB226
 7089 162c 01       		.byte	0x1
 7090 162d DB       		.byte	0xdb
 7091 162e 5D160000 		.4byte	0x165d
 7092 1632 2B       		.uleb128 0x2b
 7093 1633 A2100000 		.4byte	0x10a2
 7094 1637 F6040000 		.4byte	.LLST32
 7095 163b 2B       		.uleb128 0x2b
 7096 163c 96100000 		.4byte	0x1096
 7097 1640 09050000 		.4byte	.LLST33
 7098 1644 2B       		.uleb128 0x2b
 7099 1645 8D100000 		.4byte	0x108d
 7100 1649 1D050000 		.4byte	.LLST34
 7101 164d 2F       		.uleb128 0x2f
 7102 164e 9C000000 		.4byte	.LVL40
 7103 1652 1E060000 		.4byte	0x61e
 7104 1656 30       		.uleb128 0x30
 7105 1657 01       		.uleb128 0x1
 7106 1658 52       		.byte	0x52
 7107 1659 01       		.uleb128 0x1
 7108 165a 4E       		.byte	0x4e
 7109 165b 00       		.byte	0
 7110 165c 00       		.byte	0
 7111 165d 40       		.uleb128 0x40
 7112 165e 7C100000 		.4byte	0x107c
 7113 1662 B8000000 		.4byte	.LBB228
 7114 1666 88000000 		.4byte	.Ldebug_ranges0+0x88
 7115 166a 01       		.byte	0x1
 7116 166b E5       		.byte	0xe5
 7117 166c 2B       		.uleb128 0x2b
 7118 166d A2100000 		.4byte	0x10a2
 7119 1671 3E050000 		.4byte	.LLST35
 7120 1675 2B       		.uleb128 0x2b
 7121 1676 96100000 		.4byte	0x1096
 7122 167a 51050000 		.4byte	.LLST36
 7123 167e 2B       		.uleb128 0x2b
 7124 167f 8D100000 		.4byte	0x108d
 7125 1683 65050000 		.4byte	.LLST37
ARM GAS  /tmp/ccoI4Tqz.s 			page 126


 7126 1687 41       		.uleb128 0x41
 7127 1688 CA000000 		.4byte	.LVL46
 7128 168c 1E060000 		.4byte	0x61e
 7129 1690 30       		.uleb128 0x30
 7130 1691 01       		.uleb128 0x1
 7131 1692 52       		.byte	0x52
 7132 1693 01       		.uleb128 0x1
 7133 1694 43       		.byte	0x43
 7134 1695 00       		.byte	0
 7135 1696 00       		.byte	0
 7136 1697 00       		.byte	0
 7137 1698 00       		.byte	0
 7138 1699 33       		.uleb128 0x33
 7139 169a 220E0000 		.4byte	0xe22
 7140 169e 01       		.byte	0x1
 7141 169f E8       		.byte	0xe8
 7142 16a0 00000000 		.4byte	.LFB16
 7143 16a4 9A000000 		.4byte	.LFE16-.LFB16
 7144 16a8 01       		.uleb128 0x1
 7145 16a9 9C       		.byte	0x9c
 7146 16aa B2160000 		.4byte	0x16b2
 7147 16ae 8C170000 		.4byte	0x178c
 7148 16b2 3C       		.uleb128 0x3c
 7149 16b3 02080000 		.4byte	.LASF257
 7150 16b7 AF100000 		.4byte	0x10af
 7151 16bb 86050000 		.4byte	.LLST38
 7152 16bf 2C       		.uleb128 0x2c
 7153 16c0 A0000000 		.4byte	.Ldebug_ranges0+0xa0
 7154 16c4 3D       		.uleb128 0x3d
 7155 16c5 39100000 		.4byte	.LASF267
 7156 16c9 01       		.byte	0x1
 7157 16ca E9       		.byte	0xe9
 7158 16cb AD000000 		.4byte	0xad
 7159 16cf BD050000 		.4byte	.LLST39
 7160 16d3 3F       		.uleb128 0x3f
 7161 16d4 7C100000 		.4byte	0x107c
 7162 16d8 20000000 		.4byte	.LBB235
 7163 16dc 0E000000 		.4byte	.LBE235-.LBB235
 7164 16e0 01       		.byte	0x1
 7165 16e1 F6       		.byte	0xf6
 7166 16e2 0E170000 		.4byte	0x170e
 7167 16e6 2B       		.uleb128 0x2b
 7168 16e7 A2100000 		.4byte	0x10a2
 7169 16eb 69060000 		.4byte	.LLST40
 7170 16ef 42       		.uleb128 0x42
 7171 16f0 96100000 		.4byte	0x1096
 7172 16f4 1F       		.byte	0x1f
 7173 16f5 2B       		.uleb128 0x2b
 7174 16f6 8D100000 		.4byte	0x108d
 7175 16fa 7C060000 		.4byte	.LLST41
 7176 16fe 2F       		.uleb128 0x2f
 7177 16ff 2E000000 		.4byte	.LVL55
 7178 1703 1E060000 		.4byte	0x61e
 7179 1707 30       		.uleb128 0x30
 7180 1708 01       		.uleb128 0x1
 7181 1709 52       		.byte	0x52
 7182 170a 01       		.uleb128 0x1
ARM GAS  /tmp/ccoI4Tqz.s 			page 127


 7183 170b 4F       		.byte	0x4f
 7184 170c 00       		.byte	0
 7185 170d 00       		.byte	0
 7186 170e 2E       		.uleb128 0x2e
 7187 170f 7C100000 		.4byte	0x107c
 7188 1713 58000000 		.4byte	.LBB237
 7189 1717 0E000000 		.4byte	.LBE237-.LBB237
 7190 171b 01       		.byte	0x1
 7191 171c 1301     		.2byte	0x113
 7192 171e 4E170000 		.4byte	0x174e
 7193 1722 2B       		.uleb128 0x2b
 7194 1723 A2100000 		.4byte	0x10a2
 7195 1727 B3060000 		.4byte	.LLST42
 7196 172b 2B       		.uleb128 0x2b
 7197 172c 96100000 		.4byte	0x1096
 7198 1730 C6060000 		.4byte	.LLST43
 7199 1734 2B       		.uleb128 0x2b
 7200 1735 8D100000 		.4byte	0x108d
 7201 1739 DB060000 		.4byte	.LLST44
 7202 173d 2F       		.uleb128 0x2f
 7203 173e 66000000 		.4byte	.LVL60
 7204 1742 1E060000 		.4byte	0x61e
 7205 1746 30       		.uleb128 0x30
 7206 1747 01       		.uleb128 0x1
 7207 1748 52       		.byte	0x52
 7208 1749 02       		.uleb128 0x2
 7209 174a 08       		.byte	0x8
 7210 174b 20       		.byte	0x20
 7211 174c 00       		.byte	0
 7212 174d 00       		.byte	0
 7213 174e 31       		.uleb128 0x31
 7214 174f 7C100000 		.4byte	0x107c
 7215 1753 76000000 		.4byte	.LBB239
 7216 1757 C0000000 		.4byte	.Ldebug_ranges0+0xc0
 7217 175b 01       		.byte	0x1
 7218 175c 2001     		.2byte	0x120
 7219 175e 2B       		.uleb128 0x2b
 7220 175f A2100000 		.4byte	0x10a2
 7221 1763 FC060000 		.4byte	.LLST45
 7222 1767 2B       		.uleb128 0x2b
 7223 1768 96100000 		.4byte	0x1096
 7224 176c 0F070000 		.4byte	.LLST46
 7225 1770 2B       		.uleb128 0x2b
 7226 1771 8D100000 		.4byte	0x108d
 7227 1775 24070000 		.4byte	.LLST47
 7228 1779 41       		.uleb128 0x41
 7229 177a 88000000 		.4byte	.LVL64
 7230 177e 1E060000 		.4byte	0x61e
 7231 1782 30       		.uleb128 0x30
 7232 1783 01       		.uleb128 0x1
 7233 1784 52       		.byte	0x52
 7234 1785 02       		.uleb128 0x2
 7235 1786 08       		.byte	0x8
 7236 1787 21       		.byte	0x21
 7237 1788 00       		.byte	0
 7238 1789 00       		.byte	0
 7239 178a 00       		.byte	0
ARM GAS  /tmp/ccoI4Tqz.s 			page 128


 7240 178b 00       		.byte	0
 7241 178c 39       		.uleb128 0x39
 7242 178d E7100000 		.4byte	0x10e7
 7243 1791 63010000 		.4byte	.LASF147
 7244 1795 00000000 		.4byte	.LFB19
 7245 1799 0A000000 		.4byte	.LFE19-.LFB19
 7246 179d 01       		.uleb128 0x1
 7247 179e 9C       		.byte	0x9c
 7248 179f A7170000 		.4byte	0x17a7
 7249 17a3 E4170000 		.4byte	0x17e4
 7250 17a7 2B       		.uleb128 0x2b
 7251 17a8 F8100000 		.4byte	0x10f8
 7252 17ac 45070000 		.4byte	.LLST48
 7253 17b0 2B       		.uleb128 0x2b
 7254 17b1 01110000 		.4byte	0x1101
 7255 17b5 66070000 		.4byte	.LLST49
 7256 17b9 2B       		.uleb128 0x2b
 7257 17ba 0D110000 		.4byte	0x110d
 7258 17be 87070000 		.4byte	.LLST50
 7259 17c2 43       		.uleb128 0x43
 7260 17c3 00000000 		.4byte	.LBB245
 7261 17c7 06000000 		.4byte	.LBE245-.LBB245
 7262 17cb DA170000 		.4byte	0x17da
 7263 17cf 44       		.uleb128 0x44
 7264 17d0 1A110000 		.4byte	0x111a
 7265 17d4 44       		.uleb128 0x44
 7266 17d5 26110000 		.4byte	0x1126
 7267 17d9 00       		.byte	0
 7268 17da 32       		.uleb128 0x32
 7269 17db 0A000000 		.4byte	.LVL69
 7270 17df E0120000 		.4byte	0x12e0
 7271 17e3 00       		.byte	0
 7272 17e4 45       		.uleb128 0x45
 7273 17e5 3D0E0000 		.4byte	0xe3d
 7274 17e9 01       		.byte	0x1
 7275 17ea 7401     		.2byte	0x174
 7276 17ec 00000000 		.4byte	.LFB20
 7277 17f0 AC000000 		.4byte	.LFE20-.LFB20
 7278 17f4 01       		.uleb128 0x1
 7279 17f5 9C       		.byte	0x9c
 7280 17f6 FE170000 		.4byte	0x17fe
 7281 17fa 51190000 		.4byte	0x1951
 7282 17fe 3C       		.uleb128 0x3c
 7283 17ff 02080000 		.4byte	.LASF257
 7284 1803 AF100000 		.4byte	0x10af
 7285 1807 A8070000 		.4byte	.LLST51
 7286 180b 2C       		.uleb128 0x2c
 7287 180c D8000000 		.4byte	.Ldebug_ranges0+0xd8
 7288 1810 46       		.uleb128 0x46
 7289 1811 39100000 		.4byte	.LASF267
 7290 1815 01       		.byte	0x1
 7291 1816 7501     		.2byte	0x175
 7292 1818 AD000000 		.4byte	0xad
 7293 181c D4070000 		.4byte	.LLST52
 7294 1820 2E       		.uleb128 0x2e
 7295 1821 B4100000 		.4byte	0x10b4
 7296 1825 28000000 		.4byte	.LBB247
ARM GAS  /tmp/ccoI4Tqz.s 			page 129


 7297 1829 14000000 		.4byte	.LBE247-.LBB247
 7298 182d 01       		.byte	0x1
 7299 182e 8201     		.2byte	0x182
 7300 1830 5D180000 		.4byte	0x185d
 7301 1834 2B       		.uleb128 0x2b
 7302 1835 DA100000 		.4byte	0x10da
 7303 1839 5D080000 		.4byte	.LLST53
 7304 183d 42       		.uleb128 0x42
 7305 183e CE100000 		.4byte	0x10ce
 7306 1842 20       		.byte	0x20
 7307 1843 2B       		.uleb128 0x2b
 7308 1844 C5100000 		.4byte	0x10c5
 7309 1848 84080000 		.4byte	.LLST54
 7310 184c 2F       		.uleb128 0x2f
 7311 184d 38000000 		.4byte	.LVL74
 7312 1851 1E060000 		.4byte	0x61e
 7313 1855 30       		.uleb128 0x30
 7314 1856 01       		.uleb128 0x1
 7315 1857 52       		.byte	0x52
 7316 1858 02       		.uleb128 0x2
 7317 1859 08       		.byte	0x8
 7318 185a 20       		.byte	0x20
 7319 185b 00       		.byte	0
 7320 185c 00       		.byte	0
 7321 185d 47       		.uleb128 0x47
 7322 185e B4100000 		.4byte	0x10b4
 7323 1862 3C000000 		.4byte	.LBB249
 7324 1866 F0000000 		.4byte	.Ldebug_ranges0+0xf0
 7325 186a 01       		.byte	0x1
 7326 186b 9601     		.2byte	0x196
 7327 186d 9A180000 		.4byte	0x189a
 7328 1871 2B       		.uleb128 0x2b
 7329 1872 DA100000 		.4byte	0x10da
 7330 1876 B0080000 		.4byte	.LLST55
 7331 187a 42       		.uleb128 0x42
 7332 187b CE100000 		.4byte	0x10ce
 7333 187f 21       		.byte	0x21
 7334 1880 2B       		.uleb128 0x2b
 7335 1881 C5100000 		.4byte	0x10c5
 7336 1885 C3080000 		.4byte	.LLST56
 7337 1889 2F       		.uleb128 0x2f
 7338 188a 58000000 		.4byte	.LVL76
 7339 188e 1E060000 		.4byte	0x61e
 7340 1892 30       		.uleb128 0x30
 7341 1893 01       		.uleb128 0x1
 7342 1894 52       		.byte	0x52
 7343 1895 02       		.uleb128 0x2
 7344 1896 08       		.byte	0x8
 7345 1897 21       		.byte	0x21
 7346 1898 00       		.byte	0
 7347 1899 00       		.byte	0
 7348 189a 2E       		.uleb128 0x2e
 7349 189b B4100000 		.4byte	0x10b4
 7350 189f 6C000000 		.4byte	.LBB253
 7351 18a3 10000000 		.4byte	.LBE253-.LBB253
 7352 18a7 01       		.byte	0x1
 7353 18a8 A301     		.2byte	0x1a3
ARM GAS  /tmp/ccoI4Tqz.s 			page 130


 7354 18aa D7180000 		.4byte	0x18d7
 7355 18ae 2B       		.uleb128 0x2b
 7356 18af DA100000 		.4byte	0x10da
 7357 18b3 E4080000 		.4byte	.LLST57
 7358 18b7 42       		.uleb128 0x42
 7359 18b8 CE100000 		.4byte	0x10ce
 7360 18bc 22       		.byte	0x22
 7361 18bd 2B       		.uleb128 0x2b
 7362 18be C5100000 		.4byte	0x10c5
 7363 18c2 00090000 		.4byte	.LLST58
 7364 18c6 2F       		.uleb128 0x2f
 7365 18c7 7C000000 		.4byte	.LVL79
 7366 18cb 1E060000 		.4byte	0x61e
 7367 18cf 30       		.uleb128 0x30
 7368 18d0 01       		.uleb128 0x1
 7369 18d1 52       		.byte	0x52
 7370 18d2 02       		.uleb128 0x2
 7371 18d3 08       		.byte	0x8
 7372 18d4 22       		.byte	0x22
 7373 18d5 00       		.byte	0
 7374 18d6 00       		.byte	0
 7375 18d7 47       		.uleb128 0x47
 7376 18d8 B4100000 		.4byte	0x10b4
 7377 18dc 80000000 		.4byte	.LBB255
 7378 18e0 08010000 		.4byte	.Ldebug_ranges0+0x108
 7379 18e4 01       		.byte	0x1
 7380 18e5 AD01     		.2byte	0x1ad
 7381 18e7 14190000 		.4byte	0x1914
 7382 18eb 2B       		.uleb128 0x2b
 7383 18ec DA100000 		.4byte	0x10da
 7384 18f0 21090000 		.4byte	.LLST59
 7385 18f4 42       		.uleb128 0x42
 7386 18f5 CE100000 		.4byte	0x10ce
 7387 18f9 23       		.byte	0x23
 7388 18fa 2B       		.uleb128 0x2b
 7389 18fb C5100000 		.4byte	0x10c5
 7390 18ff 3C090000 		.4byte	.LLST60
 7391 1903 2F       		.uleb128 0x2f
 7392 1904 94000000 		.4byte	.LVL80
 7393 1908 1E060000 		.4byte	0x61e
 7394 190c 30       		.uleb128 0x30
 7395 190d 01       		.uleb128 0x1
 7396 190e 52       		.byte	0x52
 7397 190f 02       		.uleb128 0x2
 7398 1910 08       		.byte	0x8
 7399 1911 23       		.byte	0x23
 7400 1912 00       		.byte	0
 7401 1913 00       		.byte	0
 7402 1914 31       		.uleb128 0x31
 7403 1915 B4100000 		.4byte	0x10b4
 7404 1919 94000000 		.4byte	.LBB259
 7405 191d 20010000 		.4byte	.Ldebug_ranges0+0x120
 7406 1921 01       		.byte	0x1
 7407 1922 B401     		.2byte	0x1b4
 7408 1924 42       		.uleb128 0x42
 7409 1925 DA100000 		.4byte	0x10da
 7410 1929 00       		.byte	0
ARM GAS  /tmp/ccoI4Tqz.s 			page 131


 7411 192a 42       		.uleb128 0x42
 7412 192b CE100000 		.4byte	0x10ce
 7413 192f 24       		.byte	0x24
 7414 1930 2B       		.uleb128 0x2b
 7415 1931 C5100000 		.4byte	0x10c5
 7416 1935 5D090000 		.4byte	.LLST61
 7417 1939 41       		.uleb128 0x41
 7418 193a A8000000 		.4byte	.LVL82
 7419 193e 1E060000 		.4byte	0x61e
 7420 1942 30       		.uleb128 0x30
 7421 1943 01       		.uleb128 0x1
 7422 1944 53       		.byte	0x53
 7423 1945 01       		.uleb128 0x1
 7424 1946 30       		.byte	0x30
 7425 1947 30       		.uleb128 0x30
 7426 1948 01       		.uleb128 0x1
 7427 1949 52       		.byte	0x52
 7428 194a 02       		.uleb128 0x2
 7429 194b 08       		.byte	0x8
 7430 194c 24       		.byte	0x24
 7431 194d 00       		.byte	0
 7432 194e 00       		.byte	0
 7433 194f 00       		.byte	0
 7434 1950 00       		.byte	0
 7435 1951 45       		.uleb128 0x45
 7436 1952 1F090000 		.4byte	0x91f
 7437 1956 01       		.byte	0x1
 7438 1957 B701     		.2byte	0x1b7
 7439 1959 00000000 		.4byte	.LFB21
 7440 195d 18000000 		.4byte	.LFE21-.LFB21
 7441 1961 01       		.uleb128 0x1
 7442 1962 9C       		.byte	0x9c
 7443 1963 6B190000 		.4byte	0x196b
 7444 1967 C3190000 		.4byte	0x19c3
 7445 196b 3C       		.uleb128 0x3c
 7446 196c 02080000 		.4byte	.LASF257
 7447 1970 AF100000 		.4byte	0x10af
 7448 1974 7E090000 		.4byte	.LLST62
 7449 1978 48       		.uleb128 0x48
 7450 1979 04000000 		.4byte	.LBB264
 7451 197d 0E000000 		.4byte	.LBE264-.LBB264
 7452 1981 46       		.uleb128 0x46
 7453 1982 6F070000 		.4byte	.LASF100
 7454 1986 01       		.byte	0x1
 7455 1987 B801     		.2byte	0x1b8
 7456 1989 AD000000 		.4byte	0xad
 7457 198d AA090000 		.4byte	.LLST63
 7458 1991 49       		.uleb128 0x49
 7459 1992 34110000 		.4byte	0x1134
 7460 1996 04000000 		.4byte	.LBB265
 7461 199a 0E000000 		.4byte	.LBE265-.LBB265
 7462 199e 01       		.byte	0x1
 7463 199f B801     		.2byte	0x1b8
 7464 19a1 42       		.uleb128 0x42
 7465 19a2 4E110000 		.4byte	0x114e
 7466 19a6 27       		.byte	0x27
 7467 19a7 2B       		.uleb128 0x2b
ARM GAS  /tmp/ccoI4Tqz.s 			page 132


 7468 19a8 45110000 		.4byte	0x1145
 7469 19ac BD090000 		.4byte	.LLST64
 7470 19b0 2F       		.uleb128 0x2f
 7471 19b1 12000000 		.4byte	.LVL86
 7472 19b5 6B060000 		.4byte	0x66b
 7473 19b9 30       		.uleb128 0x30
 7474 19ba 01       		.uleb128 0x1
 7475 19bb 52       		.byte	0x52
 7476 19bc 02       		.uleb128 0x2
 7477 19bd 08       		.byte	0x8
 7478 19be 27       		.byte	0x27
 7479 19bf 00       		.byte	0
 7480 19c0 00       		.byte	0
 7481 19c1 00       		.byte	0
 7482 19c2 00       		.byte	0
 7483 19c3 45       		.uleb128 0x45
 7484 19c4 3D090000 		.4byte	0x93d
 7485 19c8 01       		.byte	0x1
 7486 19c9 BD01     		.2byte	0x1bd
 7487 19cb 00000000 		.4byte	.LFB22
 7488 19cf 18000000 		.4byte	.LFE22-.LFB22
 7489 19d3 01       		.uleb128 0x1
 7490 19d4 9C       		.byte	0x9c
 7491 19d5 DD190000 		.4byte	0x19dd
 7492 19d9 351A0000 		.4byte	0x1a35
 7493 19dd 3C       		.uleb128 0x3c
 7494 19de 02080000 		.4byte	.LASF257
 7495 19e2 AF100000 		.4byte	0x10af
 7496 19e6 E9090000 		.4byte	.LLST65
 7497 19ea 48       		.uleb128 0x48
 7498 19eb 04000000 		.4byte	.LBB267
 7499 19ef 0E000000 		.4byte	.LBE267-.LBB267
 7500 19f3 46       		.uleb128 0x46
 7501 19f4 6F070000 		.4byte	.LASF100
 7502 19f8 01       		.byte	0x1
 7503 19f9 BE01     		.2byte	0x1be
 7504 19fb AD000000 		.4byte	0xad
 7505 19ff 150A0000 		.4byte	.LLST66
 7506 1a03 49       		.uleb128 0x49
 7507 1a04 34110000 		.4byte	0x1134
 7508 1a08 04000000 		.4byte	.LBB268
 7509 1a0c 0E000000 		.4byte	.LBE268-.LBB268
 7510 1a10 01       		.byte	0x1
 7511 1a11 BE01     		.2byte	0x1be
 7512 1a13 42       		.uleb128 0x42
 7513 1a14 4E110000 		.4byte	0x114e
 7514 1a18 27       		.byte	0x27
 7515 1a19 2B       		.uleb128 0x2b
 7516 1a1a 45110000 		.4byte	0x1145
 7517 1a1e 280A0000 		.4byte	.LLST67
 7518 1a22 2F       		.uleb128 0x2f
 7519 1a23 12000000 		.4byte	.LVL91
 7520 1a27 6B060000 		.4byte	0x66b
 7521 1a2b 30       		.uleb128 0x30
 7522 1a2c 01       		.uleb128 0x1
 7523 1a2d 52       		.byte	0x52
 7524 1a2e 02       		.uleb128 0x2
ARM GAS  /tmp/ccoI4Tqz.s 			page 133


 7525 1a2f 08       		.byte	0x8
 7526 1a30 27       		.byte	0x27
 7527 1a31 00       		.byte	0
 7528 1a32 00       		.byte	0
 7529 1a33 00       		.byte	0
 7530 1a34 00       		.byte	0
 7531 1a35 45       		.uleb128 0x45
 7532 1a36 5B090000 		.4byte	0x95b
 7533 1a3a 01       		.byte	0x1
 7534 1a3b C301     		.2byte	0x1c3
 7535 1a3d 00000000 		.4byte	.LFB23
 7536 1a41 18000000 		.4byte	.LFE23-.LFB23
 7537 1a45 01       		.uleb128 0x1
 7538 1a46 9C       		.byte	0x9c
 7539 1a47 4F1A0000 		.4byte	0x1a4f
 7540 1a4b A71A0000 		.4byte	0x1aa7
 7541 1a4f 3C       		.uleb128 0x3c
 7542 1a50 02080000 		.4byte	.LASF257
 7543 1a54 AF100000 		.4byte	0x10af
 7544 1a58 540A0000 		.4byte	.LLST68
 7545 1a5c 48       		.uleb128 0x48
 7546 1a5d 04000000 		.4byte	.LBB270
 7547 1a61 0E000000 		.4byte	.LBE270-.LBB270
 7548 1a65 46       		.uleb128 0x46
 7549 1a66 6F070000 		.4byte	.LASF100
 7550 1a6a 01       		.byte	0x1
 7551 1a6b C401     		.2byte	0x1c4
 7552 1a6d AD000000 		.4byte	0xad
 7553 1a71 800A0000 		.4byte	.LLST69
 7554 1a75 49       		.uleb128 0x49
 7555 1a76 34110000 		.4byte	0x1134
 7556 1a7a 04000000 		.4byte	.LBB271
 7557 1a7e 0E000000 		.4byte	.LBE271-.LBB271
 7558 1a82 01       		.byte	0x1
 7559 1a83 C401     		.2byte	0x1c4
 7560 1a85 42       		.uleb128 0x42
 7561 1a86 4E110000 		.4byte	0x114e
 7562 1a8a 27       		.byte	0x27
 7563 1a8b 2B       		.uleb128 0x2b
 7564 1a8c 45110000 		.4byte	0x1145
 7565 1a90 930A0000 		.4byte	.LLST70
 7566 1a94 2F       		.uleb128 0x2f
 7567 1a95 12000000 		.4byte	.LVL96
 7568 1a99 6B060000 		.4byte	0x66b
 7569 1a9d 30       		.uleb128 0x30
 7570 1a9e 01       		.uleb128 0x1
 7571 1a9f 52       		.byte	0x52
 7572 1aa0 02       		.uleb128 0x2
 7573 1aa1 08       		.byte	0x8
 7574 1aa2 27       		.byte	0x27
 7575 1aa3 00       		.byte	0
 7576 1aa4 00       		.byte	0
 7577 1aa5 00       		.byte	0
 7578 1aa6 00       		.byte	0
 7579 1aa7 39       		.uleb128 0x39
 7580 1aa8 84120000 		.4byte	0x1284
 7581 1aac C9030000 		.4byte	.LASF155
ARM GAS  /tmp/ccoI4Tqz.s 			page 134


 7582 1ab0 00000000 		.4byte	.LFB24
 7583 1ab4 20000000 		.4byte	.LFE24-.LFB24
 7584 1ab8 01       		.uleb128 0x1
 7585 1ab9 9C       		.byte	0x9c
 7586 1aba C21A0000 		.4byte	0x1ac2
 7587 1abe 141B0000 		.4byte	0x1b14
 7588 1ac2 2B       		.uleb128 0x2b
 7589 1ac3 95120000 		.4byte	0x1295
 7590 1ac7 BF0A0000 		.4byte	.LLST71
 7591 1acb 2B       		.uleb128 0x2b
 7592 1acc 9E120000 		.4byte	0x129e
 7593 1ad0 EB0A0000 		.4byte	.LLST72
 7594 1ad4 2C       		.uleb128 0x2c
 7595 1ad5 38010000 		.4byte	.Ldebug_ranges0+0x138
 7596 1ad9 2D       		.uleb128 0x2d
 7597 1ada AB120000 		.4byte	0x12ab
 7598 1ade 0C0B0000 		.4byte	.LLST73
 7599 1ae2 31       		.uleb128 0x31
 7600 1ae3 1E120000 		.4byte	0x121e
 7601 1ae7 04000000 		.4byte	.LBB274
 7602 1aeb 50010000 		.4byte	.Ldebug_ranges0+0x150
 7603 1aef 01       		.byte	0x1
 7604 1af0 CB01     		.2byte	0x1cb
 7605 1af2 42       		.uleb128 0x42
 7606 1af3 38120000 		.4byte	0x1238
 7607 1af7 27       		.byte	0x27
 7608 1af8 2B       		.uleb128 0x2b
 7609 1af9 2F120000 		.4byte	0x122f
 7610 1afd 1F0B0000 		.4byte	.LLST74
 7611 1b01 2F       		.uleb128 0x2f
 7612 1b02 14000000 		.4byte	.LVL102
 7613 1b06 6B060000 		.4byte	0x66b
 7614 1b0a 30       		.uleb128 0x30
 7615 1b0b 01       		.uleb128 0x1
 7616 1b0c 52       		.byte	0x52
 7617 1b0d 02       		.uleb128 0x2
 7618 1b0e 08       		.byte	0x8
 7619 1b0f 27       		.byte	0x27
 7620 1b10 00       		.byte	0
 7621 1b11 00       		.byte	0
 7622 1b12 00       		.byte	0
 7623 1b13 00       		.byte	0
 7624 1b14 45       		.uleb128 0x45
 7625 1b15 D9090000 		.4byte	0x9d9
 7626 1b19 01       		.byte	0x1
 7627 1b1a D001     		.2byte	0x1d0
 7628 1b1c 00000000 		.4byte	.LFB25
 7629 1b20 66000000 		.4byte	.LFE25-.LFB25
 7630 1b24 01       		.uleb128 0x1
 7631 1b25 9C       		.byte	0x9c
 7632 1b26 2E1B0000 		.4byte	0x1b2e
 7633 1b2a A01B0000 		.4byte	0x1ba0
 7634 1b2e 3C       		.uleb128 0x3c
 7635 1b2f 02080000 		.4byte	.LASF257
 7636 1b33 AF100000 		.4byte	0x10af
 7637 1b37 4B0B0000 		.4byte	.LLST75
 7638 1b3b 48       		.uleb128 0x48
ARM GAS  /tmp/ccoI4Tqz.s 			page 135


 7639 1b3c 06000000 		.4byte	.LBB279
 7640 1b40 5C000000 		.4byte	.LBE279-.LBB279
 7641 1b44 4A       		.uleb128 0x4a
 7642 1b45 54110000 		.4byte	.LASF70
 7643 1b49 01       		.byte	0x1
 7644 1b4a D101     		.2byte	0x1d1
 7645 1b4c A01B0000 		.4byte	0x1ba0
 7646 1b50 02       		.uleb128 0x2
 7647 1b51 91       		.byte	0x91
 7648 1b52 60       		.sleb128 -32
 7649 1b53 49       		.uleb128 0x49
 7650 1b54 91110000 		.4byte	0x1191
 7651 1b58 06000000 		.4byte	.LBB280
 7652 1b5c 14000000 		.4byte	.LBE280-.LBB280
 7653 1b60 01       		.byte	0x1
 7654 1b61 D201     		.2byte	0x1d2
 7655 1b63 42       		.uleb128 0x42
 7656 1b64 C3110000 		.4byte	0x11c3
 7657 1b68 06       		.byte	0x6
 7658 1b69 2B       		.uleb128 0x2b
 7659 1b6a B7110000 		.4byte	0x11b7
 7660 1b6e 690B0000 		.4byte	.LLST76
 7661 1b72 42       		.uleb128 0x42
 7662 1b73 AB110000 		.4byte	0x11ab
 7663 1b77 28       		.byte	0x28
 7664 1b78 2B       		.uleb128 0x2b
 7665 1b79 A2110000 		.4byte	0x11a2
 7666 1b7d 960B0000 		.4byte	.LLST77
 7667 1b81 2F       		.uleb128 0x2f
 7668 1b82 1A000000 		.4byte	.LVL109
 7669 1b86 B6060000 		.4byte	0x6b6
 7670 1b8a 30       		.uleb128 0x30
 7671 1b8b 01       		.uleb128 0x1
 7672 1b8c 53       		.byte	0x53
 7673 1b8d 02       		.uleb128 0x2
 7674 1b8e 91       		.byte	0x91
 7675 1b8f 60       		.sleb128 -32
 7676 1b90 30       		.uleb128 0x30
 7677 1b91 01       		.uleb128 0x1
 7678 1b92 52       		.byte	0x52
 7679 1b93 02       		.uleb128 0x2
 7680 1b94 08       		.byte	0x8
 7681 1b95 28       		.byte	0x28
 7682 1b96 30       		.uleb128 0x30
 7683 1b97 02       		.uleb128 0x2
 7684 1b98 7D       		.byte	0x7d
 7685 1b99 00       		.sleb128 0
 7686 1b9a 01       		.uleb128 0x1
 7687 1b9b 36       		.byte	0x36
 7688 1b9c 00       		.byte	0
 7689 1b9d 00       		.byte	0
 7690 1b9e 00       		.byte	0
 7691 1b9f 00       		.byte	0
 7692 1ba0 0C       		.uleb128 0xc
 7693 1ba1 50000000 		.4byte	0x50
 7694 1ba5 B01B0000 		.4byte	0x1bb0
 7695 1ba9 0D       		.uleb128 0xd
ARM GAS  /tmp/ccoI4Tqz.s 			page 136


 7696 1baa AE030000 		.4byte	0x3ae
 7697 1bae 05       		.byte	0x5
 7698 1baf 00       		.byte	0
 7699 1bb0 45       		.uleb128 0x45
 7700 1bb1 F3090000 		.4byte	0x9f3
 7701 1bb5 01       		.byte	0x1
 7702 1bb6 DD01     		.2byte	0x1dd
 7703 1bb8 00000000 		.4byte	.LFB26
 7704 1bbc 48000000 		.4byte	.LFE26-.LFB26
 7705 1bc0 01       		.uleb128 0x1
 7706 1bc1 9C       		.byte	0x9c
 7707 1bc2 CA1B0000 		.4byte	0x1bca
 7708 1bc6 601C0000 		.4byte	0x1c60
 7709 1bca 3C       		.uleb128 0x3c
 7710 1bcb 02080000 		.4byte	.LASF257
 7711 1bcf AF100000 		.4byte	0x10af
 7712 1bd3 B40B0000 		.4byte	.LLST78
 7713 1bd7 4B       		.uleb128 0x4b
 7714 1bd8 82060000 		.4byte	.LASF258
 7715 1bdc 01       		.byte	0x1
 7716 1bdd DD01     		.2byte	0x1dd
 7717 1bdf EC060000 		.4byte	0x6ec
 7718 1be3 E00B0000 		.4byte	.LLST79
 7719 1be7 2C       		.uleb128 0x2c
 7720 1be8 68010000 		.4byte	.Ldebug_ranges0+0x168
 7721 1bec 4A       		.uleb128 0x4a
 7722 1bed 54110000 		.4byte	.LASF70
 7723 1bf1 01       		.byte	0x1
 7724 1bf2 DE01     		.2byte	0x1de
 7725 1bf4 601C0000 		.4byte	0x1c60
 7726 1bf8 02       		.uleb128 0x2
 7727 1bf9 91       		.byte	0x91
 7728 1bfa 6C       		.sleb128 -20
 7729 1bfb 46       		.uleb128 0x46
 7730 1bfc 36050000 		.4byte	.LASF268
 7731 1c00 01       		.byte	0x1
 7732 1c01 DF01     		.2byte	0x1df
 7733 1c03 B8000000 		.4byte	0xb8
 7734 1c07 010C0000 		.4byte	.LLST80
 7735 1c0b 31       		.uleb128 0x31
 7736 1c0c 91110000 		.4byte	0x1191
 7737 1c10 0A000000 		.4byte	.LBB283
 7738 1c14 88010000 		.4byte	.Ldebug_ranges0+0x188
 7739 1c18 01       		.byte	0x1
 7740 1c19 E001     		.2byte	0x1e0
 7741 1c1b 42       		.uleb128 0x42
 7742 1c1c C3110000 		.4byte	0x11c3
 7743 1c20 02       		.byte	0x2
 7744 1c21 2B       		.uleb128 0x2b
 7745 1c22 B7110000 		.4byte	0x11b7
 7746 1c26 3B0C0000 		.4byte	.LLST81
 7747 1c2a 2B       		.uleb128 0x2b
 7748 1c2b AB110000 		.4byte	0x11ab
 7749 1c2f 680C0000 		.4byte	.LLST82
 7750 1c33 2B       		.uleb128 0x2b
 7751 1c34 A2110000 		.4byte	0x11a2
 7752 1c38 910C0000 		.4byte	.LLST83
ARM GAS  /tmp/ccoI4Tqz.s 			page 137


 7753 1c3c 2F       		.uleb128 0x2f
 7754 1c3d 24000000 		.4byte	.LVL116
 7755 1c41 B6060000 		.4byte	0x6b6
 7756 1c45 30       		.uleb128 0x30
 7757 1c46 01       		.uleb128 0x1
 7758 1c47 53       		.byte	0x53
 7759 1c48 02       		.uleb128 0x2
 7760 1c49 91       		.byte	0x91
 7761 1c4a 6C       		.sleb128 -20
 7762 1c4b 30       		.uleb128 0x30
 7763 1c4c 01       		.uleb128 0x1
 7764 1c4d 52       		.byte	0x52
 7765 1c4e 07       		.uleb128 0x7
 7766 1c4f 75       		.byte	0x75
 7767 1c50 14       		.sleb128 20
 7768 1c51 31       		.byte	0x31
 7769 1c52 24       		.byte	0x24
 7770 1c53 08       		.byte	0x8
 7771 1c54 FE       		.byte	0xfe
 7772 1c55 1A       		.byte	0x1a
 7773 1c56 30       		.uleb128 0x30
 7774 1c57 02       		.uleb128 0x2
 7775 1c58 7D       		.byte	0x7d
 7776 1c59 00       		.sleb128 0
 7777 1c5a 01       		.uleb128 0x1
 7778 1c5b 32       		.byte	0x32
 7779 1c5c 00       		.byte	0
 7780 1c5d 00       		.byte	0
 7781 1c5e 00       		.byte	0
 7782 1c5f 00       		.byte	0
 7783 1c60 0C       		.uleb128 0xc
 7784 1c61 50000000 		.4byte	0x50
 7785 1c65 701C0000 		.4byte	0x1c70
 7786 1c69 0D       		.uleb128 0xd
 7787 1c6a AE030000 		.4byte	0x3ae
 7788 1c6e 01       		.byte	0x1
 7789 1c6f 00       		.byte	0
 7790 1c70 45       		.uleb128 0x45
 7791 1c71 160A0000 		.4byte	0xa16
 7792 1c75 01       		.byte	0x1
 7793 1c76 E801     		.2byte	0x1e8
 7794 1c78 00000000 		.4byte	.LFB27
 7795 1c7c 48000000 		.4byte	.LFE27-.LFB27
 7796 1c80 01       		.uleb128 0x1
 7797 1c81 9C       		.byte	0x9c
 7798 1c82 8A1C0000 		.4byte	0x1c8a
 7799 1c86 FC1C0000 		.4byte	0x1cfc
 7800 1c8a 3C       		.uleb128 0x3c
 7801 1c8b 02080000 		.4byte	.LASF257
 7802 1c8f AF100000 		.4byte	0x10af
 7803 1c93 BD0C0000 		.4byte	.LLST84
 7804 1c97 48       		.uleb128 0x48
 7805 1c98 06000000 		.4byte	.LBB291
 7806 1c9c 3E000000 		.4byte	.LBE291-.LBB291
 7807 1ca0 4A       		.uleb128 0x4a
 7808 1ca1 54110000 		.4byte	.LASF70
 7809 1ca5 01       		.byte	0x1
ARM GAS  /tmp/ccoI4Tqz.s 			page 138


 7810 1ca6 E901     		.2byte	0x1e9
 7811 1ca8 A01B0000 		.4byte	0x1ba0
 7812 1cac 02       		.uleb128 0x2
 7813 1cad 91       		.byte	0x91
 7814 1cae 68       		.sleb128 -24
 7815 1caf 49       		.uleb128 0x49
 7816 1cb0 45120000 		.4byte	0x1245
 7817 1cb4 06000000 		.4byte	.LBB292
 7818 1cb8 14000000 		.4byte	.LBE292-.LBB292
 7819 1cbc 01       		.byte	0x1
 7820 1cbd EA01     		.2byte	0x1ea
 7821 1cbf 42       		.uleb128 0x42
 7822 1cc0 77120000 		.4byte	0x1277
 7823 1cc4 06       		.byte	0x6
 7824 1cc5 2B       		.uleb128 0x2b
 7825 1cc6 6B120000 		.4byte	0x126b
 7826 1cca DB0C0000 		.4byte	.LLST85
 7827 1cce 42       		.uleb128 0x42
 7828 1ccf 5F120000 		.4byte	0x125f
 7829 1cd3 28       		.byte	0x28
 7830 1cd4 2B       		.uleb128 0x2b
 7831 1cd5 56120000 		.4byte	0x1256
 7832 1cd9 080D0000 		.4byte	.LLST86
 7833 1cdd 2F       		.uleb128 0x2f
 7834 1cde 1A000000 		.4byte	.LVL126
 7835 1ce2 B6060000 		.4byte	0x6b6
 7836 1ce6 30       		.uleb128 0x30
 7837 1ce7 01       		.uleb128 0x1
 7838 1ce8 53       		.byte	0x53
 7839 1ce9 02       		.uleb128 0x2
 7840 1cea 91       		.byte	0x91
 7841 1ceb 68       		.sleb128 -24
 7842 1cec 30       		.uleb128 0x30
 7843 1ced 01       		.uleb128 0x1
 7844 1cee 52       		.byte	0x52
 7845 1cef 02       		.uleb128 0x2
 7846 1cf0 08       		.byte	0x8
 7847 1cf1 28       		.byte	0x28
 7848 1cf2 30       		.uleb128 0x30
 7849 1cf3 02       		.uleb128 0x2
 7850 1cf4 7D       		.byte	0x7d
 7851 1cf5 00       		.sleb128 0
 7852 1cf6 01       		.uleb128 0x1
 7853 1cf7 36       		.byte	0x36
 7854 1cf8 00       		.byte	0
 7855 1cf9 00       		.byte	0
 7856 1cfa 00       		.byte	0
 7857 1cfb 00       		.byte	0
 7858 1cfc 4C       		.uleb128 0x4c
 7859 1cfd DC080000 		.4byte	0x8dc
 7860 1d01 01       		.byte	0x1
 7861 1d02 5301     		.2byte	0x153
 7862 1d04 00000000 		.4byte	.LFB18
 7863 1d08 CC000000 		.4byte	.LFE18-.LFB18
 7864 1d0c 01       		.uleb128 0x1
 7865 1d0d 9C       		.byte	0x9c
 7866 1d0e 161D0000 		.4byte	0x1d16
ARM GAS  /tmp/ccoI4Tqz.s 			page 139


 7867 1d12 691E0000 		.4byte	0x1e69
 7868 1d16 3C       		.uleb128 0x3c
 7869 1d17 02080000 		.4byte	.LASF257
 7870 1d1b AF100000 		.4byte	0x10af
 7871 1d1f 260D0000 		.4byte	.LLST87
 7872 1d23 4B       		.uleb128 0x4b
 7873 1d24 790A0000 		.4byte	.LASF269
 7874 1d28 01       		.byte	0x1
 7875 1d29 5301     		.2byte	0x153
 7876 1d2b 6F100000 		.4byte	0x106f
 7877 1d2f 440D0000 		.4byte	.LLST88
 7878 1d33 48       		.uleb128 0x48
 7879 1d34 0A000000 		.4byte	.LBB294
 7880 1d38 BC000000 		.4byte	.LBE294-.LBB294
 7881 1d3c 4D       		.uleb128 0x4d
 7882 1d3d 6900     		.ascii	"i\000"
 7883 1d3f 01       		.byte	0x1
 7884 1d40 5401     		.2byte	0x154
 7885 1d42 25000000 		.4byte	0x25
 7886 1d46 650D0000 		.4byte	.LLST89
 7887 1d4a 4D       		.uleb128 0x4d
 7888 1d4b 6A00     		.ascii	"j\000"
 7889 1d4d 01       		.byte	0x1
 7890 1d4e 5401     		.2byte	0x154
 7891 1d50 25000000 		.4byte	0x25
 7892 1d54 990D0000 		.4byte	.LLST90
 7893 1d58 4A       		.uleb128 0x4a
 7894 1d59 F50E0000 		.4byte	.LASF270
 7895 1d5d 01       		.byte	0x1
 7896 1d5e 5501     		.2byte	0x155
 7897 1d60 5F100000 		.4byte	0x105f
 7898 1d64 02       		.uleb128 0x2
 7899 1d65 91       		.byte	0x91
 7900 1d66 48       		.sleb128 -56
 7901 1d67 4A       		.uleb128 0x4a
 7902 1d68 380A0000 		.4byte	.LASF271
 7903 1d6c 01       		.byte	0x1
 7904 1d6d 5601     		.2byte	0x156
 7905 1d6f 5F100000 		.4byte	0x105f
 7906 1d73 02       		.uleb128 0x2
 7907 1d74 91       		.byte	0x91
 7908 1d75 50       		.sleb128 -48
 7909 1d76 43       		.uleb128 0x43
 7910 1d77 28000000 		.4byte	.LBB296
 7911 1d7b 54000000 		.4byte	.LBE296-.LBB296
 7912 1d7f 061E0000 		.4byte	0x1e06
 7913 1d83 4A       		.uleb128 0x4a
 7914 1d84 C5060000 		.4byte	.LASF272
 7915 1d88 01       		.byte	0x1
 7916 1d89 5C01     		.2byte	0x15c
 7917 1d8b 5F100000 		.4byte	0x105f
 7918 1d8f 02       		.uleb128 0x2
 7919 1d90 91       		.byte	0x91
 7920 1d91 58       		.sleb128 -40
 7921 1d92 2E       		.uleb128 0x2e
 7922 1d93 84120000 		.4byte	0x1284
 7923 1d97 28000000 		.4byte	.LBB297
ARM GAS  /tmp/ccoI4Tqz.s 			page 140


 7924 1d9b 0E000000 		.4byte	.LBE297-.LBB297
 7925 1d9f 01       		.byte	0x1
 7926 1da0 5901     		.2byte	0x159
 7927 1da2 F51D0000 		.4byte	0x1df5
 7928 1da6 42       		.uleb128 0x42
 7929 1da7 9E120000 		.4byte	0x129e
 7930 1dab 03       		.byte	0x3
 7931 1dac 3B       		.uleb128 0x3b
 7932 1dad 95120000 		.4byte	0x1295
 7933 1db1 01       		.uleb128 0x1
 7934 1db2 54       		.byte	0x54
 7935 1db3 48       		.uleb128 0x48
 7936 1db4 28000000 		.4byte	.LBB298
 7937 1db8 0E000000 		.4byte	.LBE298-.LBB298
 7938 1dbc 2D       		.uleb128 0x2d
 7939 1dbd AB120000 		.4byte	0x12ab
 7940 1dc1 DB0D0000 		.4byte	.LLST91
 7941 1dc5 49       		.uleb128 0x49
 7942 1dc6 1E120000 		.4byte	0x121e
 7943 1dca 28000000 		.4byte	.LBB299
 7944 1dce 0E000000 		.4byte	.LBE299-.LBB299
 7945 1dd2 01       		.byte	0x1
 7946 1dd3 CB01     		.2byte	0x1cb
 7947 1dd5 42       		.uleb128 0x42
 7948 1dd6 38120000 		.4byte	0x1238
 7949 1dda 27       		.byte	0x27
 7950 1ddb 3B       		.uleb128 0x3b
 7951 1ddc 2F120000 		.4byte	0x122f
 7952 1de0 01       		.uleb128 0x1
 7953 1de1 54       		.byte	0x54
 7954 1de2 2F       		.uleb128 0x2f
 7955 1de3 36000000 		.4byte	.LVL130
 7956 1de7 6B060000 		.4byte	0x66b
 7957 1deb 30       		.uleb128 0x30
 7958 1dec 01       		.uleb128 0x1
 7959 1ded 52       		.byte	0x52
 7960 1dee 02       		.uleb128 0x2
 7961 1def 08       		.byte	0x8
 7962 1df0 27       		.byte	0x27
 7963 1df1 00       		.byte	0
 7964 1df2 00       		.byte	0
 7965 1df3 00       		.byte	0
 7966 1df4 00       		.byte	0
 7967 1df5 2F       		.uleb128 0x2f
 7968 1df6 40000000 		.4byte	.LVL132
 7969 1dfa 701C0000 		.4byte	0x1c70
 7970 1dfe 30       		.uleb128 0x30
 7971 1dff 01       		.uleb128 0x1
 7972 1e00 50       		.byte	0x50
 7973 1e01 02       		.uleb128 0x2
 7974 1e02 74       		.byte	0x74
 7975 1e03 00       		.sleb128 0
 7976 1e04 00       		.byte	0
 7977 1e05 00       		.byte	0
 7978 1e06 47       		.uleb128 0x47
 7979 1e07 B9120000 		.4byte	0x12b9
 7980 1e0b 9A000000 		.4byte	.LBB301
ARM GAS  /tmp/ccoI4Tqz.s 			page 141


 7981 1e0f A8010000 		.4byte	.Ldebug_ranges0+0x1a8
 7982 1e13 01       		.byte	0x1
 7983 1e14 6701     		.2byte	0x167
 7984 1e16 2B1E0000 		.4byte	0x1e2b
 7985 1e1a 2B       		.uleb128 0x2b
 7986 1e1b D3120000 		.4byte	0x12d3
 7987 1e1f EE0D0000 		.4byte	.LLST92
 7988 1e23 3B       		.uleb128 0x3b
 7989 1e24 CA120000 		.4byte	0x12ca
 7990 1e28 01       		.uleb128 0x1
 7991 1e29 54       		.byte	0x54
 7992 1e2a 00       		.byte	0
 7993 1e2b 31       		.uleb128 0x31
 7994 1e2c E7100000 		.4byte	0x10e7
 7995 1e30 B0000000 		.4byte	.LBB305
 7996 1e34 C0010000 		.4byte	.Ldebug_ranges0+0x1c0
 7997 1e38 01       		.byte	0x1
 7998 1e39 6801     		.2byte	0x168
 7999 1e3b 4E       		.uleb128 0x4e
 8000 1e3c 0D110000 		.4byte	0x110d
 8001 1e40 2B       		.uleb128 0x2b
 8002 1e41 01110000 		.4byte	0x1101
 8003 1e45 010E0000 		.4byte	.LLST93
 8004 1e49 3B       		.uleb128 0x3b
 8005 1e4a F8100000 		.4byte	0x10f8
 8006 1e4e 01       		.uleb128 0x1
 8007 1e4f 54       		.byte	0x54
 8008 1e50 2F       		.uleb128 0x2f
 8009 1e51 C2000000 		.4byte	.LVL143
 8010 1e55 E0120000 		.4byte	0x12e0
 8011 1e59 30       		.uleb128 0x30
 8012 1e5a 01       		.uleb128 0x1
 8013 1e5b 52       		.byte	0x52
 8014 1e5c 02       		.uleb128 0x2
 8015 1e5d 7A       		.byte	0x7a
 8016 1e5e 00       		.sleb128 0
 8017 1e5f 30       		.uleb128 0x30
 8018 1e60 01       		.uleb128 0x1
 8019 1e61 50       		.byte	0x50
 8020 1e62 02       		.uleb128 0x2
 8021 1e63 74       		.byte	0x74
 8022 1e64 00       		.sleb128 0
 8023 1e65 00       		.byte	0
 8024 1e66 00       		.byte	0
 8025 1e67 00       		.byte	0
 8026 1e68 00       		.byte	0
 8027 1e69 45       		.uleb128 0x45
 8028 1e6a 300A0000 		.4byte	0xa30
 8029 1e6e 01       		.byte	0x1
 8030 1e6f F001     		.2byte	0x1f0
 8031 1e71 00000000 		.4byte	.LFB28
 8032 1e75 36000000 		.4byte	.LFE28-.LFB28
 8033 1e79 01       		.uleb128 0x1
 8034 1e7a 9C       		.byte	0x9c
 8035 1e7b 831E0000 		.4byte	0x1e83
 8036 1e7f FE1E0000 		.4byte	0x1efe
 8037 1e83 3C       		.uleb128 0x3c
ARM GAS  /tmp/ccoI4Tqz.s 			page 142


 8038 1e84 02080000 		.4byte	.LASF257
 8039 1e88 AF100000 		.4byte	0x10af
 8040 1e8c 1F0E0000 		.4byte	.LLST94
 8041 1e90 4B       		.uleb128 0x4b
 8042 1e91 82060000 		.4byte	.LASF258
 8043 1e95 01       		.byte	0x1
 8044 1e96 F001     		.2byte	0x1f0
 8045 1e98 EC060000 		.4byte	0x6ec
 8046 1e9c 400E0000 		.4byte	.LLST95
 8047 1ea0 2C       		.uleb128 0x2c
 8048 1ea1 D8010000 		.4byte	.Ldebug_ranges0+0x1d8
 8049 1ea5 4A       		.uleb128 0x4a
 8050 1ea6 54110000 		.4byte	.LASF70
 8051 1eaa 01       		.byte	0x1
 8052 1eab F101     		.2byte	0x1f1
 8053 1ead 601C0000 		.4byte	0x1c60
 8054 1eb1 02       		.uleb128 0x2
 8055 1eb2 91       		.byte	0x91
 8056 1eb3 74       		.sleb128 -12
 8057 1eb4 31       		.uleb128 0x31
 8058 1eb5 45120000 		.4byte	0x1245
 8059 1eb9 0A000000 		.4byte	.LBB310
 8060 1ebd F0010000 		.4byte	.Ldebug_ranges0+0x1f0
 8061 1ec1 01       		.byte	0x1
 8062 1ec2 F201     		.2byte	0x1f2
 8063 1ec4 42       		.uleb128 0x42
 8064 1ec5 77120000 		.4byte	0x1277
 8065 1ec9 02       		.byte	0x2
 8066 1eca 2B       		.uleb128 0x2b
 8067 1ecb 6B120000 		.4byte	0x126b
 8068 1ecf 610E0000 		.4byte	.LLST96
 8069 1ed3 2B       		.uleb128 0x2b
 8070 1ed4 5F120000 		.4byte	0x125f
 8071 1ed8 8E0E0000 		.4byte	.LLST97
 8072 1edc 2B       		.uleb128 0x2b
 8073 1edd 56120000 		.4byte	0x1256
 8074 1ee1 BF0E0000 		.4byte	.LLST98
 8075 1ee5 2F       		.uleb128 0x2f
 8076 1ee6 22000000 		.4byte	.LVL150
 8077 1eea B6060000 		.4byte	0x6b6
 8078 1eee 30       		.uleb128 0x30
 8079 1eef 01       		.uleb128 0x1
 8080 1ef0 53       		.byte	0x53
 8081 1ef1 02       		.uleb128 0x2
 8082 1ef2 91       		.byte	0x91
 8083 1ef3 74       		.sleb128 -12
 8084 1ef4 30       		.uleb128 0x30
 8085 1ef5 02       		.uleb128 0x2
 8086 1ef6 7D       		.byte	0x7d
 8087 1ef7 00       		.sleb128 0
 8088 1ef8 01       		.uleb128 0x1
 8089 1ef9 32       		.byte	0x32
 8090 1efa 00       		.byte	0
 8091 1efb 00       		.byte	0
 8092 1efc 00       		.byte	0
 8093 1efd 00       		.byte	0
 8094 1efe 45       		.uleb128 0x45
ARM GAS  /tmp/ccoI4Tqz.s 			page 143


 8095 1eff 530A0000 		.4byte	0xa53
 8096 1f03 01       		.byte	0x1
 8097 1f04 F601     		.2byte	0x1f6
 8098 1f06 00000000 		.4byte	.LFB29
 8099 1f0a 2C000000 		.4byte	.LFE29-.LFB29
 8100 1f0e 01       		.uleb128 0x1
 8101 1f0f 9C       		.byte	0x9c
 8102 1f10 181F0000 		.4byte	0x1f18
 8103 1f14 891F0000 		.4byte	0x1f89
 8104 1f18 3C       		.uleb128 0x3c
 8105 1f19 02080000 		.4byte	.LASF257
 8106 1f1d AF100000 		.4byte	0x10af
 8107 1f21 E00E0000 		.4byte	.LLST99
 8108 1f25 48       		.uleb128 0x48
 8109 1f26 06000000 		.4byte	.LBB315
 8110 1f2a 22000000 		.4byte	.LBE315-.LBB315
 8111 1f2e 4A       		.uleb128 0x4a
 8112 1f2f 54110000 		.4byte	.LASF70
 8113 1f33 01       		.byte	0x1
 8114 1f34 F801     		.2byte	0x1f8
 8115 1f36 601C0000 		.4byte	0x1c60
 8116 1f3a 02       		.uleb128 0x2
 8117 1f3b 91       		.byte	0x91
 8118 1f3c 74       		.sleb128 -12
 8119 1f3d 49       		.uleb128 0x49
 8120 1f3e 91110000 		.4byte	0x1191
 8121 1f42 06000000 		.4byte	.LBB316
 8122 1f46 14000000 		.4byte	.LBE316-.LBB316
 8123 1f4a 01       		.byte	0x1
 8124 1f4b F901     		.2byte	0x1f9
 8125 1f4d 42       		.uleb128 0x42
 8126 1f4e C3110000 		.4byte	0x11c3
 8127 1f52 02       		.byte	0x2
 8128 1f53 2B       		.uleb128 0x2b
 8129 1f54 B7110000 		.4byte	0x11b7
 8130 1f58 FE0E0000 		.4byte	.LLST100
 8131 1f5c 42       		.uleb128 0x42
 8132 1f5d AB110000 		.4byte	0x11ab
 8133 1f61 15       		.byte	0x15
 8134 1f62 2B       		.uleb128 0x2b
 8135 1f63 A2110000 		.4byte	0x11a2
 8136 1f67 2B0F0000 		.4byte	.LLST101
 8137 1f6b 2F       		.uleb128 0x2f
 8138 1f6c 1A000000 		.4byte	.LVL156
 8139 1f70 B6060000 		.4byte	0x6b6
 8140 1f74 30       		.uleb128 0x30
 8141 1f75 01       		.uleb128 0x1
 8142 1f76 53       		.byte	0x53
 8143 1f77 02       		.uleb128 0x2
 8144 1f78 91       		.byte	0x91
 8145 1f79 74       		.sleb128 -12
 8146 1f7a 30       		.uleb128 0x30
 8147 1f7b 01       		.uleb128 0x1
 8148 1f7c 52       		.byte	0x52
 8149 1f7d 01       		.uleb128 0x1
 8150 1f7e 45       		.byte	0x45
 8151 1f7f 30       		.uleb128 0x30
ARM GAS  /tmp/ccoI4Tqz.s 			page 144


 8152 1f80 02       		.uleb128 0x2
 8153 1f81 7D       		.byte	0x7d
 8154 1f82 00       		.sleb128 0
 8155 1f83 01       		.uleb128 0x1
 8156 1f84 32       		.byte	0x32
 8157 1f85 00       		.byte	0
 8158 1f86 00       		.byte	0
 8159 1f87 00       		.byte	0
 8160 1f88 00       		.byte	0
 8161 1f89 45       		.uleb128 0x45
 8162 1f8a 9C090000 		.4byte	0x99c
 8163 1f8e 01       		.byte	0x1
 8164 1f8f FD01     		.2byte	0x1fd
 8165 1f91 00000000 		.4byte	.LFB30
 8166 1f95 66000000 		.4byte	.LFE30-.LFB30
 8167 1f99 01       		.uleb128 0x1
 8168 1f9a 9C       		.byte	0x9c
 8169 1f9b A31F0000 		.4byte	0x1fa3
 8170 1f9f 14200000 		.4byte	0x2014
 8171 1fa3 3C       		.uleb128 0x3c
 8172 1fa4 02080000 		.4byte	.LASF257
 8173 1fa8 AF100000 		.4byte	0x10af
 8174 1fac 490F0000 		.4byte	.LLST102
 8175 1fb0 48       		.uleb128 0x48
 8176 1fb1 06000000 		.4byte	.LBB318
 8177 1fb5 5C000000 		.4byte	.LBE318-.LBB318
 8178 1fb9 4A       		.uleb128 0x4a
 8179 1fba 54110000 		.4byte	.LASF70
 8180 1fbe 01       		.byte	0x1
 8181 1fbf FE01     		.2byte	0x1fe
 8182 1fc1 A01B0000 		.4byte	0x1ba0
 8183 1fc5 02       		.uleb128 0x2
 8184 1fc6 91       		.byte	0x91
 8185 1fc7 60       		.sleb128 -32
 8186 1fc8 49       		.uleb128 0x49
 8187 1fc9 91110000 		.4byte	0x1191
 8188 1fcd 06000000 		.4byte	.LBB319
 8189 1fd1 14000000 		.4byte	.LBE319-.LBB319
 8190 1fd5 01       		.byte	0x1
 8191 1fd6 FF01     		.2byte	0x1ff
 8192 1fd8 42       		.uleb128 0x42
 8193 1fd9 C3110000 		.4byte	0x11c3
 8194 1fdd 06       		.byte	0x6
 8195 1fde 2B       		.uleb128 0x2b
 8196 1fdf B7110000 		.4byte	0x11b7
 8197 1fe3 670F0000 		.4byte	.LLST103
 8198 1fe7 42       		.uleb128 0x42
 8199 1fe8 AB110000 		.4byte	0x11ab
 8200 1fec 18       		.byte	0x18
 8201 1fed 2B       		.uleb128 0x2b
 8202 1fee A2110000 		.4byte	0x11a2
 8203 1ff2 940F0000 		.4byte	.LLST104
 8204 1ff6 2F       		.uleb128 0x2f
 8205 1ff7 1A000000 		.4byte	.LVL162
 8206 1ffb B6060000 		.4byte	0x6b6
 8207 1fff 30       		.uleb128 0x30
 8208 2000 01       		.uleb128 0x1
ARM GAS  /tmp/ccoI4Tqz.s 			page 145


 8209 2001 53       		.byte	0x53
 8210 2002 02       		.uleb128 0x2
 8211 2003 91       		.byte	0x91
 8212 2004 60       		.sleb128 -32
 8213 2005 30       		.uleb128 0x30
 8214 2006 01       		.uleb128 0x1
 8215 2007 52       		.byte	0x52
 8216 2008 01       		.uleb128 0x1
 8217 2009 48       		.byte	0x48
 8218 200a 30       		.uleb128 0x30
 8219 200b 02       		.uleb128 0x2
 8220 200c 7D       		.byte	0x7d
 8221 200d 00       		.sleb128 0
 8222 200e 01       		.uleb128 0x1
 8223 200f 36       		.byte	0x36
 8224 2010 00       		.byte	0
 8225 2011 00       		.byte	0
 8226 2012 00       		.byte	0
 8227 2013 00       		.byte	0
 8228 2014 45       		.uleb128 0x45
 8229 2015 B6090000 		.4byte	0x9b6
 8230 2019 01       		.byte	0x1
 8231 201a 0A02     		.2byte	0x20a
 8232 201c 00000000 		.4byte	.LFB31
 8233 2020 46000000 		.4byte	.LFE31-.LFB31
 8234 2024 01       		.uleb128 0x1
 8235 2025 9C       		.byte	0x9c
 8236 2026 2E200000 		.4byte	0x202e
 8237 202a C4200000 		.4byte	0x20c4
 8238 202e 3C       		.uleb128 0x3c
 8239 202f 02080000 		.4byte	.LASF257
 8240 2033 AF100000 		.4byte	0x10af
 8241 2037 B20F0000 		.4byte	.LLST105
 8242 203b 4B       		.uleb128 0x4b
 8243 203c 82060000 		.4byte	.LASF258
 8244 2040 01       		.byte	0x1
 8245 2041 0A02     		.2byte	0x20a
 8246 2043 EC060000 		.4byte	0x6ec
 8247 2047 D00F0000 		.4byte	.LLST106
 8248 204b 2C       		.uleb128 0x2c
 8249 204c 08020000 		.4byte	.Ldebug_ranges0+0x208
 8250 2050 4A       		.uleb128 0x4a
 8251 2051 54110000 		.4byte	.LASF70
 8252 2055 01       		.byte	0x1
 8253 2056 0B02     		.2byte	0x20b
 8254 2058 601C0000 		.4byte	0x1c60
 8255 205c 02       		.uleb128 0x2
 8256 205d 91       		.byte	0x91
 8257 205e 6C       		.sleb128 -20
 8258 205f 46       		.uleb128 0x46
 8259 2060 36050000 		.4byte	.LASF268
 8260 2064 01       		.byte	0x1
 8261 2065 0C02     		.2byte	0x20c
 8262 2067 B8000000 		.4byte	0xb8
 8263 206b F10F0000 		.4byte	.LLST107
 8264 206f 31       		.uleb128 0x31
 8265 2070 91110000 		.4byte	0x1191
ARM GAS  /tmp/ccoI4Tqz.s 			page 146


 8266 2074 0A000000 		.4byte	.LBB322
 8267 2078 28020000 		.4byte	.Ldebug_ranges0+0x228
 8268 207c 01       		.byte	0x1
 8269 207d 0E02     		.2byte	0x20e
 8270 207f 42       		.uleb128 0x42
 8271 2080 C3110000 		.4byte	0x11c3
 8272 2084 02       		.byte	0x2
 8273 2085 2B       		.uleb128 0x2b
 8274 2086 B7110000 		.4byte	0x11b7
 8275 208a 2B100000 		.4byte	.LLST108
 8276 208e 2B       		.uleb128 0x2b
 8277 208f AB110000 		.4byte	0x11ab
 8278 2093 58100000 		.4byte	.LLST109
 8279 2097 2B       		.uleb128 0x2b
 8280 2098 A2110000 		.4byte	0x11a2
 8281 209c 81100000 		.4byte	.LLST110
 8282 20a0 2F       		.uleb128 0x2f
 8283 20a1 24000000 		.4byte	.LVL169
 8284 20a5 B6060000 		.4byte	0x6b6
 8285 20a9 30       		.uleb128 0x30
 8286 20aa 01       		.uleb128 0x1
 8287 20ab 53       		.byte	0x53
 8288 20ac 02       		.uleb128 0x2
 8289 20ad 91       		.byte	0x91
 8290 20ae 6C       		.sleb128 -20
 8291 20af 30       		.uleb128 0x30
 8292 20b0 01       		.uleb128 0x1
 8293 20b1 52       		.byte	0x52
 8294 20b2 07       		.uleb128 0x7
 8295 20b3 75       		.byte	0x75
 8296 20b4 0C       		.sleb128 12
 8297 20b5 31       		.byte	0x31
 8298 20b6 24       		.byte	0x24
 8299 20b7 08       		.byte	0x8
 8300 20b8 FE       		.byte	0xfe
 8301 20b9 1A       		.byte	0x1a
 8302 20ba 30       		.uleb128 0x30
 8303 20bb 02       		.uleb128 0x2
 8304 20bc 7D       		.byte	0x7d
 8305 20bd 00       		.sleb128 0
 8306 20be 01       		.uleb128 0x1
 8307 20bf 32       		.byte	0x32
 8308 20c0 00       		.byte	0
 8309 20c1 00       		.byte	0
 8310 20c2 00       		.byte	0
 8311 20c3 00       		.byte	0
 8312 20c4 4F       		.uleb128 0x4f
 8313 20c5 D0110000 		.4byte	0x11d0
 8314 20c9 49060000 		.4byte	.LASF168
 8315 20cd 00000000 		.4byte	.LFB32
 8316 20d1 12000000 		.4byte	.LFE32-.LFB32
 8317 20d5 01       		.uleb128 0x1
 8318 20d6 9C       		.byte	0x9c
 8319 20d7 DF200000 		.4byte	0x20df
 8320 20db F2200000 		.4byte	0x20f2
 8321 20df 2B       		.uleb128 0x2b
 8322 20e0 E1110000 		.4byte	0x11e1
ARM GAS  /tmp/ccoI4Tqz.s 			page 147


 8323 20e4 9F100000 		.4byte	.LLST111
 8324 20e8 2B       		.uleb128 0x2b
 8325 20e9 EA110000 		.4byte	0x11ea
 8326 20ed BD100000 		.4byte	.LLST112
 8327 20f1 00       		.byte	0
 8328 20f2 4F       		.uleb128 0x4f
 8329 20f3 F7110000 		.4byte	0x11f7
 8330 20f7 15040000 		.4byte	.LASF170
 8331 20fb 00000000 		.4byte	.LFB33
 8332 20ff 12000000 		.4byte	.LFE33-.LFB33
 8333 2103 01       		.uleb128 0x1
 8334 2104 9C       		.byte	0x9c
 8335 2105 0D210000 		.4byte	0x210d
 8336 2109 20210000 		.4byte	0x2120
 8337 210d 2B       		.uleb128 0x2b
 8338 210e 08120000 		.4byte	0x1208
 8339 2112 DE100000 		.4byte	.LLST113
 8340 2116 2B       		.uleb128 0x2b
 8341 2117 11120000 		.4byte	0x1211
 8342 211b FC100000 		.4byte	.LLST114
 8343 211f 00       		.byte	0
 8344 2120 4F       		.uleb128 0x4f
 8345 2121 B9120000 		.4byte	0x12b9
 8346 2125 9F090000 		.4byte	.LASF172
 8347 2129 00000000 		.4byte	.LFB34
 8348 212d 12000000 		.4byte	.LFE34-.LFB34
 8349 2131 01       		.uleb128 0x1
 8350 2132 9C       		.byte	0x9c
 8351 2133 3B210000 		.4byte	0x213b
 8352 2137 4E210000 		.4byte	0x214e
 8353 213b 2B       		.uleb128 0x2b
 8354 213c CA120000 		.4byte	0x12ca
 8355 2140 1D110000 		.4byte	.LLST115
 8356 2144 2B       		.uleb128 0x2b
 8357 2145 D3120000 		.4byte	0x12d3
 8358 2149 3B110000 		.4byte	.LLST116
 8359 214d 00       		.byte	0
 8360 214e 4C       		.uleb128 0x4c
 8361 214f D60A0000 		.4byte	0xad6
 8362 2153 01       		.byte	0x1
 8363 2154 2602     		.2byte	0x226
 8364 2156 00000000 		.4byte	.LFB35
 8365 215a 58000000 		.4byte	.LFE35-.LFB35
 8366 215e 01       		.uleb128 0x1
 8367 215f 9C       		.byte	0x9c
 8368 2160 68210000 		.4byte	0x2168
 8369 2164 2C220000 		.4byte	0x222c
 8370 2168 3C       		.uleb128 0x3c
 8371 2169 02080000 		.4byte	.LASF257
 8372 216d AF100000 		.4byte	0x10af
 8373 2171 5C110000 		.4byte	.LLST117
 8374 2175 4B       		.uleb128 0x4b
 8375 2176 E0020000 		.4byte	.LASF273
 8376 217a 01       		.byte	0x1
 8377 217b 2602     		.2byte	0x226
 8378 217d C3000000 		.4byte	0xc3
 8379 2181 7A110000 		.4byte	.LLST118
ARM GAS  /tmp/ccoI4Tqz.s 			page 148


 8380 2185 48       		.uleb128 0x48
 8381 2186 06000000 		.4byte	.LBB330
 8382 218a 52000000 		.4byte	.LBE330-.LBB330
 8383 218e 46       		.uleb128 0x46
 8384 218f E40C0000 		.4byte	.LASF274
 8385 2193 01       		.byte	0x1
 8386 2194 2802     		.2byte	0x228
 8387 2196 AD000000 		.4byte	0xad
 8388 219a 9B110000 		.4byte	.LLST119
 8389 219e 2E       		.uleb128 0x2e
 8390 219f 34110000 		.4byte	0x1134
 8391 21a3 06000000 		.4byte	.LBB331
 8392 21a7 0E000000 		.4byte	.LBE331-.LBB331
 8393 21ab 01       		.byte	0x1
 8394 21ac 2802     		.2byte	0x228
 8395 21ae D1210000 		.4byte	0x21d1
 8396 21b2 42       		.uleb128 0x42
 8397 21b3 4E110000 		.4byte	0x114e
 8398 21b7 10       		.byte	0x10
 8399 21b8 2B       		.uleb128 0x2b
 8400 21b9 45110000 		.4byte	0x1145
 8401 21bd C4110000 		.4byte	.LLST120
 8402 21c1 2F       		.uleb128 0x2f
 8403 21c2 14000000 		.4byte	.LVL189
 8404 21c6 6B060000 		.4byte	0x66b
 8405 21ca 30       		.uleb128 0x30
 8406 21cb 01       		.uleb128 0x1
 8407 21cc 52       		.byte	0x52
 8408 21cd 01       		.uleb128 0x1
 8409 21ce 40       		.byte	0x40
 8410 21cf 00       		.byte	0
 8411 21d0 00       		.byte	0
 8412 21d1 2E       		.uleb128 0x2e
 8413 21d2 7C100000 		.4byte	0x107c
 8414 21d6 28000000 		.4byte	.LBB333
 8415 21da 0E000000 		.4byte	.LBE333-.LBB333
 8416 21de 01       		.byte	0x1
 8417 21df 3802     		.2byte	0x238
 8418 21e1 10220000 		.4byte	0x2210
 8419 21e5 2B       		.uleb128 0x2b
 8420 21e6 A2100000 		.4byte	0x10a2
 8421 21ea E2110000 		.4byte	.LLST121
 8422 21ee 2B       		.uleb128 0x2b
 8423 21ef 96100000 		.4byte	0x1096
 8424 21f3 F5110000 		.4byte	.LLST122
 8425 21f7 2B       		.uleb128 0x2b
 8426 21f8 8D100000 		.4byte	0x108d
 8427 21fc 09120000 		.4byte	.LLST123
 8428 2200 2F       		.uleb128 0x2f
 8429 2201 36000000 		.4byte	.LVL192
 8430 2205 1E060000 		.4byte	0x61e
 8431 2209 30       		.uleb128 0x30
 8432 220a 01       		.uleb128 0x1
 8433 220b 52       		.byte	0x52
 8434 220c 01       		.uleb128 0x1
 8435 220d 40       		.byte	0x40
 8436 220e 00       		.byte	0
ARM GAS  /tmp/ccoI4Tqz.s 			page 149


 8437 220f 00       		.byte	0
 8438 2210 49       		.uleb128 0x49
 8439 2211 5B110000 		.4byte	0x115b
 8440 2215 36000000 		.4byte	.LBB335
 8441 2219 12000000 		.4byte	.LBE335-.LBB335
 8442 221d 01       		.byte	0x1
 8443 221e 3A02     		.2byte	0x23a
 8444 2220 2B       		.uleb128 0x2b
 8445 2221 6C110000 		.4byte	0x116c
 8446 2225 1C120000 		.4byte	.LLST124
 8447 2229 00       		.byte	0
 8448 222a 00       		.byte	0
 8449 222b 00       		.byte	0
 8450 222c 4C       		.uleb128 0x4c
 8451 222d F50A0000 		.4byte	0xaf5
 8452 2231 01       		.byte	0x1
 8453 2232 3D02     		.2byte	0x23d
 8454 2234 00000000 		.4byte	.LFB36
 8455 2238 60000000 		.4byte	.LFE36-.LFB36
 8456 223c 01       		.uleb128 0x1
 8457 223d 9C       		.byte	0x9c
 8458 223e 46220000 		.4byte	0x2246
 8459 2242 0C230000 		.4byte	0x230c
 8460 2246 3C       		.uleb128 0x3c
 8461 2247 02080000 		.4byte	.LASF257
 8462 224b AF100000 		.4byte	0x10af
 8463 224f 2F120000 		.4byte	.LLST125
 8464 2253 4B       		.uleb128 0x4b
 8465 2254 3F020000 		.4byte	.LASF275
 8466 2258 01       		.byte	0x1
 8467 2259 3D02     		.2byte	0x23d
 8468 225b AD000000 		.4byte	0xad
 8469 225f 4D120000 		.4byte	.LLST126
 8470 2263 48       		.uleb128 0x48
 8471 2264 06000000 		.4byte	.LBB337
 8472 2268 5A000000 		.4byte	.LBE337-.LBB337
 8473 226c 46       		.uleb128 0x46
 8474 226d 39100000 		.4byte	.LASF267
 8475 2271 01       		.byte	0x1
 8476 2272 3F02     		.2byte	0x23f
 8477 2274 AD000000 		.4byte	0xad
 8478 2278 6E120000 		.4byte	.LLST127
 8479 227c 2E       		.uleb128 0x2e
 8480 227d 34110000 		.4byte	0x1134
 8481 2281 06000000 		.4byte	.LBB338
 8482 2285 0E000000 		.4byte	.LBE338-.LBB338
 8483 2289 01       		.byte	0x1
 8484 228a 3F02     		.2byte	0x23f
 8485 228c B0220000 		.4byte	0x22b0
 8486 2290 42       		.uleb128 0x42
 8487 2291 4E110000 		.4byte	0x114e
 8488 2295 20       		.byte	0x20
 8489 2296 2B       		.uleb128 0x2b
 8490 2297 45110000 		.4byte	0x1145
 8491 229b 97120000 		.4byte	.LLST128
 8492 229f 2F       		.uleb128 0x2f
 8493 22a0 14000000 		.4byte	.LVL202
ARM GAS  /tmp/ccoI4Tqz.s 			page 150


 8494 22a4 6B060000 		.4byte	0x66b
 8495 22a8 30       		.uleb128 0x30
 8496 22a9 01       		.uleb128 0x1
 8497 22aa 52       		.byte	0x52
 8498 22ab 02       		.uleb128 0x2
 8499 22ac 08       		.byte	0x8
 8500 22ad 20       		.byte	0x20
 8501 22ae 00       		.byte	0
 8502 22af 00       		.byte	0
 8503 22b0 2E       		.uleb128 0x2e
 8504 22b1 7C100000 		.4byte	0x107c
 8505 22b5 28000000 		.4byte	.LBB340
 8506 22b9 0E000000 		.4byte	.LBE340-.LBB340
 8507 22bd 01       		.byte	0x1
 8508 22be 5402     		.2byte	0x254
 8509 22c0 F0220000 		.4byte	0x22f0
 8510 22c4 2B       		.uleb128 0x2b
 8511 22c5 A2100000 		.4byte	0x10a2
 8512 22c9 B5120000 		.4byte	.LLST129
 8513 22cd 2B       		.uleb128 0x2b
 8514 22ce 96100000 		.4byte	0x1096
 8515 22d2 C8120000 		.4byte	.LLST130
 8516 22d6 2B       		.uleb128 0x2b
 8517 22d7 8D100000 		.4byte	0x108d
 8518 22db DD120000 		.4byte	.LLST131
 8519 22df 2F       		.uleb128 0x2f
 8520 22e0 36000000 		.4byte	.LVL205
 8521 22e4 1E060000 		.4byte	0x61e
 8522 22e8 30       		.uleb128 0x30
 8523 22e9 01       		.uleb128 0x1
 8524 22ea 52       		.byte	0x52
 8525 22eb 02       		.uleb128 0x2
 8526 22ec 08       		.byte	0x8
 8527 22ed 20       		.byte	0x20
 8528 22ee 00       		.byte	0
 8529 22ef 00       		.byte	0
 8530 22f0 49       		.uleb128 0x49
 8531 22f1 76110000 		.4byte	0x1176
 8532 22f5 36000000 		.4byte	.LBB342
 8533 22f9 12000000 		.4byte	.LBE342-.LBB342
 8534 22fd 01       		.byte	0x1
 8535 22fe 5702     		.2byte	0x257
 8536 2300 2B       		.uleb128 0x2b
 8537 2301 87110000 		.4byte	0x1187
 8538 2305 F0120000 		.4byte	.LLST132
 8539 2309 00       		.byte	0
 8540 230a 00       		.byte	0
 8541 230b 00       		.byte	0
 8542 230c 45       		.uleb128 0x45
 8543 230d 330B0000 		.4byte	0xb33
 8544 2311 01       		.byte	0x1
 8545 2312 7C02     		.2byte	0x27c
 8546 2314 00000000 		.4byte	.LFB38
 8547 2318 3A000000 		.4byte	.LFE38-.LFB38
 8548 231c 01       		.uleb128 0x1
 8549 231d 9C       		.byte	0x9c
 8550 231e 26230000 		.4byte	0x2326
ARM GAS  /tmp/ccoI4Tqz.s 			page 151


 8551 2322 C5230000 		.4byte	0x23c5
 8552 2326 3C       		.uleb128 0x3c
 8553 2327 02080000 		.4byte	.LASF257
 8554 232b AF100000 		.4byte	0x10af
 8555 232f 03130000 		.4byte	.LLST133
 8556 2333 4B       		.uleb128 0x4b
 8557 2334 C2070000 		.4byte	.LASF276
 8558 2338 01       		.byte	0x1
 8559 2339 7C02     		.2byte	0x27c
 8560 233b AD000000 		.4byte	0xad
 8561 233f 2F130000 		.4byte	.LLST134
 8562 2343 2C       		.uleb128 0x2c
 8563 2344 48020000 		.4byte	.Ldebug_ranges0+0x248
 8564 2348 46       		.uleb128 0x46
 8565 2349 54110000 		.4byte	.LASF70
 8566 234d 01       		.byte	0x1
 8567 234e 8002     		.2byte	0x280
 8568 2350 AD000000 		.4byte	0xad
 8569 2354 50130000 		.4byte	.LLST135
 8570 2358 2E       		.uleb128 0x2e
 8571 2359 34110000 		.4byte	0x1134
 8572 235d 0E000000 		.4byte	.LBB346
 8573 2361 0E000000 		.4byte	.LBE346-.LBB346
 8574 2365 01       		.byte	0x1
 8575 2366 8002     		.2byte	0x280
 8576 2368 8B230000 		.4byte	0x238b
 8577 236c 42       		.uleb128 0x42
 8578 236d 4E110000 		.4byte	0x114e
 8579 2371 10       		.byte	0x10
 8580 2372 2B       		.uleb128 0x2b
 8581 2373 45110000 		.4byte	0x1145
 8582 2377 72130000 		.4byte	.LLST136
 8583 237b 2F       		.uleb128 0x2f
 8584 237c 1C000000 		.4byte	.LVL216
 8585 2380 6B060000 		.4byte	0x66b
 8586 2384 30       		.uleb128 0x30
 8587 2385 01       		.uleb128 0x1
 8588 2386 52       		.byte	0x52
 8589 2387 01       		.uleb128 0x1
 8590 2388 40       		.byte	0x40
 8591 2389 00       		.byte	0
 8592 238a 00       		.byte	0
 8593 238b 31       		.uleb128 0x31
 8594 238c 7C100000 		.4byte	0x107c
 8595 2390 26000000 		.4byte	.LBB348
 8596 2394 60020000 		.4byte	.Ldebug_ranges0+0x260
 8597 2398 01       		.byte	0x1
 8598 2399 8702     		.2byte	0x287
 8599 239b 2B       		.uleb128 0x2b
 8600 239c A2100000 		.4byte	0x10a2
 8601 23a0 9E130000 		.4byte	.LLST137
 8602 23a4 42       		.uleb128 0x42
 8603 23a5 96100000 		.4byte	0x1096
 8604 23a9 10       		.byte	0x10
 8605 23aa 2B       		.uleb128 0x2b
 8606 23ab 8D100000 		.4byte	0x108d
 8607 23af B1130000 		.4byte	.LLST138
ARM GAS  /tmp/ccoI4Tqz.s 			page 152


 8608 23b3 41       		.uleb128 0x41
 8609 23b4 3A000000 		.4byte	.LVL222
 8610 23b8 1E060000 		.4byte	0x61e
 8611 23bc 30       		.uleb128 0x30
 8612 23bd 01       		.uleb128 0x1
 8613 23be 52       		.byte	0x52
 8614 23bf 01       		.uleb128 0x1
 8615 23c0 40       		.byte	0x40
 8616 23c1 00       		.byte	0
 8617 23c2 00       		.byte	0
 8618 23c3 00       		.byte	0
 8619 23c4 00       		.byte	0
 8620 23c5 45       		.uleb128 0x45
 8621 23c6 520B0000 		.4byte	0xb52
 8622 23ca 01       		.byte	0x1
 8623 23cb 8B02     		.2byte	0x28b
 8624 23cd 00000000 		.4byte	.LFB39
 8625 23d1 3A000000 		.4byte	.LFE39-.LFB39
 8626 23d5 01       		.uleb128 0x1
 8627 23d6 9C       		.byte	0x9c
 8628 23d7 DF230000 		.4byte	0x23df
 8629 23db 80240000 		.4byte	0x2480
 8630 23df 3C       		.uleb128 0x3c
 8631 23e0 02080000 		.4byte	.LASF257
 8632 23e4 AF100000 		.4byte	0x10af
 8633 23e8 D2130000 		.4byte	.LLST139
 8634 23ec 4B       		.uleb128 0x4b
 8635 23ed D4060000 		.4byte	.LASF277
 8636 23f1 01       		.byte	0x1
 8637 23f2 8B02     		.2byte	0x28b
 8638 23f4 AD000000 		.4byte	0xad
 8639 23f8 FE130000 		.4byte	.LLST140
 8640 23fc 2C       		.uleb128 0x2c
 8641 23fd 78020000 		.4byte	.Ldebug_ranges0+0x278
 8642 2401 46       		.uleb128 0x46
 8643 2402 54110000 		.4byte	.LASF70
 8644 2406 01       		.byte	0x1
 8645 2407 8F02     		.2byte	0x28f
 8646 2409 AD000000 		.4byte	0xad
 8647 240d 1F140000 		.4byte	.LLST141
 8648 2411 2E       		.uleb128 0x2e
 8649 2412 34110000 		.4byte	0x1134
 8650 2416 0E000000 		.4byte	.LBB356
 8651 241a 0E000000 		.4byte	.LBE356-.LBB356
 8652 241e 01       		.byte	0x1
 8653 241f 8F02     		.2byte	0x28f
 8654 2421 45240000 		.4byte	0x2445
 8655 2425 42       		.uleb128 0x42
 8656 2426 4E110000 		.4byte	0x114e
 8657 242a 20       		.byte	0x20
 8658 242b 2B       		.uleb128 0x2b
 8659 242c 45110000 		.4byte	0x1145
 8660 2430 41140000 		.4byte	.LLST142
 8661 2434 2F       		.uleb128 0x2f
 8662 2435 1C000000 		.4byte	.LVL227
 8663 2439 6B060000 		.4byte	0x66b
 8664 243d 30       		.uleb128 0x30
ARM GAS  /tmp/ccoI4Tqz.s 			page 153


 8665 243e 01       		.uleb128 0x1
 8666 243f 52       		.byte	0x52
 8667 2440 02       		.uleb128 0x2
 8668 2441 08       		.byte	0x8
 8669 2442 20       		.byte	0x20
 8670 2443 00       		.byte	0
 8671 2444 00       		.byte	0
 8672 2445 31       		.uleb128 0x31
 8673 2446 7C100000 		.4byte	0x107c
 8674 244a 26000000 		.4byte	.LBB358
 8675 244e 90020000 		.4byte	.Ldebug_ranges0+0x290
 8676 2452 01       		.byte	0x1
 8677 2453 9602     		.2byte	0x296
 8678 2455 2B       		.uleb128 0x2b
 8679 2456 A2100000 		.4byte	0x10a2
 8680 245a 6D140000 		.4byte	.LLST143
 8681 245e 42       		.uleb128 0x42
 8682 245f 96100000 		.4byte	0x1096
 8683 2463 20       		.byte	0x20
 8684 2464 2B       		.uleb128 0x2b
 8685 2465 8D100000 		.4byte	0x108d
 8686 2469 80140000 		.4byte	.LLST144
 8687 246d 41       		.uleb128 0x41
 8688 246e 3A000000 		.4byte	.LVL233
 8689 2472 1E060000 		.4byte	0x61e
 8690 2476 30       		.uleb128 0x30
 8691 2477 01       		.uleb128 0x1
 8692 2478 52       		.byte	0x52
 8693 2479 02       		.uleb128 0x2
 8694 247a 08       		.byte	0x8
 8695 247b 20       		.byte	0x20
 8696 247c 00       		.byte	0
 8697 247d 00       		.byte	0
 8698 247e 00       		.byte	0
 8699 247f 00       		.byte	0
 8700 2480 45       		.uleb128 0x45
 8701 2481 710B0000 		.4byte	0xb71
 8702 2485 01       		.byte	0x1
 8703 2486 9A02     		.2byte	0x29a
 8704 2488 00000000 		.4byte	.LFB40
 8705 248c 38000000 		.4byte	.LFE40-.LFB40
 8706 2490 01       		.uleb128 0x1
 8707 2491 9C       		.byte	0x9c
 8708 2492 9A240000 		.4byte	0x249a
 8709 2496 3B250000 		.4byte	0x253b
 8710 249a 3C       		.uleb128 0x3c
 8711 249b 02080000 		.4byte	.LASF257
 8712 249f AF100000 		.4byte	0x10af
 8713 24a3 A1140000 		.4byte	.LLST145
 8714 24a7 4B       		.uleb128 0x4b
 8715 24a8 6F090000 		.4byte	.LASF278
 8716 24ac 01       		.byte	0x1
 8717 24ad 9A02     		.2byte	0x29a
 8718 24af AD000000 		.4byte	0xad
 8719 24b3 CD140000 		.4byte	.LLST146
 8720 24b7 2C       		.uleb128 0x2c
 8721 24b8 A8020000 		.4byte	.Ldebug_ranges0+0x2a8
ARM GAS  /tmp/ccoI4Tqz.s 			page 154


 8722 24bc 46       		.uleb128 0x46
 8723 24bd 54110000 		.4byte	.LASF70
 8724 24c1 01       		.byte	0x1
 8725 24c2 9C02     		.2byte	0x29c
 8726 24c4 AD000000 		.4byte	0xad
 8727 24c8 EE140000 		.4byte	.LLST147
 8728 24cc 2E       		.uleb128 0x2e
 8729 24cd 1E120000 		.4byte	0x121e
 8730 24d1 06000000 		.4byte	.LBB365
 8731 24d5 0E000000 		.4byte	.LBE365-.LBB365
 8732 24d9 01       		.byte	0x1
 8733 24da 9C02     		.2byte	0x29c
 8734 24dc 00250000 		.4byte	0x2500
 8735 24e0 42       		.uleb128 0x42
 8736 24e1 38120000 		.4byte	0x1238
 8737 24e5 20       		.byte	0x20
 8738 24e6 2B       		.uleb128 0x2b
 8739 24e7 2F120000 		.4byte	0x122f
 8740 24eb 11150000 		.4byte	.LLST148
 8741 24ef 2F       		.uleb128 0x2f
 8742 24f0 14000000 		.4byte	.LVL238
 8743 24f4 6B060000 		.4byte	0x66b
 8744 24f8 30       		.uleb128 0x30
 8745 24f9 01       		.uleb128 0x1
 8746 24fa 52       		.byte	0x52
 8747 24fb 02       		.uleb128 0x2
 8748 24fc 08       		.byte	0x8
 8749 24fd 20       		.byte	0x20
 8750 24fe 00       		.byte	0
 8751 24ff 00       		.byte	0
 8752 2500 31       		.uleb128 0x31
 8753 2501 B4100000 		.4byte	0x10b4
 8754 2505 24000000 		.4byte	.LBB367
 8755 2509 C0020000 		.4byte	.Ldebug_ranges0+0x2c0
 8756 250d 01       		.byte	0x1
 8757 250e A302     		.2byte	0x2a3
 8758 2510 2B       		.uleb128 0x2b
 8759 2511 DA100000 		.4byte	0x10da
 8760 2515 3D150000 		.4byte	.LLST149
 8761 2519 42       		.uleb128 0x42
 8762 251a CE100000 		.4byte	0x10ce
 8763 251e 20       		.byte	0x20
 8764 251f 2B       		.uleb128 0x2b
 8765 2520 C5100000 		.4byte	0x10c5
 8766 2524 50150000 		.4byte	.LLST150
 8767 2528 41       		.uleb128 0x41
 8768 2529 38000000 		.4byte	.LVL244
 8769 252d 1E060000 		.4byte	0x61e
 8770 2531 30       		.uleb128 0x30
 8771 2532 01       		.uleb128 0x1
 8772 2533 52       		.byte	0x52
 8773 2534 02       		.uleb128 0x2
 8774 2535 08       		.byte	0x8
 8775 2536 20       		.byte	0x20
 8776 2537 00       		.byte	0
 8777 2538 00       		.byte	0
 8778 2539 00       		.byte	0
ARM GAS  /tmp/ccoI4Tqz.s 			page 155


 8779 253a 00       		.byte	0
 8780 253b 4F       		.uleb128 0x4f
 8781 253c 5B110000 		.4byte	0x115b
 8782 2540 85070000 		.4byte	.LASF238
 8783 2544 00000000 		.4byte	.LFB41
 8784 2548 16000000 		.4byte	.LFE41-.LFB41
 8785 254c 01       		.uleb128 0x1
 8786 254d 9C       		.byte	0x9c
 8787 254e 56250000 		.4byte	0x2556
 8788 2552 60250000 		.4byte	0x2560
 8789 2556 2B       		.uleb128 0x2b
 8790 2557 6C110000 		.4byte	0x116c
 8791 255b 71150000 		.4byte	.LLST151
 8792 255f 00       		.byte	0
 8793 2560 4F       		.uleb128 0x4f
 8794 2561 76110000 		.4byte	0x1176
 8795 2565 F0010000 		.4byte	.LASF242
 8796 2569 00000000 		.4byte	.LFB42
 8797 256d 16000000 		.4byte	.LFE42-.LFB42
 8798 2571 01       		.uleb128 0x1
 8799 2572 9C       		.byte	0x9c
 8800 2573 7B250000 		.4byte	0x257b
 8801 2577 85250000 		.4byte	0x2585
 8802 257b 2B       		.uleb128 0x2b
 8803 257c 87110000 		.4byte	0x1187
 8804 2580 8F150000 		.4byte	.LLST152
 8805 2584 00       		.byte	0
 8806 2585 45       		.uleb128 0x45
 8807 2586 590F0000 		.4byte	0xf59
 8808 258a 01       		.byte	0x1
 8809 258b AA02     		.2byte	0x2aa
 8810 258d 00000000 		.4byte	.LFB43
 8811 2591 40000000 		.4byte	.LFE43-.LFB43
 8812 2595 01       		.uleb128 0x1
 8813 2596 9C       		.byte	0x9c
 8814 2597 9F250000 		.4byte	0x259f
 8815 259b AB250000 		.4byte	0x25ab
 8816 259f 34       		.uleb128 0x34
 8817 25a0 02080000 		.4byte	.LASF257
 8818 25a4 AF100000 		.4byte	0x10af
 8819 25a8 01       		.uleb128 0x1
 8820 25a9 50       		.byte	0x50
 8821 25aa 00       		.byte	0
 8822 25ab 45       		.uleb128 0x45
 8823 25ac 140B0000 		.4byte	0xb14
 8824 25b0 01       		.byte	0x1
 8825 25b1 5A02     		.2byte	0x25a
 8826 25b3 00000000 		.4byte	.LFB37
 8827 25b7 60000000 		.4byte	.LFE37-.LFB37
 8828 25bb 01       		.uleb128 0x1
 8829 25bc 9C       		.byte	0x9c
 8830 25bd C5250000 		.4byte	0x25c5
 8831 25c1 7E260000 		.4byte	0x267e
 8832 25c5 3C       		.uleb128 0x3c
 8833 25c6 02080000 		.4byte	.LASF257
 8834 25ca AF100000 		.4byte	0x10af
 8835 25ce AD150000 		.4byte	.LLST153
ARM GAS  /tmp/ccoI4Tqz.s 			page 156


 8836 25d2 4B       		.uleb128 0x4b
 8837 25d3 130F0000 		.4byte	.LASF279
 8838 25d7 01       		.byte	0x1
 8839 25d8 5A02     		.2byte	0x25a
 8840 25da AD000000 		.4byte	0xad
 8841 25de EF150000 		.4byte	.LLST154
 8842 25e2 2C       		.uleb128 0x2c
 8843 25e3 D8020000 		.4byte	.Ldebug_ranges0+0x2d8
 8844 25e7 46       		.uleb128 0x46
 8845 25e8 54110000 		.4byte	.LASF70
 8846 25ec 01       		.byte	0x1
 8847 25ed 5C02     		.2byte	0x25c
 8848 25ef AD000000 		.4byte	0xad
 8849 25f3 10160000 		.4byte	.LLST155
 8850 25f7 2E       		.uleb128 0x2e
 8851 25f8 1E120000 		.4byte	0x121e
 8852 25fc 06000000 		.4byte	.LBB373
 8853 2600 0E000000 		.4byte	.LBE373-.LBB373
 8854 2604 01       		.byte	0x1
 8855 2605 5C02     		.2byte	0x25c
 8856 2607 2B260000 		.4byte	0x262b
 8857 260b 42       		.uleb128 0x42
 8858 260c 38120000 		.4byte	0x1238
 8859 2610 21       		.byte	0x21
 8860 2611 2B       		.uleb128 0x2b
 8861 2612 2F120000 		.4byte	0x122f
 8862 2616 39160000 		.4byte	.LLST156
 8863 261a 2F       		.uleb128 0x2f
 8864 261b 14000000 		.4byte	.LVL258
 8865 261f 6B060000 		.4byte	0x66b
 8866 2623 30       		.uleb128 0x30
 8867 2624 01       		.uleb128 0x1
 8868 2625 52       		.byte	0x52
 8869 2626 02       		.uleb128 0x2
 8870 2627 08       		.byte	0x8
 8871 2628 21       		.byte	0x21
 8872 2629 00       		.byte	0
 8873 262a 00       		.byte	0
 8874 262b 2E       		.uleb128 0x2e
 8875 262c B4100000 		.4byte	0x10b4
 8876 2630 2A000000 		.4byte	.LBB375
 8877 2634 0E000000 		.4byte	.LBE375-.LBB375
 8878 2638 01       		.byte	0x1
 8879 2639 7302     		.2byte	0x273
 8880 263b 6B260000 		.4byte	0x266b
 8881 263f 2B       		.uleb128 0x2b
 8882 2640 DA100000 		.4byte	0x10da
 8883 2644 7B160000 		.4byte	.LLST157
 8884 2648 2B       		.uleb128 0x2b
 8885 2649 CE100000 		.4byte	0x10ce
 8886 264d 8E160000 		.4byte	.LLST158
 8887 2651 2B       		.uleb128 0x2b
 8888 2652 C5100000 		.4byte	0x10c5
 8889 2656 A3160000 		.4byte	.LLST159
 8890 265a 2F       		.uleb128 0x2f
 8891 265b 38000000 		.4byte	.LVL261
 8892 265f 1E060000 		.4byte	0x61e
ARM GAS  /tmp/ccoI4Tqz.s 			page 157


 8893 2663 30       		.uleb128 0x30
 8894 2664 01       		.uleb128 0x1
 8895 2665 52       		.byte	0x52
 8896 2666 02       		.uleb128 0x2
 8897 2667 08       		.byte	0x8
 8898 2668 21       		.byte	0x21
 8899 2669 00       		.byte	0
 8900 266a 00       		.byte	0
 8901 266b 41       		.uleb128 0x41
 8902 266c 42000000 		.4byte	.LVL263
 8903 2670 85250000 		.4byte	0x2585
 8904 2674 30       		.uleb128 0x30
 8905 2675 01       		.uleb128 0x1
 8906 2676 50       		.byte	0x50
 8907 2677 03       		.uleb128 0x3
 8908 2678 F3       		.byte	0xf3
 8909 2679 01       		.uleb128 0x1
 8910 267a 50       		.byte	0x50
 8911 267b 00       		.byte	0
 8912 267c 00       		.byte	0
 8913 267d 00       		.byte	0
 8914 267e 45       		.uleb128 0x45
 8915 267f 640C0000 		.4byte	0xc64
 8916 2683 01       		.byte	0x1
 8917 2684 BC02     		.2byte	0x2bc
 8918 2686 00000000 		.4byte	.LFB44
 8919 268a 58000000 		.4byte	.LFE44-.LFB44
 8920 268e 01       		.uleb128 0x1
 8921 268f 9C       		.byte	0x9c
 8922 2690 98260000 		.4byte	0x2698
 8923 2694 A5270000 		.4byte	0x27a5
 8924 2698 3C       		.uleb128 0x3c
 8925 2699 02080000 		.4byte	.LASF257
 8926 269d AF100000 		.4byte	0x10af
 8927 26a1 CF160000 		.4byte	.LLST160
 8928 26a5 4B       		.uleb128 0x4b
 8929 26a6 74100000 		.4byte	.LASF280
 8930 26aa 01       		.byte	0x1
 8931 26ab BC02     		.2byte	0x2bc
 8932 26ad F2000000 		.4byte	0xf2
 8933 26b1 06170000 		.4byte	.LLST161
 8934 26b5 4B       		.uleb128 0x4b
 8935 26b6 79110000 		.4byte	.LASF281
 8936 26ba 01       		.byte	0x1
 8937 26bb BC02     		.2byte	0x2bc
 8938 26bd AD000000 		.4byte	0xad
 8939 26c1 27170000 		.4byte	.LLST162
 8940 26c5 4B       		.uleb128 0x4b
 8941 26c6 EF020000 		.4byte	.LASF282
 8942 26ca 01       		.byte	0x1
 8943 26cb BD02     		.2byte	0x2bd
 8944 26cd 0B010000 		.4byte	0x10b
 8945 26d1 48170000 		.4byte	.LLST163
 8946 26d5 4B       		.uleb128 0x4b
 8947 26d6 82030000 		.4byte	.LASF283
 8948 26da 01       		.byte	0x1
 8949 26db BD02     		.2byte	0x2bd
ARM GAS  /tmp/ccoI4Tqz.s 			page 158


 8950 26dd 24010000 		.4byte	0x124
 8951 26e1 69170000 		.4byte	.LLST164
 8952 26e5 2C       		.uleb128 0x2c
 8953 26e6 F0020000 		.4byte	.Ldebug_ranges0+0x2f0
 8954 26ea 46       		.uleb128 0x46
 8955 26eb 54110000 		.4byte	.LASF70
 8956 26ef 01       		.byte	0x1
 8957 26f0 C502     		.2byte	0x2c5
 8958 26f2 AD000000 		.4byte	0xad
 8959 26f6 95170000 		.4byte	.LLST165
 8960 26fa 47       		.uleb128 0x47
 8961 26fb 7C100000 		.4byte	0x107c
 8962 26ff 08000000 		.4byte	.LBB379
 8963 2703 10030000 		.4byte	.Ldebug_ranges0+0x310
 8964 2707 01       		.byte	0x1
 8965 2708 C202     		.2byte	0x2c2
 8966 270a 33270000 		.4byte	0x2733
 8967 270e 2B       		.uleb128 0x2b
 8968 270f A2100000 		.4byte	0x10a2
 8969 2713 C9170000 		.4byte	.LLST166
 8970 2717 2B       		.uleb128 0x2b
 8971 2718 96100000 		.4byte	0x1096
 8972 271c DC170000 		.4byte	.LLST167
 8973 2720 2B       		.uleb128 0x2b
 8974 2721 8D100000 		.4byte	0x108d
 8975 2725 FD170000 		.4byte	.LLST168
 8976 2729 50       		.uleb128 0x50
 8977 272a 1C000000 		.4byte	.LVL274
 8978 272e 1E060000 		.4byte	0x61e
 8979 2732 00       		.byte	0
 8980 2733 2E       		.uleb128 0x2e
 8981 2734 34110000 		.4byte	0x1134
 8982 2738 1C000000 		.4byte	.LBB383
 8983 273c 0E000000 		.4byte	.LBE383-.LBB383
 8984 2740 01       		.byte	0x1
 8985 2741 C602     		.2byte	0x2c6
 8986 2743 67270000 		.4byte	0x2767
 8987 2747 42       		.uleb128 0x42
 8988 2748 4E110000 		.4byte	0x114e
 8989 274c 22       		.byte	0x22
 8990 274d 2B       		.uleb128 0x2b
 8991 274e 45110000 		.4byte	0x1145
 8992 2752 34180000 		.4byte	.LLST169
 8993 2756 2F       		.uleb128 0x2f
 8994 2757 2A000000 		.4byte	.LVL275
 8995 275b 6B060000 		.4byte	0x66b
 8996 275f 30       		.uleb128 0x30
 8997 2760 01       		.uleb128 0x1
 8998 2761 52       		.byte	0x52
 8999 2762 02       		.uleb128 0x2
 9000 2763 08       		.byte	0x8
 9001 2764 22       		.byte	0x22
 9002 2765 00       		.byte	0
 9003 2766 00       		.byte	0
 9004 2767 31       		.uleb128 0x31
 9005 2768 7C100000 		.4byte	0x107c
 9006 276c 38000000 		.4byte	.LBB385
ARM GAS  /tmp/ccoI4Tqz.s 			page 159


 9007 2770 28030000 		.4byte	.Ldebug_ranges0+0x328
 9008 2774 01       		.byte	0x1
 9009 2775 D202     		.2byte	0x2d2
 9010 2777 2B       		.uleb128 0x2b
 9011 2778 A2100000 		.4byte	0x10a2
 9012 277c 60180000 		.4byte	.LLST170
 9013 2780 2B       		.uleb128 0x2b
 9014 2781 96100000 		.4byte	0x1096
 9015 2785 73180000 		.4byte	.LLST171
 9016 2789 2B       		.uleb128 0x2b
 9017 278a 8D100000 		.4byte	0x108d
 9018 278e 88180000 		.4byte	.LLST172
 9019 2792 41       		.uleb128 0x41
 9020 2793 4A000000 		.4byte	.LVL279
 9021 2797 1E060000 		.4byte	0x61e
 9022 279b 30       		.uleb128 0x30
 9023 279c 01       		.uleb128 0x1
 9024 279d 52       		.byte	0x52
 9025 279e 02       		.uleb128 0x2
 9026 279f 08       		.byte	0x8
 9027 27a0 22       		.byte	0x22
 9028 27a1 00       		.byte	0
 9029 27a2 00       		.byte	0
 9030 27a3 00       		.byte	0
 9031 27a4 00       		.byte	0
 9032 27a5 45       		.uleb128 0x45
 9033 27a6 900B0000 		.4byte	0xb90
 9034 27aa 01       		.byte	0x1
 9035 27ab D502     		.2byte	0x2d5
 9036 27ad 00000000 		.4byte	.LFB45
 9037 27b1 34000000 		.4byte	.LFE45-.LFB45
 9038 27b5 01       		.uleb128 0x1
 9039 27b6 9C       		.byte	0x9c
 9040 27b7 BF270000 		.4byte	0x27bf
 9041 27bb 87280000 		.4byte	0x2887
 9042 27bf 3C       		.uleb128 0x3c
 9043 27c0 02080000 		.4byte	.LASF257
 9044 27c4 AF100000 		.4byte	0x10af
 9045 27c8 A9180000 		.4byte	.LLST173
 9046 27cc 4B       		.uleb128 0x4b
 9047 27cd 77040000 		.4byte	.LASF284
 9048 27d1 01       		.byte	0x1
 9049 27d2 D502     		.2byte	0x2d5
 9050 27d4 AD000000 		.4byte	0xad
 9051 27d8 D5180000 		.4byte	.LLST174
 9052 27dc 4B       		.uleb128 0x4b
 9053 27dd 620A0000 		.4byte	.LASF285
 9054 27e1 01       		.byte	0x1
 9055 27e2 D502     		.2byte	0x2d5
 9056 27e4 AD000000 		.4byte	0xad
 9057 27e8 F6180000 		.4byte	.LLST175
 9058 27ec 4B       		.uleb128 0x4b
 9059 27ed DF0F0000 		.4byte	.LASF286
 9060 27f1 01       		.byte	0x1
 9061 27f2 D602     		.2byte	0x2d6
 9062 27f4 6F100000 		.4byte	0x106f
 9063 27f8 17190000 		.4byte	.LLST176
ARM GAS  /tmp/ccoI4Tqz.s 			page 160


 9064 27fc 2C       		.uleb128 0x2c
 9065 27fd 40030000 		.4byte	.Ldebug_ranges0+0x340
 9066 2801 46       		.uleb128 0x46
 9067 2802 54110000 		.4byte	.LASF70
 9068 2806 01       		.byte	0x1
 9069 2807 D702     		.2byte	0x2d7
 9070 2809 AD000000 		.4byte	0xad
 9071 280d 38190000 		.4byte	.LLST177
 9072 2811 2E       		.uleb128 0x2e
 9073 2812 7C100000 		.4byte	0x107c
 9074 2816 10000000 		.4byte	.LBB392
 9075 281a 10000000 		.4byte	.LBE392-.LBB392
 9076 281e 01       		.byte	0x1
 9077 281f DB02     		.2byte	0x2db
 9078 2821 4D280000 		.4byte	0x284d
 9079 2825 2B       		.uleb128 0x2b
 9080 2826 A2100000 		.4byte	0x10a2
 9081 282a 57190000 		.4byte	.LLST178
 9082 282e 42       		.uleb128 0x42
 9083 282f 96100000 		.4byte	0x1096
 9084 2833 04       		.byte	0x4
 9085 2834 2B       		.uleb128 0x2b
 9086 2835 8D100000 		.4byte	0x108d
 9087 2839 6A190000 		.4byte	.LLST179
 9088 283d 2F       		.uleb128 0x2f
 9089 283e 20000000 		.4byte	.LVL289
 9090 2842 1E060000 		.4byte	0x61e
 9091 2846 30       		.uleb128 0x30
 9092 2847 01       		.uleb128 0x1
 9093 2848 52       		.byte	0x52
 9094 2849 01       		.uleb128 0x1
 9095 284a 34       		.byte	0x34
 9096 284b 00       		.byte	0
 9097 284c 00       		.byte	0
 9098 284d 31       		.uleb128 0x31
 9099 284e 7C100000 		.4byte	0x107c
 9100 2852 20000000 		.4byte	.LBB394
 9101 2856 60030000 		.4byte	.Ldebug_ranges0+0x360
 9102 285a 01       		.byte	0x1
 9103 285b DD02     		.2byte	0x2dd
 9104 285d 2B       		.uleb128 0x2b
 9105 285e A2100000 		.4byte	0x10a2
 9106 2862 96190000 		.4byte	.LLST180
 9107 2866 42       		.uleb128 0x42
 9108 2867 96100000 		.4byte	0x1096
 9109 286b 05       		.byte	0x5
 9110 286c 2B       		.uleb128 0x2b
 9111 286d 8D100000 		.4byte	0x108d
 9112 2871 A9190000 		.4byte	.LLST181
 9113 2875 41       		.uleb128 0x41
 9114 2876 34000000 		.4byte	.LVL291
 9115 287a 1E060000 		.4byte	0x61e
 9116 287e 30       		.uleb128 0x30
 9117 287f 01       		.uleb128 0x1
 9118 2880 52       		.byte	0x52
 9119 2881 01       		.uleb128 0x1
 9120 2882 35       		.byte	0x35
ARM GAS  /tmp/ccoI4Tqz.s 			page 161


 9121 2883 00       		.byte	0
 9122 2884 00       		.byte	0
 9123 2885 00       		.byte	0
 9124 2886 00       		.byte	0
 9125 2887 45       		.uleb128 0x45
 9126 2888 3A0D0000 		.4byte	0xd3a
 9127 288c 01       		.byte	0x1
 9128 288d E002     		.2byte	0x2e0
 9129 288f 00000000 		.4byte	.LFB46
 9130 2893 18000000 		.4byte	.LFE46-.LFB46
 9131 2897 01       		.uleb128 0x1
 9132 2898 9C       		.byte	0x9c
 9133 2899 A1280000 		.4byte	0x28a1
 9134 289d F8280000 		.4byte	0x28f8
 9135 28a1 3C       		.uleb128 0x3c
 9136 28a2 02080000 		.4byte	.LASF257
 9137 28a6 AF100000 		.4byte	0x10af
 9138 28aa CA190000 		.4byte	.LLST182
 9139 28ae 48       		.uleb128 0x48
 9140 28af 04000000 		.4byte	.LBB400
 9141 28b3 0E000000 		.4byte	.LBE400-.LBB400
 9142 28b7 46       		.uleb128 0x46
 9143 28b8 54110000 		.4byte	.LASF70
 9144 28bc 01       		.byte	0x1
 9145 28bd E102     		.2byte	0x2e1
 9146 28bf AD000000 		.4byte	0xad
 9147 28c3 F6190000 		.4byte	.LLST183
 9148 28c7 49       		.uleb128 0x49
 9149 28c8 34110000 		.4byte	0x1134
 9150 28cc 04000000 		.4byte	.LBB401
 9151 28d0 0E000000 		.4byte	.LBE401-.LBB401
 9152 28d4 01       		.byte	0x1
 9153 28d5 E102     		.2byte	0x2e1
 9154 28d7 42       		.uleb128 0x42
 9155 28d8 4E110000 		.4byte	0x114e
 9156 28dc 17       		.byte	0x17
 9157 28dd 2B       		.uleb128 0x2b
 9158 28de 45110000 		.4byte	0x1145
 9159 28e2 0D1A0000 		.4byte	.LLST184
 9160 28e6 2F       		.uleb128 0x2f
 9161 28e7 12000000 		.4byte	.LVL295
 9162 28eb 6B060000 		.4byte	0x66b
 9163 28ef 30       		.uleb128 0x30
 9164 28f0 01       		.uleb128 0x1
 9165 28f1 52       		.byte	0x52
 9166 28f2 01       		.uleb128 0x1
 9167 28f3 47       		.byte	0x47
 9168 28f4 00       		.byte	0
 9169 28f5 00       		.byte	0
 9170 28f6 00       		.byte	0
 9171 28f7 00       		.byte	0
 9172 28f8 45       		.uleb128 0x45
 9173 28f9 B90B0000 		.4byte	0xbb9
 9174 28fd 01       		.byte	0x1
 9175 28fe E602     		.2byte	0x2e6
 9176 2900 00000000 		.4byte	.LFB47
 9177 2904 1E000000 		.4byte	.LFE47-.LFB47
ARM GAS  /tmp/ccoI4Tqz.s 			page 162


 9178 2908 01       		.uleb128 0x1
 9179 2909 9C       		.byte	0x9c
 9180 290a 12290000 		.4byte	0x2912
 9181 290e 8E290000 		.4byte	0x298e
 9182 2912 3C       		.uleb128 0x3c
 9183 2913 02080000 		.4byte	.LASF257
 9184 2917 AF100000 		.4byte	0x10af
 9185 291b 391A0000 		.4byte	.LLST185
 9186 291f 4B       		.uleb128 0x4b
 9187 2920 79110000 		.4byte	.LASF281
 9188 2924 01       		.byte	0x1
 9189 2925 E602     		.2byte	0x2e6
 9190 2927 AD000000 		.4byte	0xad
 9191 292b 651A0000 		.4byte	.LLST186
 9192 292f 4B       		.uleb128 0x4b
 9193 2930 AC0A0000 		.4byte	.LASF287
 9194 2934 01       		.byte	0x1
 9195 2935 E602     		.2byte	0x2e6
 9196 2937 6F100000 		.4byte	0x106f
 9197 293b 861A0000 		.4byte	.LLST187
 9198 293f 2C       		.uleb128 0x2c
 9199 2940 78030000 		.4byte	.Ldebug_ranges0+0x378
 9200 2944 46       		.uleb128 0x46
 9201 2945 54110000 		.4byte	.LASF70
 9202 2949 01       		.byte	0x1
 9203 294a E902     		.2byte	0x2e9
 9204 294c AD000000 		.4byte	0xad
 9205 2950 A71A0000 		.4byte	.LLST188
 9206 2954 31       		.uleb128 0x31
 9207 2955 7C100000 		.4byte	0x107c
 9208 2959 0C000000 		.4byte	.LBB404
 9209 295d 90030000 		.4byte	.Ldebug_ranges0+0x390
 9210 2961 01       		.byte	0x1
 9211 2962 EB02     		.2byte	0x2eb
 9212 2964 2B       		.uleb128 0x2b
 9213 2965 A2100000 		.4byte	0x10a2
 9214 2969 C51A0000 		.4byte	.LLST189
 9215 296d 42       		.uleb128 0x42
 9216 296e 96100000 		.4byte	0x1096
 9217 2972 06       		.byte	0x6
 9218 2973 2B       		.uleb128 0x2b
 9219 2974 8D100000 		.4byte	0x108d
 9220 2978 D81A0000 		.4byte	.LLST190
 9221 297c 41       		.uleb128 0x41
 9222 297d 1E000000 		.4byte	.LVL304
 9223 2981 1E060000 		.4byte	0x61e
 9224 2985 30       		.uleb128 0x30
 9225 2986 01       		.uleb128 0x1
 9226 2987 52       		.byte	0x52
 9227 2988 01       		.uleb128 0x1
 9228 2989 36       		.byte	0x36
 9229 298a 00       		.byte	0
 9230 298b 00       		.byte	0
 9231 298c 00       		.byte	0
 9232 298d 00       		.byte	0
 9233 298e 45       		.uleb128 0x45
 9234 298f DD0B0000 		.4byte	0xbdd
ARM GAS  /tmp/ccoI4Tqz.s 			page 163


 9235 2993 01       		.byte	0x1
 9236 2994 EE02     		.2byte	0x2ee
 9237 2996 00000000 		.4byte	.LFB48
 9238 299a 38000000 		.4byte	.LFE48-.LFB48
 9239 299e 01       		.uleb128 0x1
 9240 299f 9C       		.byte	0x9c
 9241 29a0 A8290000 		.4byte	0x29a8
 9242 29a4 7D2A0000 		.4byte	0x2a7d
 9243 29a8 3C       		.uleb128 0x3c
 9244 29a9 02080000 		.4byte	.LASF257
 9245 29ad AF100000 		.4byte	0x10af
 9246 29b1 041B0000 		.4byte	.LLST191
 9247 29b5 4B       		.uleb128 0x4b
 9248 29b6 620A0000 		.4byte	.LASF285
 9249 29ba 01       		.byte	0x1
 9250 29bb EE02     		.2byte	0x2ee
 9251 29bd AD000000 		.4byte	0xad
 9252 29c1 301B0000 		.4byte	.LLST192
 9253 29c5 4B       		.uleb128 0x4b
 9254 29c6 82060000 		.4byte	.LASF258
 9255 29ca 01       		.byte	0x1
 9256 29cb EE02     		.2byte	0x2ee
 9257 29cd EC060000 		.4byte	0x6ec
 9258 29d1 511B0000 		.4byte	.LLST193
 9259 29d5 4B       		.uleb128 0x4b
 9260 29d6 77040000 		.4byte	.LASF284
 9261 29da 01       		.byte	0x1
 9262 29db EF02     		.2byte	0x2ef
 9263 29dd AD000000 		.4byte	0xad
 9264 29e1 721B0000 		.4byte	.LLST194
 9265 29e5 4B       		.uleb128 0x4b
 9266 29e6 88100000 		.4byte	.LASF288
 9267 29ea 01       		.byte	0x1
 9268 29eb EF02     		.2byte	0x2ef
 9269 29ed 6F100000 		.4byte	0x106f
 9270 29f1 931B0000 		.4byte	.LLST195
 9271 29f5 2C       		.uleb128 0x2c
 9272 29f6 A8030000 		.4byte	.Ldebug_ranges0+0x3a8
 9273 29fa 46       		.uleb128 0x46
 9274 29fb 54110000 		.4byte	.LASF70
 9275 29ff 01       		.byte	0x1
 9276 2a00 F502     		.2byte	0x2f5
 9277 2a02 AD000000 		.4byte	0xad
 9278 2a06 B31B0000 		.4byte	.LLST196
 9279 2a0a 2E       		.uleb128 0x2e
 9280 2a0b 7C100000 		.4byte	0x107c
 9281 2a0f 0C000000 		.4byte	.LBB410
 9282 2a13 10000000 		.4byte	.LBE410-.LBB410
 9283 2a17 01       		.byte	0x1
 9284 2a18 F202     		.2byte	0x2f2
 9285 2a1a 432A0000 		.4byte	0x2a43
 9286 2a1e 2B       		.uleb128 0x2b
 9287 2a1f A2100000 		.4byte	0x10a2
 9288 2a23 C61B0000 		.4byte	.LLST197
 9289 2a27 2B       		.uleb128 0x2b
 9290 2a28 96100000 		.4byte	0x1096
 9291 2a2c E71B0000 		.4byte	.LLST198
ARM GAS  /tmp/ccoI4Tqz.s 			page 164


 9292 2a30 2B       		.uleb128 0x2b
 9293 2a31 8D100000 		.4byte	0x108d
 9294 2a35 0C1C0000 		.4byte	.LLST199
 9295 2a39 50       		.uleb128 0x50
 9296 2a3a 1C000000 		.4byte	.LVL311
 9297 2a3e 1E060000 		.4byte	0x61e
 9298 2a42 00       		.byte	0
 9299 2a43 31       		.uleb128 0x31
 9300 2a44 7C100000 		.4byte	0x107c
 9301 2a48 26000000 		.4byte	.LBB412
 9302 2a4c C8030000 		.4byte	.Ldebug_ranges0+0x3c8
 9303 2a50 01       		.byte	0x1
 9304 2a51 F802     		.2byte	0x2f8
 9305 2a53 2B       		.uleb128 0x2b
 9306 2a54 A2100000 		.4byte	0x10a2
 9307 2a58 381C0000 		.4byte	.LLST200
 9308 2a5c 42       		.uleb128 0x42
 9309 2a5d 96100000 		.4byte	0x1096
 9310 2a61 0A       		.byte	0xa
 9311 2a62 2B       		.uleb128 0x2b
 9312 2a63 8D100000 		.4byte	0x108d
 9313 2a67 4B1C0000 		.4byte	.LLST201
 9314 2a6b 41       		.uleb128 0x41
 9315 2a6c 38000000 		.4byte	.LVL315
 9316 2a70 1E060000 		.4byte	0x61e
 9317 2a74 30       		.uleb128 0x30
 9318 2a75 01       		.uleb128 0x1
 9319 2a76 52       		.byte	0x52
 9320 2a77 01       		.uleb128 0x1
 9321 2a78 3A       		.byte	0x3a
 9322 2a79 00       		.byte	0
 9323 2a7a 00       		.byte	0
 9324 2a7b 00       		.byte	0
 9325 2a7c 00       		.byte	0
 9326 2a7d 45       		.uleb128 0x45
 9327 2a7e FC0C0000 		.4byte	0xcfc
 9328 2a82 01       		.byte	0x1
 9329 2a83 FB02     		.2byte	0x2fb
 9330 2a85 00000000 		.4byte	.LFB49
 9331 2a89 24000000 		.4byte	.LFE49-.LFB49
 9332 2a8d 01       		.uleb128 0x1
 9333 2a8e 9C       		.byte	0x9c
 9334 2a8f 972A0000 		.4byte	0x2a97
 9335 2a93 EF2A0000 		.4byte	0x2aef
 9336 2a97 3C       		.uleb128 0x3c
 9337 2a98 02080000 		.4byte	.LASF257
 9338 2a9c AF100000 		.4byte	0x10af
 9339 2aa0 6C1C0000 		.4byte	.LLST202
 9340 2aa4 48       		.uleb128 0x48
 9341 2aa5 04000000 		.4byte	.LBB418
 9342 2aa9 1C000000 		.4byte	.LBE418-.LBB418
 9343 2aad 46       		.uleb128 0x46
 9344 2aae B2010000 		.4byte	.LASF289
 9345 2ab2 01       		.byte	0x1
 9346 2ab3 FC02     		.2byte	0x2fc
 9347 2ab5 AD000000 		.4byte	0xad
 9348 2ab9 981C0000 		.4byte	.LLST203
ARM GAS  /tmp/ccoI4Tqz.s 			page 165


 9349 2abd 49       		.uleb128 0x49
 9350 2abe 34110000 		.4byte	0x1134
 9351 2ac2 04000000 		.4byte	.LBB419
 9352 2ac6 0E000000 		.4byte	.LBE419-.LBB419
 9353 2aca 01       		.byte	0x1
 9354 2acb FC02     		.2byte	0x2fc
 9355 2acd 42       		.uleb128 0x42
 9356 2ace 4E110000 		.4byte	0x114e
 9357 2ad2 26       		.byte	0x26
 9358 2ad3 2B       		.uleb128 0x2b
 9359 2ad4 45110000 		.4byte	0x1145
 9360 2ad8 AB1C0000 		.4byte	.LLST204
 9361 2adc 2F       		.uleb128 0x2f
 9362 2add 12000000 		.4byte	.LVL319
 9363 2ae1 6B060000 		.4byte	0x66b
 9364 2ae5 30       		.uleb128 0x30
 9365 2ae6 01       		.uleb128 0x1
 9366 2ae7 52       		.byte	0x52
 9367 2ae8 02       		.uleb128 0x2
 9368 2ae9 08       		.byte	0x8
 9369 2aea 26       		.byte	0x26
 9370 2aeb 00       		.byte	0
 9371 2aec 00       		.byte	0
 9372 2aed 00       		.byte	0
 9373 2aee 00       		.byte	0
 9374 2aef 45       		.uleb128 0x45
 9375 2af0 0B0C0000 		.4byte	0xc0b
 9376 2af4 01       		.byte	0x1
 9377 2af5 0603     		.2byte	0x306
 9378 2af7 00000000 		.4byte	.LFB50
 9379 2afb 24000000 		.4byte	.LFE50-.LFB50
 9380 2aff 01       		.uleb128 0x1
 9381 2b00 9C       		.byte	0x9c
 9382 2b01 092B0000 		.4byte	0x2b09
 9383 2b05 962B0000 		.4byte	0x2b96
 9384 2b09 3C       		.uleb128 0x3c
 9385 2b0a 02080000 		.4byte	.LASF257
 9386 2b0e AF100000 		.4byte	0x10af
 9387 2b12 D71C0000 		.4byte	.LLST205
 9388 2b16 4B       		.uleb128 0x4b
 9389 2b17 79110000 		.4byte	.LASF281
 9390 2b1b 01       		.byte	0x1
 9391 2b1c 0603     		.2byte	0x306
 9392 2b1e AD000000 		.4byte	0xad
 9393 2b22 031D0000 		.4byte	.LLST206
 9394 2b26 51       		.uleb128 0x51
 9395 2b27 616F6900 		.ascii	"aoi\000"
 9396 2b2b 01       		.byte	0x1
 9397 2b2c 0603     		.2byte	0x306
 9398 2b2e 6F100000 		.4byte	0x106f
 9399 2b32 241D0000 		.4byte	.LLST207
 9400 2b36 4B       		.uleb128 0x4b
 9401 2b37 87060000 		.4byte	.LASF290
 9402 2b3b 01       		.byte	0x1
 9403 2b3c 0603     		.2byte	0x306
 9404 2b3e 6F100000 		.4byte	0x106f
 9405 2b42 451D0000 		.4byte	.LLST208
ARM GAS  /tmp/ccoI4Tqz.s 			page 166


 9406 2b46 2C       		.uleb128 0x2c
 9407 2b47 E0030000 		.4byte	.Ldebug_ranges0+0x3e0
 9408 2b4b 46       		.uleb128 0x46
 9409 2b4c 54110000 		.4byte	.LASF70
 9410 2b50 01       		.byte	0x1
 9411 2b51 0903     		.2byte	0x309
 9412 2b53 AD000000 		.4byte	0xad
 9413 2b57 661D0000 		.4byte	.LLST209
 9414 2b5b 31       		.uleb128 0x31
 9415 2b5c 7C100000 		.4byte	0x107c
 9416 2b60 10000000 		.4byte	.LBB422
 9417 2b64 F8030000 		.4byte	.Ldebug_ranges0+0x3f8
 9418 2b68 01       		.byte	0x1
 9419 2b69 0C03     		.2byte	0x30c
 9420 2b6b 2B       		.uleb128 0x2b
 9421 2b6c A2100000 		.4byte	0x10a2
 9422 2b70 791D0000 		.4byte	.LLST210
 9423 2b74 42       		.uleb128 0x42
 9424 2b75 96100000 		.4byte	0x1096
 9425 2b79 30       		.byte	0x30
 9426 2b7a 2B       		.uleb128 0x2b
 9427 2b7b 8D100000 		.4byte	0x108d
 9428 2b7f 8C1D0000 		.4byte	.LLST211
 9429 2b83 41       		.uleb128 0x41
 9430 2b84 24000000 		.4byte	.LVL330
 9431 2b88 1E060000 		.4byte	0x61e
 9432 2b8c 30       		.uleb128 0x30
 9433 2b8d 01       		.uleb128 0x1
 9434 2b8e 52       		.byte	0x52
 9435 2b8f 02       		.uleb128 0x2
 9436 2b90 08       		.byte	0x8
 9437 2b91 30       		.byte	0x30
 9438 2b92 00       		.byte	0
 9439 2b93 00       		.byte	0
 9440 2b94 00       		.byte	0
 9441 2b95 00       		.byte	0
 9442 2b96 45       		.uleb128 0x45
 9443 2b97 350C0000 		.4byte	0xc35
 9444 2b9b 01       		.byte	0x1
 9445 2b9c 0F03     		.2byte	0x30f
 9446 2b9e 00000000 		.4byte	.LFB51
 9447 2ba2 5E000000 		.4byte	.LFE51-.LFB51
 9448 2ba6 01       		.uleb128 0x1
 9449 2ba7 9C       		.byte	0x9c
 9450 2ba8 B02B0000 		.4byte	0x2bb0
 9451 2bac F82C0000 		.4byte	0x2cf8
 9452 2bb0 3C       		.uleb128 0x3c
 9453 2bb1 02080000 		.4byte	.LASF257
 9454 2bb5 AF100000 		.4byte	0x10af
 9455 2bb9 B81D0000 		.4byte	.LLST212
 9456 2bbd 4B       		.uleb128 0x4b
 9457 2bbe 620A0000 		.4byte	.LASF285
 9458 2bc2 01       		.byte	0x1
 9459 2bc3 0F03     		.2byte	0x30f
 9460 2bc5 B8000000 		.4byte	0xb8
 9461 2bc9 E41D0000 		.4byte	.LLST213
 9462 2bcd 4B       		.uleb128 0x4b
ARM GAS  /tmp/ccoI4Tqz.s 			page 167


 9463 2bce 82060000 		.4byte	.LASF258
 9464 2bd2 01       		.byte	0x1
 9465 2bd3 0F03     		.2byte	0x30f
 9466 2bd5 EC060000 		.4byte	0x6ec
 9467 2bd9 051E0000 		.4byte	.LLST214
 9468 2bdd 4B       		.uleb128 0x4b
 9469 2bde 77040000 		.4byte	.LASF284
 9470 2be2 01       		.byte	0x1
 9471 2be3 1003     		.2byte	0x310
 9472 2be5 AD000000 		.4byte	0xad
 9473 2be9 261E0000 		.4byte	.LLST215
 9474 2bed 4B       		.uleb128 0x4b
 9475 2bee 88100000 		.4byte	.LASF288
 9476 2bf2 01       		.byte	0x1
 9477 2bf3 1003     		.2byte	0x310
 9478 2bf5 6F100000 		.4byte	0x106f
 9479 2bf9 471E0000 		.4byte	.LLST216
 9480 2bfd 2C       		.uleb128 0x2c
 9481 2bfe 10040000 		.4byte	.Ldebug_ranges0+0x410
 9482 2c02 46       		.uleb128 0x46
 9483 2c03 CD060000 		.4byte	.LASF291
 9484 2c07 01       		.byte	0x1
 9485 2c08 1103     		.2byte	0x311
 9486 2c0a 601C0000 		.4byte	0x1c60
 9487 2c0e 671E0000 		.4byte	.LLST217
 9488 2c12 46       		.uleb128 0x46
 9489 2c13 54110000 		.4byte	.LASF70
 9490 2c17 01       		.byte	0x1
 9491 2c18 1A03     		.2byte	0x31a
 9492 2c1a AD000000 		.4byte	0xad
 9493 2c1e 8B1E0000 		.4byte	.LLST218
 9494 2c22 47       		.uleb128 0x47
 9495 2c23 7C100000 		.4byte	0x107c
 9496 2c27 10000000 		.4byte	.LBB428
 9497 2c2b 30040000 		.4byte	.Ldebug_ranges0+0x430
 9498 2c2f 01       		.byte	0x1
 9499 2c30 1603     		.2byte	0x316
 9500 2c32 722C0000 		.4byte	0x2c72
 9501 2c36 2B       		.uleb128 0x2b
 9502 2c37 A2100000 		.4byte	0x10a2
 9503 2c3b 9E1E0000 		.4byte	.LLST219
 9504 2c3f 2B       		.uleb128 0x2b
 9505 2c40 96100000 		.4byte	0x1096
 9506 2c44 BD1E0000 		.4byte	.LLST220
 9507 2c48 2B       		.uleb128 0x2b
 9508 2c49 8D100000 		.4byte	0x108d
 9509 2c4d E81E0000 		.4byte	.LLST221
 9510 2c51 2F       		.uleb128 0x2f
 9511 2c52 26000000 		.4byte	.LVL337
 9512 2c56 1E060000 		.4byte	0x61e
 9513 2c5a 30       		.uleb128 0x30
 9514 2c5b 01       		.uleb128 0x1
 9515 2c5c 53       		.byte	0x53
 9516 2c5d 08       		.uleb128 0x8
 9517 2c5e 77       		.byte	0x77
 9518 2c5f 00       		.sleb128 0
 9519 2c60 09       		.byte	0x9
ARM GAS  /tmp/ccoI4Tqz.s 			page 168


 9520 2c61 F5       		.byte	0xf5
 9521 2c62 24       		.byte	0x24
 9522 2c63 09       		.byte	0x9
 9523 2c64 FD       		.byte	0xfd
 9524 2c65 25       		.byte	0x25
 9525 2c66 30       		.uleb128 0x30
 9526 2c67 01       		.uleb128 0x1
 9527 2c68 52       		.byte	0x52
 9528 2c69 06       		.uleb128 0x6
 9529 2c6a 75       		.byte	0x75
 9530 2c6b 00       		.sleb128 0
 9531 2c6c 31       		.byte	0x31
 9532 2c6d 24       		.byte	0x24
 9533 2c6e 23       		.byte	0x23
 9534 2c6f 31       		.uleb128 0x31
 9535 2c70 00       		.byte	0
 9536 2c71 00       		.byte	0
 9537 2c72 2E       		.uleb128 0x2e
 9538 2c73 7C100000 		.4byte	0x107c
 9539 2c77 2C000000 		.4byte	.LBB432
 9540 2c7b 12000000 		.4byte	.LBE432-.LBB432
 9541 2c7f 01       		.byte	0x1
 9542 2c80 1703     		.2byte	0x317
 9543 2c82 BD2C0000 		.4byte	0x2cbd
 9544 2c86 2B       		.uleb128 0x2b
 9545 2c87 A2100000 		.4byte	0x10a2
 9546 2c8b 141F0000 		.4byte	.LLST222
 9547 2c8f 2B       		.uleb128 0x2b
 9548 2c90 96100000 		.4byte	0x1096
 9549 2c94 271F0000 		.4byte	.LLST223
 9550 2c98 2B       		.uleb128 0x2b
 9551 2c99 8D100000 		.4byte	0x108d
 9552 2c9d 431F0000 		.4byte	.LLST224
 9553 2ca1 2F       		.uleb128 0x2f
 9554 2ca2 3E000000 		.4byte	.LVL338
 9555 2ca6 1E060000 		.4byte	0x61e
 9556 2caa 30       		.uleb128 0x30
 9557 2cab 01       		.uleb128 0x1
 9558 2cac 53       		.byte	0x53
 9559 2cad 02       		.uleb128 0x2
 9560 2cae 77       		.byte	0x77
 9561 2caf 00       		.sleb128 0
 9562 2cb0 30       		.uleb128 0x30
 9563 2cb1 01       		.uleb128 0x1
 9564 2cb2 52       		.byte	0x52
 9565 2cb3 07       		.uleb128 0x7
 9566 2cb4 75       		.byte	0x75
 9567 2cb5 19       		.sleb128 25
 9568 2cb6 31       		.byte	0x31
 9569 2cb7 24       		.byte	0x24
 9570 2cb8 08       		.byte	0x8
 9571 2cb9 FE       		.byte	0xfe
 9572 2cba 1A       		.byte	0x1a
 9573 2cbb 00       		.byte	0
 9574 2cbc 00       		.byte	0
 9575 2cbd 31       		.uleb128 0x31
 9576 2cbe 7C100000 		.4byte	0x107c
ARM GAS  /tmp/ccoI4Tqz.s 			page 169


 9577 2cc2 4C000000 		.4byte	.LBB434
 9578 2cc6 48040000 		.4byte	.Ldebug_ranges0+0x448
 9579 2cca 01       		.byte	0x1
 9580 2ccb 1D03     		.2byte	0x31d
 9581 2ccd 2B       		.uleb128 0x2b
 9582 2cce A2100000 		.4byte	0x10a2
 9583 2cd2 641F0000 		.4byte	.LLST225
 9584 2cd6 42       		.uleb128 0x42
 9585 2cd7 96100000 		.4byte	0x1096
 9586 2cdb 37       		.byte	0x37
 9587 2cdc 2B       		.uleb128 0x2b
 9588 2cdd 8D100000 		.4byte	0x108d
 9589 2ce1 771F0000 		.4byte	.LLST226
 9590 2ce5 41       		.uleb128 0x41
 9591 2ce6 5E000000 		.4byte	.LVL342
 9592 2cea 1E060000 		.4byte	0x61e
 9593 2cee 30       		.uleb128 0x30
 9594 2cef 01       		.uleb128 0x1
 9595 2cf0 52       		.byte	0x52
 9596 2cf1 02       		.uleb128 0x2
 9597 2cf2 08       		.byte	0x8
 9598 2cf3 37       		.byte	0x37
 9599 2cf4 00       		.byte	0
 9600 2cf5 00       		.byte	0
 9601 2cf6 00       		.byte	0
 9602 2cf7 00       		.byte	0
 9603 2cf8 45       		.uleb128 0x45
 9604 2cf9 DD0C0000 		.4byte	0xcdd
 9605 2cfd 01       		.byte	0x1
 9606 2cfe 2003     		.2byte	0x320
 9607 2d00 00000000 		.4byte	.LFB52
 9608 2d04 24000000 		.4byte	.LFE52-.LFB52
 9609 2d08 01       		.uleb128 0x1
 9610 2d09 9C       		.byte	0x9c
 9611 2d0a 122D0000 		.4byte	0x2d12
 9612 2d0e 692D0000 		.4byte	0x2d69
 9613 2d12 3C       		.uleb128 0x3c
 9614 2d13 02080000 		.4byte	.LASF257
 9615 2d17 AF100000 		.4byte	0x10af
 9616 2d1b 981F0000 		.4byte	.LLST227
 9617 2d1f 48       		.uleb128 0x48
 9618 2d20 04000000 		.4byte	.LBB440
 9619 2d24 1C000000 		.4byte	.LBE440-.LBB440
 9620 2d28 46       		.uleb128 0x46
 9621 2d29 B2010000 		.4byte	.LASF289
 9622 2d2d 01       		.byte	0x1
 9623 2d2e 2103     		.2byte	0x321
 9624 2d30 AD000000 		.4byte	0xad
 9625 2d34 C41F0000 		.4byte	.LLST228
 9626 2d38 49       		.uleb128 0x49
 9627 2d39 34110000 		.4byte	0x1134
 9628 2d3d 04000000 		.4byte	.LBB441
 9629 2d41 0E000000 		.4byte	.LBE441-.LBB441
 9630 2d45 01       		.byte	0x1
 9631 2d46 2103     		.2byte	0x321
 9632 2d48 42       		.uleb128 0x42
 9633 2d49 4E110000 		.4byte	0x114e
ARM GAS  /tmp/ccoI4Tqz.s 			page 170


 9634 2d4d 14       		.byte	0x14
 9635 2d4e 2B       		.uleb128 0x2b
 9636 2d4f 45110000 		.4byte	0x1145
 9637 2d53 D71F0000 		.4byte	.LLST229
 9638 2d57 2F       		.uleb128 0x2f
 9639 2d58 12000000 		.4byte	.LVL346
 9640 2d5c 6B060000 		.4byte	0x66b
 9641 2d60 30       		.uleb128 0x30
 9642 2d61 01       		.uleb128 0x1
 9643 2d62 52       		.byte	0x52
 9644 2d63 01       		.uleb128 0x1
 9645 2d64 44       		.byte	0x44
 9646 2d65 00       		.byte	0
 9647 2d66 00       		.byte	0
 9648 2d67 00       		.byte	0
 9649 2d68 00       		.byte	0
 9650 2d69 45       		.uleb128 0x45
 9651 2d6a 930C0000 		.4byte	0xc93
 9652 2d6e 01       		.byte	0x1
 9653 2d6f 2B03     		.2byte	0x32b
 9654 2d71 00000000 		.4byte	.LFB53
 9655 2d75 2E000000 		.4byte	.LFE53-.LFB53
 9656 2d79 01       		.uleb128 0x1
 9657 2d7a 9C       		.byte	0x9c
 9658 2d7b 832D0000 		.4byte	0x2d83
 9659 2d7f 102E0000 		.4byte	0x2e10
 9660 2d83 3C       		.uleb128 0x3c
 9661 2d84 02080000 		.4byte	.LASF257
 9662 2d88 AF100000 		.4byte	0x10af
 9663 2d8c 03200000 		.4byte	.LLST230
 9664 2d90 4B       		.uleb128 0x4b
 9665 2d91 79110000 		.4byte	.LASF281
 9666 2d95 01       		.byte	0x1
 9667 2d96 2B03     		.2byte	0x32b
 9668 2d98 AD000000 		.4byte	0xad
 9669 2d9c 2F200000 		.4byte	.LLST231
 9670 2da0 4B       		.uleb128 0x4b
 9671 2da1 EF020000 		.4byte	.LASF282
 9672 2da5 01       		.byte	0x1
 9673 2da6 2B03     		.2byte	0x32b
 9674 2da8 0B010000 		.4byte	0x10b
 9675 2dac 50200000 		.4byte	.LLST232
 9676 2db0 4B       		.uleb128 0x4b
 9677 2db1 87060000 		.4byte	.LASF290
 9678 2db5 01       		.byte	0x1
 9679 2db6 2B03     		.2byte	0x32b
 9680 2db8 6F100000 		.4byte	0x106f
 9681 2dbc 71200000 		.4byte	.LLST233
 9682 2dc0 2C       		.uleb128 0x2c
 9683 2dc1 60040000 		.4byte	.Ldebug_ranges0+0x460
 9684 2dc5 46       		.uleb128 0x46
 9685 2dc6 C2010000 		.4byte	.LASF292
 9686 2dca 01       		.byte	0x1
 9687 2dcb 2D03     		.2byte	0x32d
 9688 2dcd AD000000 		.4byte	0xad
 9689 2dd1 92200000 		.4byte	.LLST234
 9690 2dd5 31       		.uleb128 0x31
ARM GAS  /tmp/ccoI4Tqz.s 			page 171


 9691 2dd6 B4100000 		.4byte	0x10b4
 9692 2dda 1C000000 		.4byte	.LBB444
 9693 2dde 78040000 		.4byte	.Ldebug_ranges0+0x478
 9694 2de2 01       		.byte	0x1
 9695 2de3 3503     		.2byte	0x335
 9696 2de5 2B       		.uleb128 0x2b
 9697 2de6 DA100000 		.4byte	0x10da
 9698 2dea A5200000 		.4byte	.LLST235
 9699 2dee 42       		.uleb128 0x42
 9700 2def CE100000 		.4byte	0x10ce
 9701 2df3 30       		.byte	0x30
 9702 2df4 2B       		.uleb128 0x2b
 9703 2df5 C5100000 		.4byte	0x10c5
 9704 2df9 B8200000 		.4byte	.LLST236
 9705 2dfd 41       		.uleb128 0x41
 9706 2dfe 2E000000 		.4byte	.LVL357
 9707 2e02 1E060000 		.4byte	0x61e
 9708 2e06 30       		.uleb128 0x30
 9709 2e07 01       		.uleb128 0x1
 9710 2e08 52       		.byte	0x52
 9711 2e09 02       		.uleb128 0x2
 9712 2e0a 08       		.byte	0x8
 9713 2e0b 30       		.byte	0x30
 9714 2e0c 00       		.byte	0
 9715 2e0d 00       		.byte	0
 9716 2e0e 00       		.byte	0
 9717 2e0f 00       		.byte	0
 9718 2e10 45       		.uleb128 0x45
 9719 2e11 BD0C0000 		.4byte	0xcbd
 9720 2e15 01       		.byte	0x1
 9721 2e16 3803     		.2byte	0x338
 9722 2e18 00000000 		.4byte	.LFB54
 9723 2e1c 2C000000 		.4byte	.LFE54-.LFB54
 9724 2e20 01       		.uleb128 0x1
 9725 2e21 9C       		.byte	0x9c
 9726 2e22 2A2E0000 		.4byte	0x2e2a
 9727 2e26 CA2E0000 		.4byte	0x2eca
 9728 2e2a 3C       		.uleb128 0x3c
 9729 2e2b 02080000 		.4byte	.LASF257
 9730 2e2f AF100000 		.4byte	0x10af
 9731 2e33 D9200000 		.4byte	.LLST237
 9732 2e37 4B       		.uleb128 0x4b
 9733 2e38 620A0000 		.4byte	.LASF285
 9734 2e3c 01       		.byte	0x1
 9735 2e3d 3803     		.2byte	0x338
 9736 2e3f C3000000 		.4byte	0xc3
 9737 2e43 05210000 		.4byte	.LLST238
 9738 2e47 2E       		.uleb128 0x2e
 9739 2e48 B4100000 		.4byte	0x10b4
 9740 2e4c 06000000 		.4byte	.LBB449
 9741 2e50 12000000 		.4byte	.LBE449-.LBB449
 9742 2e54 01       		.byte	0x1
 9743 2e55 3A03     		.2byte	0x33a
 9744 2e57 902E0000 		.4byte	0x2e90
 9745 2e5b 2B       		.uleb128 0x2b
 9746 2e5c DA100000 		.4byte	0x10da
 9747 2e60 26210000 		.4byte	.LLST239
ARM GAS  /tmp/ccoI4Tqz.s 			page 172


 9748 2e64 42       		.uleb128 0x42
 9749 2e65 CE100000 		.4byte	0x10ce
 9750 2e69 33       		.byte	0x33
 9751 2e6a 2B       		.uleb128 0x2b
 9752 2e6b C5100000 		.4byte	0x10c5
 9753 2e6f 45210000 		.4byte	.LLST240
 9754 2e73 2F       		.uleb128 0x2f
 9755 2e74 18000000 		.4byte	.LVL363
 9756 2e78 1E060000 		.4byte	0x61e
 9757 2e7c 30       		.uleb128 0x30
 9758 2e7d 01       		.uleb128 0x1
 9759 2e7e 53       		.byte	0x53
 9760 2e7f 08       		.uleb128 0x8
 9761 2e80 75       		.byte	0x75
 9762 2e81 00       		.sleb128 0
 9763 2e82 09       		.byte	0x9
 9764 2e83 F5       		.byte	0xf5
 9765 2e84 24       		.byte	0x24
 9766 2e85 09       		.byte	0x9
 9767 2e86 FD       		.byte	0xfd
 9768 2e87 25       		.byte	0x25
 9769 2e88 30       		.uleb128 0x30
 9770 2e89 01       		.uleb128 0x1
 9771 2e8a 52       		.byte	0x52
 9772 2e8b 02       		.uleb128 0x2
 9773 2e8c 08       		.byte	0x8
 9774 2e8d 33       		.byte	0x33
 9775 2e8e 00       		.byte	0
 9776 2e8f 00       		.byte	0
 9777 2e90 31       		.uleb128 0x31
 9778 2e91 B4100000 		.4byte	0x10b4
 9779 2e95 18000000 		.4byte	.LBB451
 9780 2e99 90040000 		.4byte	.Ldebug_ranges0+0x490
 9781 2e9d 01       		.byte	0x1
 9782 2e9e 3C03     		.2byte	0x33c
 9783 2ea0 2B       		.uleb128 0x2b
 9784 2ea1 DA100000 		.4byte	0x10da
 9785 2ea5 71210000 		.4byte	.LLST241
 9786 2ea9 42       		.uleb128 0x42
 9787 2eaa CE100000 		.4byte	0x10ce
 9788 2eae 32       		.byte	0x32
 9789 2eaf 2B       		.uleb128 0x2b
 9790 2eb0 C5100000 		.4byte	0x10c5
 9791 2eb4 8F210000 		.4byte	.LLST242
 9792 2eb8 41       		.uleb128 0x41
 9793 2eb9 2C000000 		.4byte	.LVL365
 9794 2ebd 1E060000 		.4byte	0x61e
 9795 2ec1 30       		.uleb128 0x30
 9796 2ec2 01       		.uleb128 0x1
 9797 2ec3 52       		.byte	0x52
 9798 2ec4 02       		.uleb128 0x2
 9799 2ec5 08       		.byte	0x8
 9800 2ec6 32       		.byte	0x32
 9801 2ec7 00       		.byte	0
 9802 2ec8 00       		.byte	0
 9803 2ec9 00       		.byte	0
 9804 2eca 45       		.uleb128 0x45
ARM GAS  /tmp/ccoI4Tqz.s 			page 173


 9805 2ecb 1B0D0000 		.4byte	0xd1b
 9806 2ecf 01       		.byte	0x1
 9807 2ed0 3F03     		.2byte	0x33f
 9808 2ed2 00000000 		.4byte	.LFB55
 9809 2ed6 20000000 		.4byte	.LFE55-.LFB55
 9810 2eda 01       		.uleb128 0x1
 9811 2edb 9C       		.byte	0x9c
 9812 2edc E42E0000 		.4byte	0x2ee4
 9813 2ee0 3C2F0000 		.4byte	0x2f3c
 9814 2ee4 3C       		.uleb128 0x3c
 9815 2ee5 02080000 		.4byte	.LASF257
 9816 2ee9 AF100000 		.4byte	0x10af
 9817 2eed B0210000 		.4byte	.LLST243
 9818 2ef1 48       		.uleb128 0x48
 9819 2ef2 04000000 		.4byte	.LBB455
 9820 2ef6 1A000000 		.4byte	.LBE455-.LBB455
 9821 2efa 46       		.uleb128 0x46
 9822 2efb B2010000 		.4byte	.LASF289
 9823 2eff 01       		.byte	0x1
 9824 2f00 4003     		.2byte	0x340
 9825 2f02 AD000000 		.4byte	0xad
 9826 2f06 DC210000 		.4byte	.LLST244
 9827 2f0a 49       		.uleb128 0x49
 9828 2f0b 1E120000 		.4byte	0x121e
 9829 2f0f 04000000 		.4byte	.LBB456
 9830 2f13 10000000 		.4byte	.LBE456-.LBB456
 9831 2f17 01       		.byte	0x1
 9832 2f18 4003     		.2byte	0x340
 9833 2f1a 42       		.uleb128 0x42
 9834 2f1b 38120000 		.4byte	0x1238
 9835 2f1f 30       		.byte	0x30
 9836 2f20 2B       		.uleb128 0x2b
 9837 2f21 2F120000 		.4byte	0x122f
 9838 2f25 EF210000 		.4byte	.LLST245
 9839 2f29 2F       		.uleb128 0x2f
 9840 2f2a 12000000 		.4byte	.LVL369
 9841 2f2e 6B060000 		.4byte	0x66b
 9842 2f32 30       		.uleb128 0x30
 9843 2f33 01       		.uleb128 0x1
 9844 2f34 52       		.byte	0x52
 9845 2f35 02       		.uleb128 0x2
 9846 2f36 08       		.byte	0x8
 9847 2f37 30       		.byte	0x30
 9848 2f38 00       		.byte	0
 9849 2f39 00       		.byte	0
 9850 2f3a 00       		.byte	0
 9851 2f3b 00       		.byte	0
 9852 2f3c 45       		.uleb128 0x45
 9853 2f3d 590D0000 		.4byte	0xd59
 9854 2f41 01       		.byte	0x1
 9855 2f42 4A03     		.2byte	0x34a
 9856 2f44 00000000 		.4byte	.LFB56
 9857 2f48 34000000 		.4byte	.LFE56-.LFB56
 9858 2f4c 01       		.uleb128 0x1
 9859 2f4d 9C       		.byte	0x9c
 9860 2f4e 562F0000 		.4byte	0x2f56
 9861 2f52 FA2F0000 		.4byte	0x2ffa
ARM GAS  /tmp/ccoI4Tqz.s 			page 174


 9862 2f56 3C       		.uleb128 0x3c
 9863 2f57 02080000 		.4byte	.LASF257
 9864 2f5b AF100000 		.4byte	0x10af
 9865 2f5f 1B220000 		.4byte	.LLST246
 9866 2f63 4B       		.uleb128 0x4b
 9867 2f64 68090000 		.4byte	.LASF293
 9868 2f68 01       		.byte	0x1
 9869 2f69 4A03     		.2byte	0x34a
 9870 2f6b 6F100000 		.4byte	0x106f
 9871 2f6f 52220000 		.4byte	.LLST247
 9872 2f73 2C       		.uleb128 0x2c
 9873 2f74 A8040000 		.4byte	.Ldebug_ranges0+0x4a8
 9874 2f78 46       		.uleb128 0x46
 9875 2f79 54110000 		.4byte	.LASF70
 9876 2f7d 01       		.byte	0x1
 9877 2f7e 4B03     		.2byte	0x34b
 9878 2f80 AD000000 		.4byte	0xad
 9879 2f84 73220000 		.4byte	.LLST248
 9880 2f88 2E       		.uleb128 0x2e
 9881 2f89 34110000 		.4byte	0x1134
 9882 2f8d 06000000 		.4byte	.LBB459
 9883 2f91 0E000000 		.4byte	.LBE459-.LBB459
 9884 2f95 01       		.byte	0x1
 9885 2f96 4B03     		.2byte	0x34b
 9886 2f98 BC2F0000 		.4byte	0x2fbc
 9887 2f9c 42       		.uleb128 0x42
 9888 2f9d 4E110000 		.4byte	0x114e
 9889 2fa1 23       		.byte	0x23
 9890 2fa2 2B       		.uleb128 0x2b
 9891 2fa3 45110000 		.4byte	0x1145
 9892 2fa7 A7220000 		.4byte	.LLST249
 9893 2fab 2F       		.uleb128 0x2f
 9894 2fac 14000000 		.4byte	.LVL376
 9895 2fb0 6B060000 		.4byte	0x66b
 9896 2fb4 30       		.uleb128 0x30
 9897 2fb5 01       		.uleb128 0x1
 9898 2fb6 52       		.byte	0x52
 9899 2fb7 02       		.uleb128 0x2
 9900 2fb8 08       		.byte	0x8
 9901 2fb9 23       		.byte	0x23
 9902 2fba 00       		.byte	0
 9903 2fbb 00       		.byte	0
 9904 2fbc 31       		.uleb128 0x31
 9905 2fbd 7C100000 		.4byte	0x107c
 9906 2fc1 1A000000 		.4byte	.LBB461
 9907 2fc5 C0040000 		.4byte	.Ldebug_ranges0+0x4c0
 9908 2fc9 01       		.byte	0x1
 9909 2fca 5003     		.2byte	0x350
 9910 2fcc 2B       		.uleb128 0x2b
 9911 2fcd A2100000 		.4byte	0x10a2
 9912 2fd1 DE220000 		.4byte	.LLST250
 9913 2fd5 2B       		.uleb128 0x2b
 9914 2fd6 96100000 		.4byte	0x1096
 9915 2fda F1220000 		.4byte	.LLST251
 9916 2fde 2B       		.uleb128 0x2b
 9917 2fdf 8D100000 		.4byte	0x108d
 9918 2fe3 06230000 		.4byte	.LLST252
ARM GAS  /tmp/ccoI4Tqz.s 			page 175


 9919 2fe7 41       		.uleb128 0x41
 9920 2fe8 2C000000 		.4byte	.LVL379
 9921 2fec 1E060000 		.4byte	0x61e
 9922 2ff0 30       		.uleb128 0x30
 9923 2ff1 01       		.uleb128 0x1
 9924 2ff2 52       		.byte	0x52
 9925 2ff3 02       		.uleb128 0x2
 9926 2ff4 08       		.byte	0x8
 9927 2ff5 23       		.byte	0x23
 9928 2ff6 00       		.byte	0
 9929 2ff7 00       		.byte	0
 9930 2ff8 00       		.byte	0
 9931 2ff9 00       		.byte	0
 9932 2ffa 45       		.uleb128 0x45
 9933 2ffb 790D0000 		.4byte	0xd79
 9934 2fff 01       		.byte	0x1
 9935 3000 5303     		.2byte	0x353
 9936 3002 00000000 		.4byte	.LFB57
 9937 3006 34000000 		.4byte	.LFE57-.LFB57
 9938 300a 01       		.uleb128 0x1
 9939 300b 9C       		.byte	0x9c
 9940 300c 14300000 		.4byte	0x3014
 9941 3010 B8300000 		.4byte	0x30b8
 9942 3014 3C       		.uleb128 0x3c
 9943 3015 02080000 		.4byte	.LASF257
 9944 3019 AF100000 		.4byte	0x10af
 9945 301d 27230000 		.4byte	.LLST253
 9946 3021 4B       		.uleb128 0x4b
 9947 3022 68090000 		.4byte	.LASF293
 9948 3026 01       		.byte	0x1
 9949 3027 5303     		.2byte	0x353
 9950 3029 6F100000 		.4byte	0x106f
 9951 302d 5E230000 		.4byte	.LLST254
 9952 3031 2C       		.uleb128 0x2c
 9953 3032 D8040000 		.4byte	.Ldebug_ranges0+0x4d8
 9954 3036 46       		.uleb128 0x46
 9955 3037 54110000 		.4byte	.LASF70
 9956 303b 01       		.byte	0x1
 9957 303c 5403     		.2byte	0x354
 9958 303e AD000000 		.4byte	0xad
 9959 3042 7F230000 		.4byte	.LLST255
 9960 3046 2E       		.uleb128 0x2e
 9961 3047 34110000 		.4byte	0x1134
 9962 304b 06000000 		.4byte	.LBB467
 9963 304f 0E000000 		.4byte	.LBE467-.LBB467
 9964 3053 01       		.byte	0x1
 9965 3054 5403     		.2byte	0x354
 9966 3056 7A300000 		.4byte	0x307a
 9967 305a 42       		.uleb128 0x42
 9968 305b 4E110000 		.4byte	0x114e
 9969 305f 23       		.byte	0x23
 9970 3060 2B       		.uleb128 0x2b
 9971 3061 45110000 		.4byte	0x1145
 9972 3065 B3230000 		.4byte	.LLST256
 9973 3069 2F       		.uleb128 0x2f
 9974 306a 14000000 		.4byte	.LVL385
 9975 306e 6B060000 		.4byte	0x66b
ARM GAS  /tmp/ccoI4Tqz.s 			page 176


 9976 3072 30       		.uleb128 0x30
 9977 3073 01       		.uleb128 0x1
 9978 3074 52       		.byte	0x52
 9979 3075 02       		.uleb128 0x2
 9980 3076 08       		.byte	0x8
 9981 3077 23       		.byte	0x23
 9982 3078 00       		.byte	0
 9983 3079 00       		.byte	0
 9984 307a 31       		.uleb128 0x31
 9985 307b 7C100000 		.4byte	0x107c
 9986 307f 1A000000 		.4byte	.LBB469
 9987 3083 F0040000 		.4byte	.Ldebug_ranges0+0x4f0
 9988 3087 01       		.byte	0x1
 9989 3088 5903     		.2byte	0x359
 9990 308a 2B       		.uleb128 0x2b
 9991 308b A2100000 		.4byte	0x10a2
 9992 308f EA230000 		.4byte	.LLST257
 9993 3093 2B       		.uleb128 0x2b
 9994 3094 96100000 		.4byte	0x1096
 9995 3098 FD230000 		.4byte	.LLST258
 9996 309c 2B       		.uleb128 0x2b
 9997 309d 8D100000 		.4byte	0x108d
 9998 30a1 12240000 		.4byte	.LLST259
 9999 30a5 41       		.uleb128 0x41
 10000 30a6 2C000000 		.4byte	.LVL388
 10001 30aa 1E060000 		.4byte	0x61e
 10002 30ae 30       		.uleb128 0x30
 10003 30af 01       		.uleb128 0x1
 10004 30b0 52       		.byte	0x52
 10005 30b1 02       		.uleb128 0x2
 10006 30b2 08       		.byte	0x8
 10007 30b3 23       		.byte	0x23
 10008 30b4 00       		.byte	0
 10009 30b5 00       		.byte	0
 10010 30b6 00       		.byte	0
 10011 30b7 00       		.byte	0
 10012 30b8 45       		.uleb128 0x45
 10013 30b9 990D0000 		.4byte	0xd99
 10014 30bd 01       		.byte	0x1
 10015 30be 5C03     		.2byte	0x35c
 10016 30c0 00000000 		.4byte	.LFB58
 10017 30c4 20000000 		.4byte	.LFE58-.LFB58
 10018 30c8 01       		.uleb128 0x1
 10019 30c9 9C       		.byte	0x9c
 10020 30ca D2300000 		.4byte	0x30d2
 10021 30ce 66310000 		.4byte	0x3166
 10022 30d2 3C       		.uleb128 0x3c
 10023 30d3 02080000 		.4byte	.LASF257
 10024 30d7 AF100000 		.4byte	0x10af
 10025 30db 33240000 		.4byte	.LLST260
 10026 30df 4B       		.uleb128 0x4b
 10027 30e0 B4030000 		.4byte	.LASF294
 10028 30e4 01       		.byte	0x1
 10029 30e5 5C03     		.2byte	0x35c
 10030 30e7 3D010000 		.4byte	0x13d
 10031 30eb 5F240000 		.4byte	.LLST261
 10032 30ef 4B       		.uleb128 0x4b
ARM GAS  /tmp/ccoI4Tqz.s 			page 177


 10033 30f0 B00E0000 		.4byte	.LASF295
 10034 30f4 01       		.byte	0x1
 10035 30f5 5C03     		.2byte	0x35c
 10036 30f7 AD000000 		.4byte	0xad
 10037 30fb 80240000 		.4byte	.LLST262
 10038 30ff 2C       		.uleb128 0x2c
 10039 3100 08050000 		.4byte	.Ldebug_ranges0+0x508
 10040 3104 46       		.uleb128 0x46
 10041 3105 620A0000 		.4byte	.LASF285
 10042 3109 01       		.byte	0x1
 10043 310a 5F03     		.2byte	0x35f
 10044 310c AD000000 		.4byte	0xad
 10045 3110 A1240000 		.4byte	.LLST263
 10046 3114 49       		.uleb128 0x49
 10047 3115 7C100000 		.4byte	0x107c
 10048 3119 10000000 		.4byte	.LBB475
 10049 311d 10000000 		.4byte	.LBE475-.LBB475
 10050 3121 01       		.byte	0x1
 10051 3122 6003     		.2byte	0x360
 10052 3124 3B       		.uleb128 0x3b
 10053 3125 A2100000 		.4byte	0x10a2
 10054 3129 1A       		.uleb128 0x1a
 10055 312a F3       		.byte	0xf3
 10056 312b 01       		.uleb128 0x1
 10057 312c 52       		.byte	0x52
 10058 312d 12       		.byte	0x12
 10059 312e 08       		.byte	0x8
 10060 312f FF       		.byte	0xff
 10061 3130 1A       		.byte	0x1a
 10062 3131 4F       		.byte	0x4f
 10063 3132 16       		.byte	0x16
 10064 3133 14       		.byte	0x14
 10065 3134 08       		.byte	0x8
 10066 3135 FF       		.byte	0xff
 10067 3136 1A       		.byte	0x1a
 10068 3137 2D       		.byte	0x2d
 10069 3138 28       		.byte	0x28
 10070 3139 0100     		.2byte	0x1
 10071 313b 16       		.byte	0x16
 10072 313c 13       		.byte	0x13
 10073 313d F3       		.byte	0xf3
 10074 313e 01       		.uleb128 0x1
 10075 313f 51       		.byte	0x51
 10076 3140 35       		.byte	0x35
 10077 3141 24       		.byte	0x24
 10078 3142 21       		.byte	0x21
 10079 3143 9F       		.byte	0x9f
 10080 3144 42       		.uleb128 0x42
 10081 3145 96100000 		.4byte	0x1096
 10082 3149 2E       		.byte	0x2e
 10083 314a 2B       		.uleb128 0x2b
 10084 314b 8D100000 		.4byte	0x108d
 10085 314f E4240000 		.4byte	.LLST264
 10086 3153 41       		.uleb128 0x41
 10087 3154 20000000 		.4byte	.LVL395
 10088 3158 1E060000 		.4byte	0x61e
 10089 315c 30       		.uleb128 0x30
ARM GAS  /tmp/ccoI4Tqz.s 			page 178


 10090 315d 01       		.uleb128 0x1
 10091 315e 52       		.byte	0x52
 10092 315f 02       		.uleb128 0x2
 10093 3160 08       		.byte	0x8
 10094 3161 2E       		.byte	0x2e
 10095 3162 00       		.byte	0
 10096 3163 00       		.byte	0
 10097 3164 00       		.byte	0
 10098 3165 00       		.byte	0
 10099 3166 4C       		.uleb128 0x4c
 10100 3167 BD080000 		.4byte	0x8bd
 10101 316b 01       		.byte	0x1
 10102 316c 3001     		.2byte	0x130
 10103 316e 00000000 		.4byte	.LFB17
 10104 3172 3C010000 		.4byte	.LFE17-.LFB17
 10105 3176 01       		.uleb128 0x1
 10106 3177 9C       		.byte	0x9c
 10107 3178 80310000 		.4byte	0x3180
 10108 317c F1320000 		.4byte	0x32f1
 10109 3180 3C       		.uleb128 0x3c
 10110 3181 02080000 		.4byte	.LASF257
 10111 3185 AF100000 		.4byte	0x10af
 10112 3189 10250000 		.4byte	.LLST265
 10113 318d 4B       		.uleb128 0x4b
 10114 318e 80040000 		.4byte	.LASF296
 10115 3192 01       		.byte	0x1
 10116 3193 3001     		.2byte	0x130
 10117 3195 6F100000 		.4byte	0x106f
 10118 3199 3C250000 		.4byte	.LLST266
 10119 319d 48       		.uleb128 0x48
 10120 319e 0A000000 		.4byte	.LBB478
 10121 31a2 28010000 		.4byte	.LBE478-.LBB478
 10122 31a6 46       		.uleb128 0x46
 10123 31a7 8D060000 		.4byte	.LASF297
 10124 31ab 01       		.byte	0x1
 10125 31ac 3101     		.2byte	0x131
 10126 31ae AD000000 		.4byte	0xad
 10127 31b2 5D250000 		.4byte	.LLST267
 10128 31b6 4D       		.uleb128 0x4d
 10129 31b7 696900   		.ascii	"ii\000"
 10130 31ba 01       		.byte	0x1
 10131 31bb 3201     		.2byte	0x132
 10132 31bd 25000000 		.4byte	0x25
 10133 31c1 96250000 		.4byte	.LLST268
 10134 31c5 4A       		.uleb128 0x4a
 10135 31c6 0A100000 		.4byte	.LASF298
 10136 31ca 01       		.byte	0x1
 10137 31cb 3301     		.2byte	0x133
 10138 31cd F1320000 		.4byte	0x32f1
 10139 31d1 02       		.uleb128 0x2
 10140 31d2 91       		.byte	0x91
 10141 31d3 40       		.sleb128 -64
 10142 31d4 4A       		.uleb128 0x4a
 10143 31d5 03030000 		.4byte	.LASF299
 10144 31d9 01       		.byte	0x1
 10145 31da 3401     		.2byte	0x134
 10146 31dc F1320000 		.4byte	0x32f1
ARM GAS  /tmp/ccoI4Tqz.s 			page 179


 10147 31e0 02       		.uleb128 0x2
 10148 31e1 91       		.byte	0x91
 10149 31e2 4C       		.sleb128 -52
 10150 31e3 2E       		.uleb128 0x2e
 10151 31e4 34110000 		.4byte	0x1134
 10152 31e8 1A000000 		.4byte	.LBB479
 10153 31ec 0E000000 		.4byte	.LBE479-.LBB479
 10154 31f0 01       		.byte	0x1
 10155 31f1 3A01     		.2byte	0x13a
 10156 31f3 17320000 		.4byte	0x3217
 10157 31f7 42       		.uleb128 0x42
 10158 31f8 4E110000 		.4byte	0x114e
 10159 31fc 2F       		.byte	0x2f
 10160 31fd 2B       		.uleb128 0x2b
 10161 31fe 45110000 		.4byte	0x1145
 10162 3202 CC250000 		.4byte	.LLST269
 10163 3206 2F       		.uleb128 0x2f
 10164 3207 28000000 		.4byte	.LVL400
 10165 320b 6B060000 		.4byte	0x66b
 10166 320f 30       		.uleb128 0x30
 10167 3210 01       		.uleb128 0x1
 10168 3211 52       		.byte	0x52
 10169 3212 02       		.uleb128 0x2
 10170 3213 08       		.byte	0x8
 10171 3214 2F       		.byte	0x2f
 10172 3215 00       		.byte	0
 10173 3216 00       		.byte	0
 10174 3217 47       		.uleb128 0x47
 10175 3218 D0110000 		.4byte	0x11d0
 10176 321c D0000000 		.4byte	.LBB481
 10177 3220 20050000 		.4byte	.Ldebug_ranges0+0x520
 10178 3224 01       		.byte	0x1
 10179 3225 4801     		.2byte	0x148
 10180 3227 3A320000 		.4byte	0x323a
 10181 322b 2B       		.uleb128 0x2b
 10182 322c EA110000 		.4byte	0x11ea
 10183 3230 ED250000 		.4byte	.LLST270
 10184 3234 4E       		.uleb128 0x4e
 10185 3235 E1110000 		.4byte	0x11e1
 10186 3239 00       		.byte	0
 10187 323a 2E       		.uleb128 0x2e
 10188 323b F7110000 		.4byte	0x11f7
 10189 323f EA000000 		.4byte	.LBB485
 10190 3243 0C000000 		.4byte	.LBE485-.LBB485
 10191 3247 01       		.byte	0x1
 10192 3248 4A01     		.2byte	0x14a
 10193 324a 5D320000 		.4byte	0x325d
 10194 324e 2B       		.uleb128 0x2b
 10195 324f 11120000 		.4byte	0x1211
 10196 3253 0C260000 		.4byte	.LLST271
 10197 3257 4E       		.uleb128 0x4e
 10198 3258 08120000 		.4byte	0x1208
 10199 325c 00       		.byte	0
 10200 325d 52       		.uleb128 0x52
 10201 325e 10000000 		.4byte	.LVL398
 10202 3262 FA2F0000 		.4byte	0x2ffa
 10203 3266 76320000 		.4byte	0x3276
ARM GAS  /tmp/ccoI4Tqz.s 			page 180


 10204 326a 30       		.uleb128 0x30
 10205 326b 01       		.uleb128 0x1
 10206 326c 51       		.byte	0x51
 10207 326d 01       		.uleb128 0x1
 10208 326e 31       		.byte	0x31
 10209 326f 30       		.uleb128 0x30
 10210 3270 01       		.uleb128 0x1
 10211 3271 50       		.byte	0x50
 10212 3272 02       		.uleb128 0x2
 10213 3273 74       		.byte	0x74
 10214 3274 00       		.sleb128 0
 10215 3275 00       		.byte	0
 10216 3276 52       		.uleb128 0x52
 10217 3277 1A000000 		.4byte	.LVL399
 10218 327b B8300000 		.4byte	0x30b8
 10219 327f 94320000 		.4byte	0x3294
 10220 3283 30       		.uleb128 0x30
 10221 3284 01       		.uleb128 0x1
 10222 3285 52       		.byte	0x52
 10223 3286 01       		.uleb128 0x1
 10224 3287 4F       		.byte	0x4f
 10225 3288 30       		.uleb128 0x30
 10226 3289 01       		.uleb128 0x1
 10227 328a 51       		.byte	0x51
 10228 328b 01       		.uleb128 0x1
 10229 328c 31       		.byte	0x31
 10230 328d 30       		.uleb128 0x30
 10231 328e 01       		.uleb128 0x1
 10232 328f 50       		.byte	0x50
 10233 3290 02       		.uleb128 0x2
 10234 3291 74       		.byte	0x74
 10235 3292 00       		.sleb128 0
 10236 3293 00       		.byte	0
 10237 3294 52       		.uleb128 0x52
 10238 3295 46000000 		.4byte	.LVL404
 10239 3299 891F0000 		.4byte	0x1f89
 10240 329d A8320000 		.4byte	0x32a8
 10241 32a1 30       		.uleb128 0x30
 10242 32a2 01       		.uleb128 0x1
 10243 32a3 50       		.byte	0x50
 10244 32a4 02       		.uleb128 0x2
 10245 32a5 74       		.byte	0x74
 10246 32a6 00       		.sleb128 0
 10247 32a7 00       		.byte	0
 10248 32a8 52       		.uleb128 0x52
 10249 32a9 66000000 		.4byte	.LVL405
 10250 32ad 141B0000 		.4byte	0x1b14
 10251 32b1 BC320000 		.4byte	0x32bc
 10252 32b5 30       		.uleb128 0x30
 10253 32b6 01       		.uleb128 0x1
 10254 32b7 50       		.byte	0x50
 10255 32b8 02       		.uleb128 0x2
 10256 32b9 74       		.byte	0x74
 10257 32ba 00       		.sleb128 0
 10258 32bb 00       		.byte	0
 10259 32bc 52       		.uleb128 0x52
 10260 32bd 1E010000 		.4byte	.LVL423
ARM GAS  /tmp/ccoI4Tqz.s 			page 181


 10261 32c1 FA2F0000 		.4byte	0x2ffa
 10262 32c5 D5320000 		.4byte	0x32d5
 10263 32c9 30       		.uleb128 0x30
 10264 32ca 01       		.uleb128 0x1
 10265 32cb 51       		.byte	0x51
 10266 32cc 01       		.uleb128 0x1
 10267 32cd 30       		.byte	0x30
 10268 32ce 30       		.uleb128 0x30
 10269 32cf 01       		.uleb128 0x1
 10270 32d0 50       		.byte	0x50
 10271 32d1 02       		.uleb128 0x2
 10272 32d2 74       		.byte	0x74
 10273 32d3 00       		.sleb128 0
 10274 32d4 00       		.byte	0
 10275 32d5 2F       		.uleb128 0x2f
 10276 32d6 28010000 		.4byte	.LVL424
 10277 32da B8300000 		.4byte	0x30b8
 10278 32de 30       		.uleb128 0x30
 10279 32df 01       		.uleb128 0x1
 10280 32e0 52       		.byte	0x52
 10281 32e1 01       		.uleb128 0x1
 10282 32e2 30       		.byte	0x30
 10283 32e3 30       		.uleb128 0x30
 10284 32e4 01       		.uleb128 0x1
 10285 32e5 51       		.byte	0x51
 10286 32e6 01       		.uleb128 0x1
 10287 32e7 30       		.byte	0x30
 10288 32e8 30       		.uleb128 0x30
 10289 32e9 01       		.uleb128 0x1
 10290 32ea 50       		.byte	0x50
 10291 32eb 02       		.uleb128 0x2
 10292 32ec 74       		.byte	0x74
 10293 32ed 00       		.sleb128 0
 10294 32ee 00       		.byte	0
 10295 32ef 00       		.byte	0
 10296 32f0 00       		.byte	0
 10297 32f1 0C       		.uleb128 0xc
 10298 32f2 7B000000 		.4byte	0x7b
 10299 32f6 01330000 		.4byte	0x3301
 10300 32fa 0D       		.uleb128 0xd
 10301 32fb AE030000 		.4byte	0x3ae
 10302 32ff 02       		.byte	0x2
 10303 3300 00       		.byte	0
 10304 3301 45       		.uleb128 0x45
 10305 3302 BE0D0000 		.4byte	0xdbe
 10306 3306 01       		.byte	0x1
 10307 3307 6303     		.2byte	0x363
 10308 3309 00000000 		.4byte	.LFB59
 10309 330d 18000000 		.4byte	.LFE59-.LFB59
 10310 3311 01       		.uleb128 0x1
 10311 3312 9C       		.byte	0x9c
 10312 3313 1B330000 		.4byte	0x331b
 10313 3317 59330000 		.4byte	0x3359
 10314 331b 3C       		.uleb128 0x3c
 10315 331c 02080000 		.4byte	.LASF257
 10316 3320 AF100000 		.4byte	0x10af
 10317 3324 2A260000 		.4byte	.LLST272
ARM GAS  /tmp/ccoI4Tqz.s 			page 182


 10318 3328 49       		.uleb128 0x49
 10319 3329 34110000 		.4byte	0x1134
 10320 332d 04000000 		.4byte	.LBB487
 10321 3331 0E000000 		.4byte	.LBE487-.LBB487
 10322 3335 01       		.byte	0x1
 10323 3336 6303     		.2byte	0x363
 10324 3338 42       		.uleb128 0x42
 10325 3339 4E110000 		.4byte	0x114e
 10326 333d 2F       		.byte	0x2f
 10327 333e 2B       		.uleb128 0x2b
 10328 333f 45110000 		.4byte	0x1145
 10329 3343 56260000 		.4byte	.LLST273
 10330 3347 2F       		.uleb128 0x2f
 10331 3348 12000000 		.4byte	.LVL429
 10332 334c 6B060000 		.4byte	0x66b
 10333 3350 30       		.uleb128 0x30
 10334 3351 01       		.uleb128 0x1
 10335 3352 52       		.byte	0x52
 10336 3353 02       		.uleb128 0x2
 10337 3354 08       		.byte	0x8
 10338 3355 2F       		.byte	0x2f
 10339 3356 00       		.byte	0
 10340 3357 00       		.byte	0
 10341 3358 00       		.byte	0
 10342 3359 45       		.uleb128 0x45
 10343 335a 8F0F0000 		.4byte	0xf8f
 10344 335e 01       		.byte	0x1
 10345 335f 6503     		.2byte	0x365
 10346 3361 00000000 		.4byte	.LFB60
 10347 3365 48000000 		.4byte	.LFE60-.LFB60
 10348 3369 01       		.uleb128 0x1
 10349 336a 9C       		.byte	0x9c
 10350 336b 73330000 		.4byte	0x3373
 10351 336f 7F330000 		.4byte	0x337f
 10352 3373 34       		.uleb128 0x34
 10353 3374 02080000 		.4byte	.LASF257
 10354 3378 AF100000 		.4byte	0x10af
 10355 337c 01       		.uleb128 0x1
 10356 337d 50       		.byte	0x50
 10357 337e 00       		.byte	0
 10358 337f 53       		.uleb128 0x53
 10359 3380 9F080000 		.4byte	0x89f
 10360 3384 01       		.byte	0x1
 10361 3385 83       		.byte	0x83
 10362 3386 00000000 		.4byte	.LFB14
 10363 338a 80000000 		.4byte	.LFE14-.LFB14
 10364 338e 01       		.uleb128 0x1
 10365 338f 9C       		.byte	0x9c
 10366 3390 98330000 		.4byte	0x3398
 10367 3394 CF340000 		.4byte	0x34cf
 10368 3398 3C       		.uleb128 0x3c
 10369 3399 02080000 		.4byte	.LASF257
 10370 339d AF100000 		.4byte	0x10af
 10371 33a1 82260000 		.4byte	.LLST274
 10372 33a5 2C       		.uleb128 0x2c
 10373 33a6 38050000 		.4byte	.Ldebug_ranges0+0x538
 10374 33aa 3D       		.uleb128 0x3d
ARM GAS  /tmp/ccoI4Tqz.s 			page 183


 10375 33ab 24060000 		.4byte	.LASF300
 10376 33af 01       		.byte	0x1
 10377 33b0 91       		.byte	0x91
 10378 33b1 AD000000 		.4byte	0xad
 10379 33b5 A0260000 		.4byte	.LLST275
 10380 33b9 3D       		.uleb128 0x3d
 10381 33ba 39060000 		.4byte	.LASF301
 10382 33be 01       		.byte	0x1
 10383 33bf 92       		.byte	0x92
 10384 33c0 AD000000 		.4byte	0xad
 10385 33c4 B3260000 		.4byte	.LLST276
 10386 33c8 3D       		.uleb128 0x3d
 10387 33c9 2A100000 		.4byte	.LASF302
 10388 33cd 01       		.byte	0x1
 10389 33ce 93       		.byte	0x93
 10390 33cf C3000000 		.4byte	0xc3
 10391 33d3 C6260000 		.4byte	.LLST277
 10392 33d7 3F       		.uleb128 0x3f
 10393 33d8 5B110000 		.4byte	0x115b
 10394 33dc 14000000 		.4byte	.LBB490
 10395 33e0 10000000 		.4byte	.LBE490-.LBB490
 10396 33e4 01       		.byte	0x1
 10397 33e5 8B       		.byte	0x8b
 10398 33e6 F2330000 		.4byte	0x33f2
 10399 33ea 3B       		.uleb128 0x3b
 10400 33eb 6C110000 		.4byte	0x116c
 10401 33ef 01       		.uleb128 0x1
 10402 33f0 54       		.byte	0x54
 10403 33f1 00       		.byte	0
 10404 33f2 3E       		.uleb128 0x3e
 10405 33f3 76110000 		.4byte	0x1176
 10406 33f7 2A000000 		.4byte	.LBB492
 10407 33fb 50050000 		.4byte	.Ldebug_ranges0+0x550
 10408 33ff 01       		.byte	0x1
 10409 3400 8D       		.byte	0x8d
 10410 3401 0D340000 		.4byte	0x340d
 10411 3405 3B       		.uleb128 0x3b
 10412 3406 87110000 		.4byte	0x1187
 10413 340a 01       		.uleb128 0x1
 10414 340b 54       		.byte	0x54
 10415 340c 00       		.byte	0
 10416 340d 3E       		.uleb128 0x3e
 10417 340e 1E120000 		.4byte	0x121e
 10418 3412 38000000 		.4byte	.LBB495
 10419 3416 68050000 		.4byte	.Ldebug_ranges0+0x568
 10420 341a 01       		.byte	0x1
 10421 341b 91       		.byte	0x91
 10422 341c 3D340000 		.4byte	0x343d
 10423 3420 42       		.uleb128 0x42
 10424 3421 38120000 		.4byte	0x1238
 10425 3425 0F       		.byte	0xf
 10426 3426 3B       		.uleb128 0x3b
 10427 3427 2F120000 		.4byte	0x122f
 10428 342b 01       		.uleb128 0x1
 10429 342c 54       		.byte	0x54
 10430 342d 2F       		.uleb128 0x2f
 10431 342e 48000000 		.4byte	.LVL439
ARM GAS  /tmp/ccoI4Tqz.s 			page 184


 10432 3432 6B060000 		.4byte	0x66b
 10433 3436 30       		.uleb128 0x30
 10434 3437 01       		.uleb128 0x1
 10435 3438 52       		.byte	0x52
 10436 3439 01       		.uleb128 0x1
 10437 343a 3F       		.byte	0x3f
 10438 343b 00       		.byte	0
 10439 343c 00       		.byte	0
 10440 343d 3E       		.uleb128 0x3e
 10441 343e 34110000 		.4byte	0x1134
 10442 3442 48000000 		.4byte	.LBB501
 10443 3446 88050000 		.4byte	.Ldebug_ranges0+0x588
 10444 344a 01       		.byte	0x1
 10445 344b 92       		.byte	0x92
 10446 344c 6D340000 		.4byte	0x346d
 10447 3450 42       		.uleb128 0x42
 10448 3451 4E110000 		.4byte	0x114e
 10449 3455 0F       		.byte	0xf
 10450 3456 3B       		.uleb128 0x3b
 10451 3457 45110000 		.4byte	0x1145
 10452 345b 01       		.uleb128 0x1
 10453 345c 54       		.byte	0x54
 10454 345d 2F       		.uleb128 0x2f
 10455 345e 58000000 		.4byte	.LVL441
 10456 3462 6B060000 		.4byte	0x66b
 10457 3466 30       		.uleb128 0x30
 10458 3467 01       		.uleb128 0x1
 10459 3468 52       		.byte	0x52
 10460 3469 01       		.uleb128 0x1
 10461 346a 3F       		.byte	0x3f
 10462 346b 00       		.byte	0
 10463 346c 00       		.byte	0
 10464 346d 52       		.uleb128 0x52
 10465 346e 14000000 		.4byte	.LVL432
 10466 3472 59330000 		.4byte	0x3359
 10467 3476 81340000 		.4byte	0x3481
 10468 347a 30       		.uleb128 0x30
 10469 347b 01       		.uleb128 0x1
 10470 347c 50       		.byte	0x50
 10471 347d 02       		.uleb128 0x2
 10472 347e 74       		.byte	0x74
 10473 347f 00       		.sleb128 0
 10474 3480 00       		.byte	0
 10475 3481 52       		.uleb128 0x52
 10476 3482 2A000000 		.4byte	.LVL435
 10477 3486 85250000 		.4byte	0x2585
 10478 348a 95340000 		.4byte	0x3495
 10479 348e 30       		.uleb128 0x30
 10480 348f 01       		.uleb128 0x1
 10481 3490 50       		.byte	0x50
 10482 3491 02       		.uleb128 0x2
 10483 3492 74       		.byte	0x74
 10484 3493 00       		.sleb128 0
 10485 3494 00       		.byte	0
 10486 3495 52       		.uleb128 0x52
 10487 3496 70000000 		.4byte	.LVL445
 10488 349a 26150000 		.4byte	0x1526
ARM GAS  /tmp/ccoI4Tqz.s 			page 185


 10489 349e A9340000 		.4byte	0x34a9
 10490 34a2 30       		.uleb128 0x30
 10491 34a3 01       		.uleb128 0x1
 10492 34a4 50       		.byte	0x50
 10493 34a5 02       		.uleb128 0x2
 10494 34a6 74       		.byte	0x74
 10495 34a7 00       		.sleb128 0
 10496 34a8 00       		.byte	0
 10497 34a9 52       		.uleb128 0x52
 10498 34aa 76000000 		.4byte	.LVL446
 10499 34ae 99160000 		.4byte	0x1699
 10500 34b2 BD340000 		.4byte	0x34bd
 10501 34b6 30       		.uleb128 0x30
 10502 34b7 01       		.uleb128 0x1
 10503 34b8 50       		.byte	0x50
 10504 34b9 02       		.uleb128 0x2
 10505 34ba 74       		.byte	0x74
 10506 34bb 00       		.sleb128 0
 10507 34bc 00       		.byte	0
 10508 34bd 2F       		.uleb128 0x2f
 10509 34be 7C000000 		.4byte	.LVL447
 10510 34c2 E4170000 		.4byte	0x17e4
 10511 34c6 30       		.uleb128 0x30
 10512 34c7 01       		.uleb128 0x1
 10513 34c8 50       		.byte	0x50
 10514 34c9 02       		.uleb128 0x2
 10515 34ca 74       		.byte	0x74
 10516 34cb 00       		.sleb128 0
 10517 34cc 00       		.byte	0
 10518 34cd 00       		.byte	0
 10519 34ce 00       		.byte	0
 10520 34cf 39       		.uleb128 0x39
 10521 34d0 7C100000 		.4byte	0x107c
 10522 34d4 98030000 		.4byte	.LASF236
 10523 34d8 00000000 		.4byte	.LFB61
 10524 34dc 18000000 		.4byte	.LFE61-.LFB61
 10525 34e0 01       		.uleb128 0x1
 10526 34e1 9C       		.byte	0x9c
 10527 34e2 EA340000 		.4byte	0x34ea
 10528 34e6 0F350000 		.4byte	0x350f
 10529 34ea 2B       		.uleb128 0x2b
 10530 34eb 8D100000 		.4byte	0x108d
 10531 34ef E6260000 		.4byte	.LLST278
 10532 34f3 2B       		.uleb128 0x2b
 10533 34f4 96100000 		.4byte	0x1096
 10534 34f8 12270000 		.4byte	.LLST279
 10535 34fc 2B       		.uleb128 0x2b
 10536 34fd A2100000 		.4byte	0x10a2
 10537 3501 33270000 		.4byte	.LLST280
 10538 3505 32       		.uleb128 0x32
 10539 3506 18000000 		.4byte	.LVL453
 10540 350a 1E060000 		.4byte	0x61e
 10541 350e 00       		.byte	0
 10542 350f 39       		.uleb128 0x39
 10543 3510 B4100000 		.4byte	0x10b4
 10544 3514 4D090000 		.4byte	.LASF230
 10545 3518 00000000 		.4byte	.LFB62
ARM GAS  /tmp/ccoI4Tqz.s 			page 186


 10546 351c 18000000 		.4byte	.LFE62-.LFB62
 10547 3520 01       		.uleb128 0x1
 10548 3521 9C       		.byte	0x9c
 10549 3522 2A350000 		.4byte	0x352a
 10550 3526 4F350000 		.4byte	0x354f
 10551 352a 2B       		.uleb128 0x2b
 10552 352b C5100000 		.4byte	0x10c5
 10553 352f 54270000 		.4byte	.LLST281
 10554 3533 2B       		.uleb128 0x2b
 10555 3534 CE100000 		.4byte	0x10ce
 10556 3538 80270000 		.4byte	.LLST282
 10557 353c 2B       		.uleb128 0x2b
 10558 353d DA100000 		.4byte	0x10da
 10559 3541 A1270000 		.4byte	.LLST283
 10560 3545 32       		.uleb128 0x32
 10561 3546 18000000 		.4byte	.LVL459
 10562 354a 1E060000 		.4byte	0x61e
 10563 354e 00       		.byte	0
 10564 354f 39       		.uleb128 0x39
 10565 3550 34110000 		.4byte	0x1134
 10566 3554 E8040000 		.4byte	.LASF232
 10567 3558 00000000 		.4byte	.LFB63
 10568 355c 10000000 		.4byte	.LFE63-.LFB63
 10569 3560 01       		.uleb128 0x1
 10570 3561 9C       		.byte	0x9c
 10571 3562 6A350000 		.4byte	0x356a
 10572 3566 86350000 		.4byte	0x3586
 10573 356a 2B       		.uleb128 0x2b
 10574 356b 45110000 		.4byte	0x1145
 10575 356f C2270000 		.4byte	.LLST284
 10576 3573 2B       		.uleb128 0x2b
 10577 3574 4E110000 		.4byte	0x114e
 10578 3578 EE270000 		.4byte	.LLST285
 10579 357c 32       		.uleb128 0x32
 10580 357d 10000000 		.4byte	.LVL463
 10581 3581 6B060000 		.4byte	0x66b
 10582 3585 00       		.byte	0
 10583 3586 39       		.uleb128 0x39
 10584 3587 91110000 		.4byte	0x1191
 10585 358b A0080000 		.4byte	.LASF234
 10586 358f 00000000 		.4byte	.LFB64
 10587 3593 20000000 		.4byte	.LFE64-.LFB64
 10588 3597 01       		.uleb128 0x1
 10589 3598 9C       		.byte	0x9c
 10590 3599 A1350000 		.4byte	0x35a1
 10591 359d E2350000 		.4byte	0x35e2
 10592 35a1 2B       		.uleb128 0x2b
 10593 35a2 A2110000 		.4byte	0x11a2
 10594 35a6 0F280000 		.4byte	.LLST286
 10595 35aa 2B       		.uleb128 0x2b
 10596 35ab AB110000 		.4byte	0x11ab
 10597 35af 30280000 		.4byte	.LLST287
 10598 35b3 2B       		.uleb128 0x2b
 10599 35b4 B7110000 		.4byte	0x11b7
 10600 35b8 51280000 		.4byte	.LLST288
 10601 35bc 2B       		.uleb128 0x2b
 10602 35bd C3110000 		.4byte	0x11c3
ARM GAS  /tmp/ccoI4Tqz.s 			page 187


 10603 35c1 6F280000 		.4byte	.LLST289
 10604 35c5 2F       		.uleb128 0x2f
 10605 35c6 1C000000 		.4byte	.LVL469
 10606 35ca B6060000 		.4byte	0x6b6
 10607 35ce 30       		.uleb128 0x30
 10608 35cf 01       		.uleb128 0x1
 10609 35d0 53       		.byte	0x53
 10610 35d1 02       		.uleb128 0x2
 10611 35d2 74       		.byte	0x74
 10612 35d3 00       		.sleb128 0
 10613 35d4 30       		.uleb128 0x30
 10614 35d5 01       		.uleb128 0x1
 10615 35d6 52       		.byte	0x52
 10616 35d7 02       		.uleb128 0x2
 10617 35d8 76       		.byte	0x76
 10618 35d9 00       		.sleb128 0
 10619 35da 30       		.uleb128 0x30
 10620 35db 01       		.uleb128 0x1
 10621 35dc 50       		.byte	0x50
 10622 35dd 02       		.uleb128 0x2
 10623 35de 75       		.byte	0x75
 10624 35df 00       		.sleb128 0
 10625 35e0 00       		.byte	0
 10626 35e1 00       		.byte	0
 10627 35e2 39       		.uleb128 0x39
 10628 35e3 1E120000 		.4byte	0x121e
 10629 35e7 5E0D0000 		.4byte	.LASF226
 10630 35eb 00000000 		.4byte	.LFB65
 10631 35ef 10000000 		.4byte	.LFE65-.LFB65
 10632 35f3 01       		.uleb128 0x1
 10633 35f4 9C       		.byte	0x9c
 10634 35f5 FD350000 		.4byte	0x35fd
 10635 35f9 19360000 		.4byte	0x3619
 10636 35fd 2B       		.uleb128 0x2b
 10637 35fe 2F120000 		.4byte	0x122f
 10638 3602 90280000 		.4byte	.LLST290
 10639 3606 2B       		.uleb128 0x2b
 10640 3607 38120000 		.4byte	0x1238
 10641 360b BC280000 		.4byte	.LLST291
 10642 360f 32       		.uleb128 0x32
 10643 3610 10000000 		.4byte	.LVL473
 10644 3614 6B060000 		.4byte	0x66b
 10645 3618 00       		.byte	0
 10646 3619 39       		.uleb128 0x39
 10647 361a 45120000 		.4byte	0x1245
 10648 361e 07060000 		.4byte	.LASF228
 10649 3622 00000000 		.4byte	.LFB66
 10650 3626 20000000 		.4byte	.LFE66-.LFB66
 10651 362a 01       		.uleb128 0x1
 10652 362b 9C       		.byte	0x9c
 10653 362c 34360000 		.4byte	0x3634
 10654 3630 75360000 		.4byte	0x3675
 10655 3634 2B       		.uleb128 0x2b
 10656 3635 56120000 		.4byte	0x1256
 10657 3639 DD280000 		.4byte	.LLST292
 10658 363d 2B       		.uleb128 0x2b
 10659 363e 5F120000 		.4byte	0x125f
ARM GAS  /tmp/ccoI4Tqz.s 			page 188


 10660 3642 FE280000 		.4byte	.LLST293
 10661 3646 2B       		.uleb128 0x2b
 10662 3647 6B120000 		.4byte	0x126b
 10663 364b 1F290000 		.4byte	.LLST294
 10664 364f 2B       		.uleb128 0x2b
 10665 3650 77120000 		.4byte	0x1277
 10666 3654 3D290000 		.4byte	.LLST295
 10667 3658 2F       		.uleb128 0x2f
 10668 3659 1C000000 		.4byte	.LVL479
 10669 365d B6060000 		.4byte	0x6b6
 10670 3661 30       		.uleb128 0x30
 10671 3662 01       		.uleb128 0x1
 10672 3663 53       		.byte	0x53
 10673 3664 02       		.uleb128 0x2
 10674 3665 74       		.byte	0x74
 10675 3666 00       		.sleb128 0
 10676 3667 30       		.uleb128 0x30
 10677 3668 01       		.uleb128 0x1
 10678 3669 52       		.byte	0x52
 10679 366a 02       		.uleb128 0x2
 10680 366b 76       		.byte	0x76
 10681 366c 00       		.sleb128 0
 10682 366d 30       		.uleb128 0x30
 10683 366e 01       		.uleb128 0x1
 10684 366f 50       		.byte	0x50
 10685 3670 02       		.uleb128 0x2
 10686 3671 75       		.byte	0x75
 10687 3672 00       		.sleb128 0
 10688 3673 00       		.byte	0
 10689 3674 00       		.byte	0
 10690 3675 0C       		.uleb128 0xc
 10691 3676 58100000 		.4byte	0x1058
 10692 367a 85360000 		.4byte	0x3685
 10693 367e 0D       		.uleb128 0xd
 10694 367f AE030000 		.4byte	0x3ae
 10695 3683 03       		.byte	0x3
 10696 3684 00       		.byte	0
 10697 3685 54       		.uleb128 0x54
 10698 3686 B3070000 		.4byte	.LASF308
 10699 368a 01       		.byte	0x1
 10700 368b 1E       		.byte	0x1e
 10701 368c 75360000 		.4byte	0x3675
 10702 3690 05       		.uleb128 0x5
 10703 3691 03       		.byte	0x3
 10704 3692 00000000 		.4byte	magSensitivity
 10705 3696 00       		.byte	0
 10706              		.section	.debug_abbrev,"",%progbits
 10707              	.Ldebug_abbrev0:
 10708 0000 01       		.uleb128 0x1
 10709 0001 11       		.uleb128 0x11
 10710 0002 01       		.byte	0x1
 10711 0003 25       		.uleb128 0x25
 10712 0004 0E       		.uleb128 0xe
 10713 0005 13       		.uleb128 0x13
 10714 0006 0B       		.uleb128 0xb
 10715 0007 03       		.uleb128 0x3
 10716 0008 0E       		.uleb128 0xe
ARM GAS  /tmp/ccoI4Tqz.s 			page 189


 10717 0009 1B       		.uleb128 0x1b
 10718 000a 0E       		.uleb128 0xe
 10719 000b 55       		.uleb128 0x55
 10720 000c 17       		.uleb128 0x17
 10721 000d 11       		.uleb128 0x11
 10722 000e 01       		.uleb128 0x1
 10723 000f 10       		.uleb128 0x10
 10724 0010 17       		.uleb128 0x17
 10725 0011 00       		.byte	0
 10726 0012 00       		.byte	0
 10727 0013 02       		.uleb128 0x2
 10728 0014 24       		.uleb128 0x24
 10729 0015 00       		.byte	0
 10730 0016 0B       		.uleb128 0xb
 10731 0017 0B       		.uleb128 0xb
 10732 0018 3E       		.uleb128 0x3e
 10733 0019 0B       		.uleb128 0xb
 10734 001a 03       		.uleb128 0x3
 10735 001b 08       		.uleb128 0x8
 10736 001c 00       		.byte	0
 10737 001d 00       		.byte	0
 10738 001e 03       		.uleb128 0x3
 10739 001f 24       		.uleb128 0x24
 10740 0020 00       		.byte	0
 10741 0021 0B       		.uleb128 0xb
 10742 0022 0B       		.uleb128 0xb
 10743 0023 3E       		.uleb128 0x3e
 10744 0024 0B       		.uleb128 0xb
 10745 0025 03       		.uleb128 0x3
 10746 0026 0E       		.uleb128 0xe
 10747 0027 00       		.byte	0
 10748 0028 00       		.byte	0
 10749 0029 04       		.uleb128 0x4
 10750 002a 16       		.uleb128 0x16
 10751 002b 00       		.byte	0
 10752 002c 03       		.uleb128 0x3
 10753 002d 0E       		.uleb128 0xe
 10754 002e 3A       		.uleb128 0x3a
 10755 002f 0B       		.uleb128 0xb
 10756 0030 3B       		.uleb128 0x3b
 10757 0031 0B       		.uleb128 0xb
 10758 0032 49       		.uleb128 0x49
 10759 0033 13       		.uleb128 0x13
 10760 0034 00       		.byte	0
 10761 0035 00       		.byte	0
 10762 0036 05       		.uleb128 0x5
 10763 0037 04       		.uleb128 0x4
 10764 0038 01       		.byte	0x1
 10765 0039 03       		.uleb128 0x3
 10766 003a 0E       		.uleb128 0xe
 10767 003b 0B       		.uleb128 0xb
 10768 003c 0B       		.uleb128 0xb
 10769 003d 3A       		.uleb128 0x3a
 10770 003e 0B       		.uleb128 0xb
 10771 003f 3B       		.uleb128 0x3b
 10772 0040 0B       		.uleb128 0xb
 10773 0041 01       		.uleb128 0x1
ARM GAS  /tmp/ccoI4Tqz.s 			page 190


 10774 0042 13       		.uleb128 0x13
 10775 0043 00       		.byte	0
 10776 0044 00       		.byte	0
 10777 0045 06       		.uleb128 0x6
 10778 0046 28       		.uleb128 0x28
 10779 0047 00       		.byte	0
 10780 0048 03       		.uleb128 0x3
 10781 0049 0E       		.uleb128 0xe
 10782 004a 1C       		.uleb128 0x1c
 10783 004b 0D       		.uleb128 0xd
 10784 004c 00       		.byte	0
 10785 004d 00       		.byte	0
 10786 004e 07       		.uleb128 0x7
 10787 004f 13       		.uleb128 0x13
 10788 0050 01       		.byte	0x1
 10789 0051 03       		.uleb128 0x3
 10790 0052 0E       		.uleb128 0xe
 10791 0053 0B       		.uleb128 0xb
 10792 0054 0B       		.uleb128 0xb
 10793 0055 3A       		.uleb128 0x3a
 10794 0056 0B       		.uleb128 0xb
 10795 0057 3B       		.uleb128 0x3b
 10796 0058 0B       		.uleb128 0xb
 10797 0059 01       		.uleb128 0x1
 10798 005a 13       		.uleb128 0x13
 10799 005b 00       		.byte	0
 10800 005c 00       		.byte	0
 10801 005d 08       		.uleb128 0x8
 10802 005e 0D       		.uleb128 0xd
 10803 005f 00       		.byte	0
 10804 0060 03       		.uleb128 0x3
 10805 0061 0E       		.uleb128 0xe
 10806 0062 3A       		.uleb128 0x3a
 10807 0063 0B       		.uleb128 0xb
 10808 0064 3B       		.uleb128 0x3b
 10809 0065 0B       		.uleb128 0xb
 10810 0066 49       		.uleb128 0x49
 10811 0067 13       		.uleb128 0x13
 10812 0068 38       		.uleb128 0x38
 10813 0069 0B       		.uleb128 0xb
 10814 006a 00       		.byte	0
 10815 006b 00       		.byte	0
 10816 006c 09       		.uleb128 0x9
 10817 006d 0D       		.uleb128 0xd
 10818 006e 00       		.byte	0
 10819 006f 03       		.uleb128 0x3
 10820 0070 08       		.uleb128 0x8
 10821 0071 3A       		.uleb128 0x3a
 10822 0072 0B       		.uleb128 0xb
 10823 0073 3B       		.uleb128 0x3b
 10824 0074 0B       		.uleb128 0xb
 10825 0075 49       		.uleb128 0x49
 10826 0076 13       		.uleb128 0x13
 10827 0077 38       		.uleb128 0x38
 10828 0078 0B       		.uleb128 0xb
 10829 0079 00       		.byte	0
 10830 007a 00       		.byte	0
ARM GAS  /tmp/ccoI4Tqz.s 			page 191


 10831 007b 0A       		.uleb128 0xa
 10832 007c 0F       		.uleb128 0xf
 10833 007d 00       		.byte	0
 10834 007e 0B       		.uleb128 0xb
 10835 007f 0B       		.uleb128 0xb
 10836 0080 00       		.byte	0
 10837 0081 00       		.byte	0
 10838 0082 0B       		.uleb128 0xb
 10839 0083 35       		.uleb128 0x35
 10840 0084 00       		.byte	0
 10841 0085 49       		.uleb128 0x49
 10842 0086 13       		.uleb128 0x13
 10843 0087 00       		.byte	0
 10844 0088 00       		.byte	0
 10845 0089 0C       		.uleb128 0xc
 10846 008a 01       		.uleb128 0x1
 10847 008b 01       		.byte	0x1
 10848 008c 49       		.uleb128 0x49
 10849 008d 13       		.uleb128 0x13
 10850 008e 01       		.uleb128 0x1
 10851 008f 13       		.uleb128 0x13
 10852 0090 00       		.byte	0
 10853 0091 00       		.byte	0
 10854 0092 0D       		.uleb128 0xd
 10855 0093 21       		.uleb128 0x21
 10856 0094 00       		.byte	0
 10857 0095 49       		.uleb128 0x49
 10858 0096 13       		.uleb128 0x13
 10859 0097 2F       		.uleb128 0x2f
 10860 0098 0B       		.uleb128 0xb
 10861 0099 00       		.byte	0
 10862 009a 00       		.byte	0
 10863 009b 0E       		.uleb128 0xe
 10864 009c 0F       		.uleb128 0xf
 10865 009d 00       		.byte	0
 10866 009e 0B       		.uleb128 0xb
 10867 009f 0B       		.uleb128 0xb
 10868 00a0 49       		.uleb128 0x49
 10869 00a1 13       		.uleb128 0x13
 10870 00a2 00       		.byte	0
 10871 00a3 00       		.byte	0
 10872 00a4 0F       		.uleb128 0xf
 10873 00a5 13       		.uleb128 0x13
 10874 00a6 01       		.byte	0x1
 10875 00a7 0B       		.uleb128 0xb
 10876 00a8 05       		.uleb128 0x5
 10877 00a9 3A       		.uleb128 0x3a
 10878 00aa 0B       		.uleb128 0xb
 10879 00ab 3B       		.uleb128 0x3b
 10880 00ac 05       		.uleb128 0x5
 10881 00ad 6E       		.uleb128 0x6e
 10882 00ae 0E       		.uleb128 0xe
 10883 00af 01       		.uleb128 0x1
 10884 00b0 13       		.uleb128 0x13
 10885 00b1 00       		.byte	0
 10886 00b2 00       		.byte	0
 10887 00b3 10       		.uleb128 0x10
ARM GAS  /tmp/ccoI4Tqz.s 			page 192


 10888 00b4 0D       		.uleb128 0xd
 10889 00b5 00       		.byte	0
 10890 00b6 03       		.uleb128 0x3
 10891 00b7 0E       		.uleb128 0xe
 10892 00b8 3A       		.uleb128 0x3a
 10893 00b9 0B       		.uleb128 0xb
 10894 00ba 3B       		.uleb128 0x3b
 10895 00bb 05       		.uleb128 0x5
 10896 00bc 49       		.uleb128 0x49
 10897 00bd 13       		.uleb128 0x13
 10898 00be 38       		.uleb128 0x38
 10899 00bf 0B       		.uleb128 0xb
 10900 00c0 00       		.byte	0
 10901 00c1 00       		.byte	0
 10902 00c2 11       		.uleb128 0x11
 10903 00c3 0D       		.uleb128 0xd
 10904 00c4 00       		.byte	0
 10905 00c5 03       		.uleb128 0x3
 10906 00c6 0E       		.uleb128 0xe
 10907 00c7 3A       		.uleb128 0x3a
 10908 00c8 0B       		.uleb128 0xb
 10909 00c9 3B       		.uleb128 0x3b
 10910 00ca 05       		.uleb128 0x5
 10911 00cb 49       		.uleb128 0x49
 10912 00cc 13       		.uleb128 0x13
 10913 00cd 38       		.uleb128 0x38
 10914 00ce 05       		.uleb128 0x5
 10915 00cf 00       		.byte	0
 10916 00d0 00       		.byte	0
 10917 00d1 12       		.uleb128 0x12
 10918 00d2 16       		.uleb128 0x16
 10919 00d3 00       		.byte	0
 10920 00d4 03       		.uleb128 0x3
 10921 00d5 08       		.uleb128 0x8
 10922 00d6 3A       		.uleb128 0x3a
 10923 00d7 0B       		.uleb128 0xb
 10924 00d8 3B       		.uleb128 0x3b
 10925 00d9 05       		.uleb128 0x5
 10926 00da 49       		.uleb128 0x49
 10927 00db 13       		.uleb128 0x13
 10928 00dc 00       		.byte	0
 10929 00dd 00       		.byte	0
 10930 00de 13       		.uleb128 0x13
 10931 00df 39       		.uleb128 0x39
 10932 00e0 01       		.byte	0x1
 10933 00e1 03       		.uleb128 0x3
 10934 00e2 0E       		.uleb128 0xe
 10935 00e3 3A       		.uleb128 0x3a
 10936 00e4 0B       		.uleb128 0xb
 10937 00e5 3B       		.uleb128 0x3b
 10938 00e6 0B       		.uleb128 0xb
 10939 00e7 01       		.uleb128 0x1
 10940 00e8 13       		.uleb128 0x13
 10941 00e9 00       		.byte	0
 10942 00ea 00       		.byte	0
 10943 00eb 14       		.uleb128 0x14
 10944 00ec 02       		.uleb128 0x2
ARM GAS  /tmp/ccoI4Tqz.s 			page 193


 10945 00ed 01       		.byte	0x1
 10946 00ee 03       		.uleb128 0x3
 10947 00ef 08       		.uleb128 0x8
 10948 00f0 0B       		.uleb128 0xb
 10949 00f1 0B       		.uleb128 0xb
 10950 00f2 3A       		.uleb128 0x3a
 10951 00f3 0B       		.uleb128 0xb
 10952 00f4 3B       		.uleb128 0x3b
 10953 00f5 0B       		.uleb128 0xb
 10954 00f6 00       		.byte	0
 10955 00f7 00       		.byte	0
 10956 00f8 15       		.uleb128 0x15
 10957 00f9 2E       		.uleb128 0x2e
 10958 00fa 01       		.byte	0x1
 10959 00fb 3F       		.uleb128 0x3f
 10960 00fc 19       		.uleb128 0x19
 10961 00fd 03       		.uleb128 0x3
 10962 00fe 0E       		.uleb128 0xe
 10963 00ff 3A       		.uleb128 0x3a
 10964 0100 0B       		.uleb128 0xb
 10965 0101 3B       		.uleb128 0x3b
 10966 0102 0B       		.uleb128 0xb
 10967 0103 6E       		.uleb128 0x6e
 10968 0104 0E       		.uleb128 0xe
 10969 0105 32       		.uleb128 0x32
 10970 0106 0B       		.uleb128 0xb
 10971 0107 3C       		.uleb128 0x3c
 10972 0108 19       		.uleb128 0x19
 10973 0109 64       		.uleb128 0x64
 10974 010a 13       		.uleb128 0x13
 10975 010b 01       		.uleb128 0x1
 10976 010c 13       		.uleb128 0x13
 10977 010d 00       		.byte	0
 10978 010e 00       		.byte	0
 10979 010f 16       		.uleb128 0x16
 10980 0110 05       		.uleb128 0x5
 10981 0111 00       		.byte	0
 10982 0112 49       		.uleb128 0x49
 10983 0113 13       		.uleb128 0x13
 10984 0114 34       		.uleb128 0x34
 10985 0115 19       		.uleb128 0x19
 10986 0116 00       		.byte	0
 10987 0117 00       		.byte	0
 10988 0118 17       		.uleb128 0x17
 10989 0119 05       		.uleb128 0x5
 10990 011a 00       		.byte	0
 10991 011b 49       		.uleb128 0x49
 10992 011c 13       		.uleb128 0x13
 10993 011d 00       		.byte	0
 10994 011e 00       		.byte	0
 10995 011f 18       		.uleb128 0x18
 10996 0120 2E       		.uleb128 0x2e
 10997 0121 01       		.byte	0x1
 10998 0122 3F       		.uleb128 0x3f
 10999 0123 19       		.uleb128 0x19
 11000 0124 03       		.uleb128 0x3
 11001 0125 0E       		.uleb128 0xe
ARM GAS  /tmp/ccoI4Tqz.s 			page 194


 11002 0126 3A       		.uleb128 0x3a
 11003 0127 0B       		.uleb128 0xb
 11004 0128 3B       		.uleb128 0x3b
 11005 0129 0B       		.uleb128 0xb
 11006 012a 6E       		.uleb128 0x6e
 11007 012b 0E       		.uleb128 0xe
 11008 012c 49       		.uleb128 0x49
 11009 012d 13       		.uleb128 0x13
 11010 012e 32       		.uleb128 0x32
 11011 012f 0B       		.uleb128 0xb
 11012 0130 3C       		.uleb128 0x3c
 11013 0131 19       		.uleb128 0x19
 11014 0132 64       		.uleb128 0x64
 11015 0133 13       		.uleb128 0x13
 11016 0134 01       		.uleb128 0x1
 11017 0135 13       		.uleb128 0x13
 11018 0136 00       		.byte	0
 11019 0137 00       		.byte	0
 11020 0138 19       		.uleb128 0x19
 11021 0139 2E       		.uleb128 0x2e
 11022 013a 01       		.byte	0x1
 11023 013b 3F       		.uleb128 0x3f
 11024 013c 19       		.uleb128 0x19
 11025 013d 03       		.uleb128 0x3
 11026 013e 0E       		.uleb128 0xe
 11027 013f 3A       		.uleb128 0x3a
 11028 0140 0B       		.uleb128 0xb
 11029 0141 3B       		.uleb128 0x3b
 11030 0142 0B       		.uleb128 0xb
 11031 0143 6E       		.uleb128 0x6e
 11032 0144 0E       		.uleb128 0xe
 11033 0145 49       		.uleb128 0x49
 11034 0146 13       		.uleb128 0x13
 11035 0147 32       		.uleb128 0x32
 11036 0148 0B       		.uleb128 0xb
 11037 0149 3C       		.uleb128 0x3c
 11038 014a 19       		.uleb128 0x19
 11039 014b 64       		.uleb128 0x64
 11040 014c 13       		.uleb128 0x13
 11041 014d 00       		.byte	0
 11042 014e 00       		.byte	0
 11043 014f 1A       		.uleb128 0x1a
 11044 0150 02       		.uleb128 0x2
 11045 0151 01       		.byte	0x1
 11046 0152 03       		.uleb128 0x3
 11047 0153 0E       		.uleb128 0xe
 11048 0154 0B       		.uleb128 0xb
 11049 0155 0B       		.uleb128 0xb
 11050 0156 3A       		.uleb128 0x3a
 11051 0157 0B       		.uleb128 0xb
 11052 0158 3B       		.uleb128 0x3b
 11053 0159 0B       		.uleb128 0xb
 11054 015a 01       		.uleb128 0x1
 11055 015b 13       		.uleb128 0x13
 11056 015c 00       		.byte	0
 11057 015d 00       		.byte	0
 11058 015e 1B       		.uleb128 0x1b
ARM GAS  /tmp/ccoI4Tqz.s 			page 195


 11059 015f 0D       		.uleb128 0xd
 11060 0160 00       		.byte	0
 11061 0161 03       		.uleb128 0x3
 11062 0162 0E       		.uleb128 0xe
 11063 0163 3A       		.uleb128 0x3a
 11064 0164 0B       		.uleb128 0xb
 11065 0165 3B       		.uleb128 0x3b
 11066 0166 0B       		.uleb128 0xb
 11067 0167 49       		.uleb128 0x49
 11068 0168 13       		.uleb128 0x13
 11069 0169 38       		.uleb128 0x38
 11070 016a 0B       		.uleb128 0xb
 11071 016b 32       		.uleb128 0x32
 11072 016c 0B       		.uleb128 0xb
 11073 016d 00       		.byte	0
 11074 016e 00       		.byte	0
 11075 016f 1C       		.uleb128 0x1c
 11076 0170 0D       		.uleb128 0xd
 11077 0171 00       		.byte	0
 11078 0172 03       		.uleb128 0x3
 11079 0173 08       		.uleb128 0x8
 11080 0174 3A       		.uleb128 0x3a
 11081 0175 0B       		.uleb128 0xb
 11082 0176 3B       		.uleb128 0x3b
 11083 0177 0B       		.uleb128 0xb
 11084 0178 49       		.uleb128 0x49
 11085 0179 13       		.uleb128 0x13
 11086 017a 38       		.uleb128 0x38
 11087 017b 0B       		.uleb128 0xb
 11088 017c 32       		.uleb128 0x32
 11089 017d 0B       		.uleb128 0xb
 11090 017e 00       		.byte	0
 11091 017f 00       		.byte	0
 11092 0180 1D       		.uleb128 0x1d
 11093 0181 0D       		.uleb128 0xd
 11094 0182 00       		.byte	0
 11095 0183 03       		.uleb128 0x3
 11096 0184 0E       		.uleb128 0xe
 11097 0185 3A       		.uleb128 0x3a
 11098 0186 0B       		.uleb128 0xb
 11099 0187 3B       		.uleb128 0x3b
 11100 0188 05       		.uleb128 0x5
 11101 0189 49       		.uleb128 0x49
 11102 018a 13       		.uleb128 0x13
 11103 018b 38       		.uleb128 0x38
 11104 018c 0B       		.uleb128 0xb
 11105 018d 32       		.uleb128 0x32
 11106 018e 0B       		.uleb128 0xb
 11107 018f 00       		.byte	0
 11108 0190 00       		.byte	0
 11109 0191 1E       		.uleb128 0x1e
 11110 0192 2E       		.uleb128 0x2e
 11111 0193 01       		.byte	0x1
 11112 0194 3F       		.uleb128 0x3f
 11113 0195 19       		.uleb128 0x19
 11114 0196 03       		.uleb128 0x3
 11115 0197 0E       		.uleb128 0xe
ARM GAS  /tmp/ccoI4Tqz.s 			page 196


 11116 0198 3A       		.uleb128 0x3a
 11117 0199 0B       		.uleb128 0xb
 11118 019a 3B       		.uleb128 0x3b
 11119 019b 0B       		.uleb128 0xb
 11120 019c 49       		.uleb128 0x49
 11121 019d 13       		.uleb128 0x13
 11122 019e 32       		.uleb128 0x32
 11123 019f 0B       		.uleb128 0xb
 11124 01a0 3C       		.uleb128 0x3c
 11125 01a1 19       		.uleb128 0x19
 11126 01a2 64       		.uleb128 0x64
 11127 01a3 13       		.uleb128 0x13
 11128 01a4 01       		.uleb128 0x1
 11129 01a5 13       		.uleb128 0x13
 11130 01a6 00       		.byte	0
 11131 01a7 00       		.byte	0
 11132 01a8 1F       		.uleb128 0x1f
 11133 01a9 2E       		.uleb128 0x2e
 11134 01aa 01       		.byte	0x1
 11135 01ab 3F       		.uleb128 0x3f
 11136 01ac 19       		.uleb128 0x19
 11137 01ad 03       		.uleb128 0x3
 11138 01ae 0E       		.uleb128 0xe
 11139 01af 3A       		.uleb128 0x3a
 11140 01b0 0B       		.uleb128 0xb
 11141 01b1 3B       		.uleb128 0x3b
 11142 01b2 05       		.uleb128 0x5
 11143 01b3 6E       		.uleb128 0x6e
 11144 01b4 0E       		.uleb128 0xe
 11145 01b5 32       		.uleb128 0x32
 11146 01b6 0B       		.uleb128 0xb
 11147 01b7 3C       		.uleb128 0x3c
 11148 01b8 19       		.uleb128 0x19
 11149 01b9 64       		.uleb128 0x64
 11150 01ba 13       		.uleb128 0x13
 11151 01bb 01       		.uleb128 0x1
 11152 01bc 13       		.uleb128 0x13
 11153 01bd 00       		.byte	0
 11154 01be 00       		.byte	0
 11155 01bf 20       		.uleb128 0x20
 11156 01c0 2E       		.uleb128 0x2e
 11157 01c1 01       		.byte	0x1
 11158 01c2 3F       		.uleb128 0x3f
 11159 01c3 19       		.uleb128 0x19
 11160 01c4 03       		.uleb128 0x3
 11161 01c5 0E       		.uleb128 0xe
 11162 01c6 3A       		.uleb128 0x3a
 11163 01c7 0B       		.uleb128 0xb
 11164 01c8 3B       		.uleb128 0x3b
 11165 01c9 05       		.uleb128 0x5
 11166 01ca 6E       		.uleb128 0x6e
 11167 01cb 0E       		.uleb128 0xe
 11168 01cc 49       		.uleb128 0x49
 11169 01cd 13       		.uleb128 0x13
 11170 01ce 32       		.uleb128 0x32
 11171 01cf 0B       		.uleb128 0xb
 11172 01d0 3C       		.uleb128 0x3c
ARM GAS  /tmp/ccoI4Tqz.s 			page 197


 11173 01d1 19       		.uleb128 0x19
 11174 01d2 64       		.uleb128 0x64
 11175 01d3 13       		.uleb128 0x13
 11176 01d4 01       		.uleb128 0x1
 11177 01d5 13       		.uleb128 0x13
 11178 01d6 00       		.byte	0
 11179 01d7 00       		.byte	0
 11180 01d8 21       		.uleb128 0x21
 11181 01d9 2E       		.uleb128 0x2e
 11182 01da 01       		.byte	0x1
 11183 01db 3F       		.uleb128 0x3f
 11184 01dc 19       		.uleb128 0x19
 11185 01dd 03       		.uleb128 0x3
 11186 01de 0E       		.uleb128 0xe
 11187 01df 3A       		.uleb128 0x3a
 11188 01e0 0B       		.uleb128 0xb
 11189 01e1 3B       		.uleb128 0x3b
 11190 01e2 05       		.uleb128 0x5
 11191 01e3 6E       		.uleb128 0x6e
 11192 01e4 0E       		.uleb128 0xe
 11193 01e5 49       		.uleb128 0x49
 11194 01e6 13       		.uleb128 0x13
 11195 01e7 32       		.uleb128 0x32
 11196 01e8 0B       		.uleb128 0xb
 11197 01e9 3C       		.uleb128 0x3c
 11198 01ea 19       		.uleb128 0x19
 11199 01eb 64       		.uleb128 0x64
 11200 01ec 13       		.uleb128 0x13
 11201 01ed 00       		.byte	0
 11202 01ee 00       		.byte	0
 11203 01ef 22       		.uleb128 0x22
 11204 01f0 2E       		.uleb128 0x2e
 11205 01f1 01       		.byte	0x1
 11206 01f2 47       		.uleb128 0x47
 11207 01f3 13       		.uleb128 0x13
 11208 01f4 3A       		.uleb128 0x3a
 11209 01f5 0B       		.uleb128 0xb
 11210 01f6 3B       		.uleb128 0x3b
 11211 01f7 05       		.uleb128 0x5
 11212 01f8 20       		.uleb128 0x20
 11213 01f9 0B       		.uleb128 0xb
 11214 01fa 64       		.uleb128 0x64
 11215 01fb 13       		.uleb128 0x13
 11216 01fc 01       		.uleb128 0x1
 11217 01fd 13       		.uleb128 0x13
 11218 01fe 00       		.byte	0
 11219 01ff 00       		.byte	0
 11220 0200 23       		.uleb128 0x23
 11221 0201 05       		.uleb128 0x5
 11222 0202 00       		.byte	0
 11223 0203 03       		.uleb128 0x3
 11224 0204 0E       		.uleb128 0xe
 11225 0205 49       		.uleb128 0x49
 11226 0206 13       		.uleb128 0x13
 11227 0207 34       		.uleb128 0x34
 11228 0208 19       		.uleb128 0x19
 11229 0209 00       		.byte	0
ARM GAS  /tmp/ccoI4Tqz.s 			page 198


 11230 020a 00       		.byte	0
 11231 020b 24       		.uleb128 0x24
 11232 020c 05       		.uleb128 0x5
 11233 020d 00       		.byte	0
 11234 020e 03       		.uleb128 0x3
 11235 020f 0E       		.uleb128 0xe
 11236 0210 3A       		.uleb128 0x3a
 11237 0211 0B       		.uleb128 0xb
 11238 0212 3B       		.uleb128 0x3b
 11239 0213 05       		.uleb128 0x5
 11240 0214 49       		.uleb128 0x49
 11241 0215 13       		.uleb128 0x13
 11242 0216 00       		.byte	0
 11243 0217 00       		.byte	0
 11244 0218 25       		.uleb128 0x25
 11245 0219 26       		.uleb128 0x26
 11246 021a 00       		.byte	0
 11247 021b 49       		.uleb128 0x49
 11248 021c 13       		.uleb128 0x13
 11249 021d 00       		.byte	0
 11250 021e 00       		.byte	0
 11251 021f 26       		.uleb128 0x26
 11252 0220 0B       		.uleb128 0xb
 11253 0221 01       		.byte	0x1
 11254 0222 00       		.byte	0
 11255 0223 00       		.byte	0
 11256 0224 27       		.uleb128 0x27
 11257 0225 34       		.uleb128 0x34
 11258 0226 00       		.byte	0
 11259 0227 03       		.uleb128 0x3
 11260 0228 08       		.uleb128 0x8
 11261 0229 3A       		.uleb128 0x3a
 11262 022a 0B       		.uleb128 0xb
 11263 022b 3B       		.uleb128 0x3b
 11264 022c 05       		.uleb128 0x5
 11265 022d 49       		.uleb128 0x49
 11266 022e 13       		.uleb128 0x13
 11267 022f 00       		.byte	0
 11268 0230 00       		.byte	0
 11269 0231 28       		.uleb128 0x28
 11270 0232 34       		.uleb128 0x34
 11271 0233 00       		.byte	0
 11272 0234 03       		.uleb128 0x3
 11273 0235 0E       		.uleb128 0xe
 11274 0236 3A       		.uleb128 0x3a
 11275 0237 0B       		.uleb128 0xb
 11276 0238 3B       		.uleb128 0x3b
 11277 0239 05       		.uleb128 0x5
 11278 023a 49       		.uleb128 0x49
 11279 023b 13       		.uleb128 0x13
 11280 023c 00       		.byte	0
 11281 023d 00       		.byte	0
 11282 023e 29       		.uleb128 0x29
 11283 023f 05       		.uleb128 0x5
 11284 0240 00       		.byte	0
 11285 0241 03       		.uleb128 0x3
 11286 0242 08       		.uleb128 0x8
ARM GAS  /tmp/ccoI4Tqz.s 			page 199


 11287 0243 3A       		.uleb128 0x3a
 11288 0244 0B       		.uleb128 0xb
 11289 0245 3B       		.uleb128 0x3b
 11290 0246 05       		.uleb128 0x5
 11291 0247 49       		.uleb128 0x49
 11292 0248 13       		.uleb128 0x13
 11293 0249 00       		.byte	0
 11294 024a 00       		.byte	0
 11295 024b 2A       		.uleb128 0x2a
 11296 024c 2E       		.uleb128 0x2e
 11297 024d 01       		.byte	0x1
 11298 024e 31       		.uleb128 0x31
 11299 024f 13       		.uleb128 0x13
 11300 0250 11       		.uleb128 0x11
 11301 0251 01       		.uleb128 0x1
 11302 0252 12       		.uleb128 0x12
 11303 0253 06       		.uleb128 0x6
 11304 0254 40       		.uleb128 0x40
 11305 0255 18       		.uleb128 0x18
 11306 0256 64       		.uleb128 0x64
 11307 0257 13       		.uleb128 0x13
 11308 0258 9742     		.uleb128 0x2117
 11309 025a 19       		.uleb128 0x19
 11310 025b 01       		.uleb128 0x1
 11311 025c 13       		.uleb128 0x13
 11312 025d 00       		.byte	0
 11313 025e 00       		.byte	0
 11314 025f 2B       		.uleb128 0x2b
 11315 0260 05       		.uleb128 0x5
 11316 0261 00       		.byte	0
 11317 0262 31       		.uleb128 0x31
 11318 0263 13       		.uleb128 0x13
 11319 0264 02       		.uleb128 0x2
 11320 0265 17       		.uleb128 0x17
 11321 0266 00       		.byte	0
 11322 0267 00       		.byte	0
 11323 0268 2C       		.uleb128 0x2c
 11324 0269 0B       		.uleb128 0xb
 11325 026a 01       		.byte	0x1
 11326 026b 55       		.uleb128 0x55
 11327 026c 17       		.uleb128 0x17
 11328 026d 00       		.byte	0
 11329 026e 00       		.byte	0
 11330 026f 2D       		.uleb128 0x2d
 11331 0270 34       		.uleb128 0x34
 11332 0271 00       		.byte	0
 11333 0272 31       		.uleb128 0x31
 11334 0273 13       		.uleb128 0x13
 11335 0274 02       		.uleb128 0x2
 11336 0275 17       		.uleb128 0x17
 11337 0276 00       		.byte	0
 11338 0277 00       		.byte	0
 11339 0278 2E       		.uleb128 0x2e
 11340 0279 1D       		.uleb128 0x1d
 11341 027a 01       		.byte	0x1
 11342 027b 31       		.uleb128 0x31
 11343 027c 13       		.uleb128 0x13
ARM GAS  /tmp/ccoI4Tqz.s 			page 200


 11344 027d 11       		.uleb128 0x11
 11345 027e 01       		.uleb128 0x1
 11346 027f 12       		.uleb128 0x12
 11347 0280 06       		.uleb128 0x6
 11348 0281 58       		.uleb128 0x58
 11349 0282 0B       		.uleb128 0xb
 11350 0283 59       		.uleb128 0x59
 11351 0284 05       		.uleb128 0x5
 11352 0285 01       		.uleb128 0x1
 11353 0286 13       		.uleb128 0x13
 11354 0287 00       		.byte	0
 11355 0288 00       		.byte	0
 11356 0289 2F       		.uleb128 0x2f
 11357 028a 898201   		.uleb128 0x4109
 11358 028d 01       		.byte	0x1
 11359 028e 11       		.uleb128 0x11
 11360 028f 01       		.uleb128 0x1
 11361 0290 31       		.uleb128 0x31
 11362 0291 13       		.uleb128 0x13
 11363 0292 00       		.byte	0
 11364 0293 00       		.byte	0
 11365 0294 30       		.uleb128 0x30
 11366 0295 8A8201   		.uleb128 0x410a
 11367 0298 00       		.byte	0
 11368 0299 02       		.uleb128 0x2
 11369 029a 18       		.uleb128 0x18
 11370 029b 9142     		.uleb128 0x2111
 11371 029d 18       		.uleb128 0x18
 11372 029e 00       		.byte	0
 11373 029f 00       		.byte	0
 11374 02a0 31       		.uleb128 0x31
 11375 02a1 1D       		.uleb128 0x1d
 11376 02a2 01       		.byte	0x1
 11377 02a3 31       		.uleb128 0x31
 11378 02a4 13       		.uleb128 0x13
 11379 02a5 52       		.uleb128 0x52
 11380 02a6 01       		.uleb128 0x1
 11381 02a7 55       		.uleb128 0x55
 11382 02a8 17       		.uleb128 0x17
 11383 02a9 58       		.uleb128 0x58
 11384 02aa 0B       		.uleb128 0xb
 11385 02ab 59       		.uleb128 0x59
 11386 02ac 05       		.uleb128 0x5
 11387 02ad 00       		.byte	0
 11388 02ae 00       		.byte	0
 11389 02af 32       		.uleb128 0x32
 11390 02b0 898201   		.uleb128 0x4109
 11391 02b3 00       		.byte	0
 11392 02b4 11       		.uleb128 0x11
 11393 02b5 01       		.uleb128 0x1
 11394 02b6 9542     		.uleb128 0x2115
 11395 02b8 19       		.uleb128 0x19
 11396 02b9 31       		.uleb128 0x31
 11397 02ba 13       		.uleb128 0x13
 11398 02bb 00       		.byte	0
 11399 02bc 00       		.byte	0
 11400 02bd 33       		.uleb128 0x33
ARM GAS  /tmp/ccoI4Tqz.s 			page 201


 11401 02be 2E       		.uleb128 0x2e
 11402 02bf 01       		.byte	0x1
 11403 02c0 47       		.uleb128 0x47
 11404 02c1 13       		.uleb128 0x13
 11405 02c2 3A       		.uleb128 0x3a
 11406 02c3 0B       		.uleb128 0xb
 11407 02c4 3B       		.uleb128 0x3b
 11408 02c5 0B       		.uleb128 0xb
 11409 02c6 11       		.uleb128 0x11
 11410 02c7 01       		.uleb128 0x1
 11411 02c8 12       		.uleb128 0x12
 11412 02c9 06       		.uleb128 0x6
 11413 02ca 40       		.uleb128 0x40
 11414 02cb 18       		.uleb128 0x18
 11415 02cc 64       		.uleb128 0x64
 11416 02cd 13       		.uleb128 0x13
 11417 02ce 9742     		.uleb128 0x2117
 11418 02d0 19       		.uleb128 0x19
 11419 02d1 01       		.uleb128 0x1
 11420 02d2 13       		.uleb128 0x13
 11421 02d3 00       		.byte	0
 11422 02d4 00       		.byte	0
 11423 02d5 34       		.uleb128 0x34
 11424 02d6 05       		.uleb128 0x5
 11425 02d7 00       		.byte	0
 11426 02d8 03       		.uleb128 0x3
 11427 02d9 0E       		.uleb128 0xe
 11428 02da 49       		.uleb128 0x49
 11429 02db 13       		.uleb128 0x13
 11430 02dc 34       		.uleb128 0x34
 11431 02dd 19       		.uleb128 0x19
 11432 02de 02       		.uleb128 0x2
 11433 02df 18       		.uleb128 0x18
 11434 02e0 00       		.byte	0
 11435 02e1 00       		.byte	0
 11436 02e2 35       		.uleb128 0x35
 11437 02e3 05       		.uleb128 0x5
 11438 02e4 00       		.byte	0
 11439 02e5 03       		.uleb128 0x3
 11440 02e6 0E       		.uleb128 0xe
 11441 02e7 3A       		.uleb128 0x3a
 11442 02e8 0B       		.uleb128 0xb
 11443 02e9 3B       		.uleb128 0x3b
 11444 02ea 0B       		.uleb128 0xb
 11445 02eb 49       		.uleb128 0x49
 11446 02ec 13       		.uleb128 0x13
 11447 02ed 02       		.uleb128 0x2
 11448 02ee 17       		.uleb128 0x17
 11449 02ef 00       		.byte	0
 11450 02f0 00       		.byte	0
 11451 02f1 36       		.uleb128 0x36
 11452 02f2 34       		.uleb128 0x34
 11453 02f3 00       		.byte	0
 11454 02f4 03       		.uleb128 0x3
 11455 02f5 08       		.uleb128 0x8
 11456 02f6 3A       		.uleb128 0x3a
 11457 02f7 0B       		.uleb128 0xb
ARM GAS  /tmp/ccoI4Tqz.s 			page 202


 11458 02f8 3B       		.uleb128 0x3b
 11459 02f9 0B       		.uleb128 0xb
 11460 02fa 49       		.uleb128 0x49
 11461 02fb 13       		.uleb128 0x13
 11462 02fc 02       		.uleb128 0x2
 11463 02fd 17       		.uleb128 0x17
 11464 02fe 00       		.byte	0
 11465 02ff 00       		.byte	0
 11466 0300 37       		.uleb128 0x37
 11467 0301 2E       		.uleb128 0x2e
 11468 0302 01       		.byte	0x1
 11469 0303 47       		.uleb128 0x47
 11470 0304 13       		.uleb128 0x13
 11471 0305 3A       		.uleb128 0x3a
 11472 0306 0B       		.uleb128 0xb
 11473 0307 3B       		.uleb128 0x3b
 11474 0308 0B       		.uleb128 0xb
 11475 0309 20       		.uleb128 0x20
 11476 030a 0B       		.uleb128 0xb
 11477 030b 64       		.uleb128 0x64
 11478 030c 13       		.uleb128 0x13
 11479 030d 01       		.uleb128 0x1
 11480 030e 13       		.uleb128 0x13
 11481 030f 00       		.byte	0
 11482 0310 00       		.byte	0
 11483 0311 38       		.uleb128 0x38
 11484 0312 05       		.uleb128 0x5
 11485 0313 00       		.byte	0
 11486 0314 03       		.uleb128 0x3
 11487 0315 08       		.uleb128 0x8
 11488 0316 3A       		.uleb128 0x3a
 11489 0317 0B       		.uleb128 0xb
 11490 0318 3B       		.uleb128 0x3b
 11491 0319 0B       		.uleb128 0xb
 11492 031a 49       		.uleb128 0x49
 11493 031b 13       		.uleb128 0x13
 11494 031c 00       		.byte	0
 11495 031d 00       		.byte	0
 11496 031e 39       		.uleb128 0x39
 11497 031f 2E       		.uleb128 0x2e
 11498 0320 01       		.byte	0x1
 11499 0321 31       		.uleb128 0x31
 11500 0322 13       		.uleb128 0x13
 11501 0323 6E       		.uleb128 0x6e
 11502 0324 0E       		.uleb128 0xe
 11503 0325 11       		.uleb128 0x11
 11504 0326 01       		.uleb128 0x1
 11505 0327 12       		.uleb128 0x12
 11506 0328 06       		.uleb128 0x6
 11507 0329 40       		.uleb128 0x40
 11508 032a 18       		.uleb128 0x18
 11509 032b 64       		.uleb128 0x64
 11510 032c 13       		.uleb128 0x13
 11511 032d 9742     		.uleb128 0x2117
 11512 032f 19       		.uleb128 0x19
 11513 0330 01       		.uleb128 0x1
 11514 0331 13       		.uleb128 0x13
ARM GAS  /tmp/ccoI4Tqz.s 			page 203


 11515 0332 00       		.byte	0
 11516 0333 00       		.byte	0
 11517 0334 3A       		.uleb128 0x3a
 11518 0335 05       		.uleb128 0x5
 11519 0336 00       		.byte	0
 11520 0337 03       		.uleb128 0x3
 11521 0338 0E       		.uleb128 0xe
 11522 0339 3A       		.uleb128 0x3a
 11523 033a 0B       		.uleb128 0xb
 11524 033b 3B       		.uleb128 0x3b
 11525 033c 0B       		.uleb128 0xb
 11526 033d 49       		.uleb128 0x49
 11527 033e 13       		.uleb128 0x13
 11528 033f 00       		.byte	0
 11529 0340 00       		.byte	0
 11530 0341 3B       		.uleb128 0x3b
 11531 0342 05       		.uleb128 0x5
 11532 0343 00       		.byte	0
 11533 0344 31       		.uleb128 0x31
 11534 0345 13       		.uleb128 0x13
 11535 0346 02       		.uleb128 0x2
 11536 0347 18       		.uleb128 0x18
 11537 0348 00       		.byte	0
 11538 0349 00       		.byte	0
 11539 034a 3C       		.uleb128 0x3c
 11540 034b 05       		.uleb128 0x5
 11541 034c 00       		.byte	0
 11542 034d 03       		.uleb128 0x3
 11543 034e 0E       		.uleb128 0xe
 11544 034f 49       		.uleb128 0x49
 11545 0350 13       		.uleb128 0x13
 11546 0351 34       		.uleb128 0x34
 11547 0352 19       		.uleb128 0x19
 11548 0353 02       		.uleb128 0x2
 11549 0354 17       		.uleb128 0x17
 11550 0355 00       		.byte	0
 11551 0356 00       		.byte	0
 11552 0357 3D       		.uleb128 0x3d
 11553 0358 34       		.uleb128 0x34
 11554 0359 00       		.byte	0
 11555 035a 03       		.uleb128 0x3
 11556 035b 0E       		.uleb128 0xe
 11557 035c 3A       		.uleb128 0x3a
 11558 035d 0B       		.uleb128 0xb
 11559 035e 3B       		.uleb128 0x3b
 11560 035f 0B       		.uleb128 0xb
 11561 0360 49       		.uleb128 0x49
 11562 0361 13       		.uleb128 0x13
 11563 0362 02       		.uleb128 0x2
 11564 0363 17       		.uleb128 0x17
 11565 0364 00       		.byte	0
 11566 0365 00       		.byte	0
 11567 0366 3E       		.uleb128 0x3e
 11568 0367 1D       		.uleb128 0x1d
 11569 0368 01       		.byte	0x1
 11570 0369 31       		.uleb128 0x31
 11571 036a 13       		.uleb128 0x13
ARM GAS  /tmp/ccoI4Tqz.s 			page 204


 11572 036b 52       		.uleb128 0x52
 11573 036c 01       		.uleb128 0x1
 11574 036d 55       		.uleb128 0x55
 11575 036e 17       		.uleb128 0x17
 11576 036f 58       		.uleb128 0x58
 11577 0370 0B       		.uleb128 0xb
 11578 0371 59       		.uleb128 0x59
 11579 0372 0B       		.uleb128 0xb
 11580 0373 01       		.uleb128 0x1
 11581 0374 13       		.uleb128 0x13
 11582 0375 00       		.byte	0
 11583 0376 00       		.byte	0
 11584 0377 3F       		.uleb128 0x3f
 11585 0378 1D       		.uleb128 0x1d
 11586 0379 01       		.byte	0x1
 11587 037a 31       		.uleb128 0x31
 11588 037b 13       		.uleb128 0x13
 11589 037c 11       		.uleb128 0x11
 11590 037d 01       		.uleb128 0x1
 11591 037e 12       		.uleb128 0x12
 11592 037f 06       		.uleb128 0x6
 11593 0380 58       		.uleb128 0x58
 11594 0381 0B       		.uleb128 0xb
 11595 0382 59       		.uleb128 0x59
 11596 0383 0B       		.uleb128 0xb
 11597 0384 01       		.uleb128 0x1
 11598 0385 13       		.uleb128 0x13
 11599 0386 00       		.byte	0
 11600 0387 00       		.byte	0
 11601 0388 40       		.uleb128 0x40
 11602 0389 1D       		.uleb128 0x1d
 11603 038a 01       		.byte	0x1
 11604 038b 31       		.uleb128 0x31
 11605 038c 13       		.uleb128 0x13
 11606 038d 52       		.uleb128 0x52
 11607 038e 01       		.uleb128 0x1
 11608 038f 55       		.uleb128 0x55
 11609 0390 17       		.uleb128 0x17
 11610 0391 58       		.uleb128 0x58
 11611 0392 0B       		.uleb128 0xb
 11612 0393 59       		.uleb128 0x59
 11613 0394 0B       		.uleb128 0xb
 11614 0395 00       		.byte	0
 11615 0396 00       		.byte	0
 11616 0397 41       		.uleb128 0x41
 11617 0398 898201   		.uleb128 0x4109
 11618 039b 01       		.byte	0x1
 11619 039c 11       		.uleb128 0x11
 11620 039d 01       		.uleb128 0x1
 11621 039e 9542     		.uleb128 0x2115
 11622 03a0 19       		.uleb128 0x19
 11623 03a1 31       		.uleb128 0x31
 11624 03a2 13       		.uleb128 0x13
 11625 03a3 00       		.byte	0
 11626 03a4 00       		.byte	0
 11627 03a5 42       		.uleb128 0x42
 11628 03a6 05       		.uleb128 0x5
ARM GAS  /tmp/ccoI4Tqz.s 			page 205


 11629 03a7 00       		.byte	0
 11630 03a8 31       		.uleb128 0x31
 11631 03a9 13       		.uleb128 0x13
 11632 03aa 1C       		.uleb128 0x1c
 11633 03ab 0B       		.uleb128 0xb
 11634 03ac 00       		.byte	0
 11635 03ad 00       		.byte	0
 11636 03ae 43       		.uleb128 0x43
 11637 03af 0B       		.uleb128 0xb
 11638 03b0 01       		.byte	0x1
 11639 03b1 11       		.uleb128 0x11
 11640 03b2 01       		.uleb128 0x1
 11641 03b3 12       		.uleb128 0x12
 11642 03b4 06       		.uleb128 0x6
 11643 03b5 01       		.uleb128 0x1
 11644 03b6 13       		.uleb128 0x13
 11645 03b7 00       		.byte	0
 11646 03b8 00       		.byte	0
 11647 03b9 44       		.uleb128 0x44
 11648 03ba 34       		.uleb128 0x34
 11649 03bb 00       		.byte	0
 11650 03bc 31       		.uleb128 0x31
 11651 03bd 13       		.uleb128 0x13
 11652 03be 00       		.byte	0
 11653 03bf 00       		.byte	0
 11654 03c0 45       		.uleb128 0x45
 11655 03c1 2E       		.uleb128 0x2e
 11656 03c2 01       		.byte	0x1
 11657 03c3 47       		.uleb128 0x47
 11658 03c4 13       		.uleb128 0x13
 11659 03c5 3A       		.uleb128 0x3a
 11660 03c6 0B       		.uleb128 0xb
 11661 03c7 3B       		.uleb128 0x3b
 11662 03c8 05       		.uleb128 0x5
 11663 03c9 11       		.uleb128 0x11
 11664 03ca 01       		.uleb128 0x1
 11665 03cb 12       		.uleb128 0x12
 11666 03cc 06       		.uleb128 0x6
 11667 03cd 40       		.uleb128 0x40
 11668 03ce 18       		.uleb128 0x18
 11669 03cf 64       		.uleb128 0x64
 11670 03d0 13       		.uleb128 0x13
 11671 03d1 9742     		.uleb128 0x2117
 11672 03d3 19       		.uleb128 0x19
 11673 03d4 01       		.uleb128 0x1
 11674 03d5 13       		.uleb128 0x13
 11675 03d6 00       		.byte	0
 11676 03d7 00       		.byte	0
 11677 03d8 46       		.uleb128 0x46
 11678 03d9 34       		.uleb128 0x34
 11679 03da 00       		.byte	0
 11680 03db 03       		.uleb128 0x3
 11681 03dc 0E       		.uleb128 0xe
 11682 03dd 3A       		.uleb128 0x3a
 11683 03de 0B       		.uleb128 0xb
 11684 03df 3B       		.uleb128 0x3b
 11685 03e0 05       		.uleb128 0x5
ARM GAS  /tmp/ccoI4Tqz.s 			page 206


 11686 03e1 49       		.uleb128 0x49
 11687 03e2 13       		.uleb128 0x13
 11688 03e3 02       		.uleb128 0x2
 11689 03e4 17       		.uleb128 0x17
 11690 03e5 00       		.byte	0
 11691 03e6 00       		.byte	0
 11692 03e7 47       		.uleb128 0x47
 11693 03e8 1D       		.uleb128 0x1d
 11694 03e9 01       		.byte	0x1
 11695 03ea 31       		.uleb128 0x31
 11696 03eb 13       		.uleb128 0x13
 11697 03ec 52       		.uleb128 0x52
 11698 03ed 01       		.uleb128 0x1
 11699 03ee 55       		.uleb128 0x55
 11700 03ef 17       		.uleb128 0x17
 11701 03f0 58       		.uleb128 0x58
 11702 03f1 0B       		.uleb128 0xb
 11703 03f2 59       		.uleb128 0x59
 11704 03f3 05       		.uleb128 0x5
 11705 03f4 01       		.uleb128 0x1
 11706 03f5 13       		.uleb128 0x13
 11707 03f6 00       		.byte	0
 11708 03f7 00       		.byte	0
 11709 03f8 48       		.uleb128 0x48
 11710 03f9 0B       		.uleb128 0xb
 11711 03fa 01       		.byte	0x1
 11712 03fb 11       		.uleb128 0x11
 11713 03fc 01       		.uleb128 0x1
 11714 03fd 12       		.uleb128 0x12
 11715 03fe 06       		.uleb128 0x6
 11716 03ff 00       		.byte	0
 11717 0400 00       		.byte	0
 11718 0401 49       		.uleb128 0x49
 11719 0402 1D       		.uleb128 0x1d
 11720 0403 01       		.byte	0x1
 11721 0404 31       		.uleb128 0x31
 11722 0405 13       		.uleb128 0x13
 11723 0406 11       		.uleb128 0x11
 11724 0407 01       		.uleb128 0x1
 11725 0408 12       		.uleb128 0x12
 11726 0409 06       		.uleb128 0x6
 11727 040a 58       		.uleb128 0x58
 11728 040b 0B       		.uleb128 0xb
 11729 040c 59       		.uleb128 0x59
 11730 040d 05       		.uleb128 0x5
 11731 040e 00       		.byte	0
 11732 040f 00       		.byte	0
 11733 0410 4A       		.uleb128 0x4a
 11734 0411 34       		.uleb128 0x34
 11735 0412 00       		.byte	0
 11736 0413 03       		.uleb128 0x3
 11737 0414 0E       		.uleb128 0xe
 11738 0415 3A       		.uleb128 0x3a
 11739 0416 0B       		.uleb128 0xb
 11740 0417 3B       		.uleb128 0x3b
 11741 0418 05       		.uleb128 0x5
 11742 0419 49       		.uleb128 0x49
ARM GAS  /tmp/ccoI4Tqz.s 			page 207


 11743 041a 13       		.uleb128 0x13
 11744 041b 02       		.uleb128 0x2
 11745 041c 18       		.uleb128 0x18
 11746 041d 00       		.byte	0
 11747 041e 00       		.byte	0
 11748 041f 4B       		.uleb128 0x4b
 11749 0420 05       		.uleb128 0x5
 11750 0421 00       		.byte	0
 11751 0422 03       		.uleb128 0x3
 11752 0423 0E       		.uleb128 0xe
 11753 0424 3A       		.uleb128 0x3a
 11754 0425 0B       		.uleb128 0xb
 11755 0426 3B       		.uleb128 0x3b
 11756 0427 05       		.uleb128 0x5
 11757 0428 49       		.uleb128 0x49
 11758 0429 13       		.uleb128 0x13
 11759 042a 02       		.uleb128 0x2
 11760 042b 17       		.uleb128 0x17
 11761 042c 00       		.byte	0
 11762 042d 00       		.byte	0
 11763 042e 4C       		.uleb128 0x4c
 11764 042f 2E       		.uleb128 0x2e
 11765 0430 01       		.byte	0x1
 11766 0431 47       		.uleb128 0x47
 11767 0432 13       		.uleb128 0x13
 11768 0433 3A       		.uleb128 0x3a
 11769 0434 0B       		.uleb128 0xb
 11770 0435 3B       		.uleb128 0x3b
 11771 0436 05       		.uleb128 0x5
 11772 0437 11       		.uleb128 0x11
 11773 0438 01       		.uleb128 0x1
 11774 0439 12       		.uleb128 0x12
 11775 043a 06       		.uleb128 0x6
 11776 043b 40       		.uleb128 0x40
 11777 043c 18       		.uleb128 0x18
 11778 043d 64       		.uleb128 0x64
 11779 043e 13       		.uleb128 0x13
 11780 043f 9642     		.uleb128 0x2116
 11781 0441 19       		.uleb128 0x19
 11782 0442 01       		.uleb128 0x1
 11783 0443 13       		.uleb128 0x13
 11784 0444 00       		.byte	0
 11785 0445 00       		.byte	0
 11786 0446 4D       		.uleb128 0x4d
 11787 0447 34       		.uleb128 0x34
 11788 0448 00       		.byte	0
 11789 0449 03       		.uleb128 0x3
 11790 044a 08       		.uleb128 0x8
 11791 044b 3A       		.uleb128 0x3a
 11792 044c 0B       		.uleb128 0xb
 11793 044d 3B       		.uleb128 0x3b
 11794 044e 05       		.uleb128 0x5
 11795 044f 49       		.uleb128 0x49
 11796 0450 13       		.uleb128 0x13
 11797 0451 02       		.uleb128 0x2
 11798 0452 17       		.uleb128 0x17
 11799 0453 00       		.byte	0
ARM GAS  /tmp/ccoI4Tqz.s 			page 208


 11800 0454 00       		.byte	0
 11801 0455 4E       		.uleb128 0x4e
 11802 0456 05       		.uleb128 0x5
 11803 0457 00       		.byte	0
 11804 0458 31       		.uleb128 0x31
 11805 0459 13       		.uleb128 0x13
 11806 045a 00       		.byte	0
 11807 045b 00       		.byte	0
 11808 045c 4F       		.uleb128 0x4f
 11809 045d 2E       		.uleb128 0x2e
 11810 045e 01       		.byte	0x1
 11811 045f 31       		.uleb128 0x31
 11812 0460 13       		.uleb128 0x13
 11813 0461 6E       		.uleb128 0x6e
 11814 0462 0E       		.uleb128 0xe
 11815 0463 11       		.uleb128 0x11
 11816 0464 01       		.uleb128 0x1
 11817 0465 12       		.uleb128 0x12
 11818 0466 06       		.uleb128 0x6
 11819 0467 40       		.uleb128 0x40
 11820 0468 18       		.uleb128 0x18
 11821 0469 64       		.uleb128 0x64
 11822 046a 13       		.uleb128 0x13
 11823 046b 9642     		.uleb128 0x2116
 11824 046d 19       		.uleb128 0x19
 11825 046e 01       		.uleb128 0x1
 11826 046f 13       		.uleb128 0x13
 11827 0470 00       		.byte	0
 11828 0471 00       		.byte	0
 11829 0472 50       		.uleb128 0x50
 11830 0473 898201   		.uleb128 0x4109
 11831 0476 00       		.byte	0
 11832 0477 11       		.uleb128 0x11
 11833 0478 01       		.uleb128 0x1
 11834 0479 31       		.uleb128 0x31
 11835 047a 13       		.uleb128 0x13
 11836 047b 00       		.byte	0
 11837 047c 00       		.byte	0
 11838 047d 51       		.uleb128 0x51
 11839 047e 05       		.uleb128 0x5
 11840 047f 00       		.byte	0
 11841 0480 03       		.uleb128 0x3
 11842 0481 08       		.uleb128 0x8
 11843 0482 3A       		.uleb128 0x3a
 11844 0483 0B       		.uleb128 0xb
 11845 0484 3B       		.uleb128 0x3b
 11846 0485 05       		.uleb128 0x5
 11847 0486 49       		.uleb128 0x49
 11848 0487 13       		.uleb128 0x13
 11849 0488 02       		.uleb128 0x2
 11850 0489 17       		.uleb128 0x17
 11851 048a 00       		.byte	0
 11852 048b 00       		.byte	0
 11853 048c 52       		.uleb128 0x52
 11854 048d 898201   		.uleb128 0x4109
 11855 0490 01       		.byte	0x1
 11856 0491 11       		.uleb128 0x11
ARM GAS  /tmp/ccoI4Tqz.s 			page 209


 11857 0492 01       		.uleb128 0x1
 11858 0493 31       		.uleb128 0x31
 11859 0494 13       		.uleb128 0x13
 11860 0495 01       		.uleb128 0x1
 11861 0496 13       		.uleb128 0x13
 11862 0497 00       		.byte	0
 11863 0498 00       		.byte	0
 11864 0499 53       		.uleb128 0x53
 11865 049a 2E       		.uleb128 0x2e
 11866 049b 01       		.byte	0x1
 11867 049c 47       		.uleb128 0x47
 11868 049d 13       		.uleb128 0x13
 11869 049e 3A       		.uleb128 0x3a
 11870 049f 0B       		.uleb128 0xb
 11871 04a0 3B       		.uleb128 0x3b
 11872 04a1 0B       		.uleb128 0xb
 11873 04a2 11       		.uleb128 0x11
 11874 04a3 01       		.uleb128 0x1
 11875 04a4 12       		.uleb128 0x12
 11876 04a5 06       		.uleb128 0x6
 11877 04a6 40       		.uleb128 0x40
 11878 04a7 18       		.uleb128 0x18
 11879 04a8 64       		.uleb128 0x64
 11880 04a9 13       		.uleb128 0x13
 11881 04aa 9642     		.uleb128 0x2116
 11882 04ac 19       		.uleb128 0x19
 11883 04ad 01       		.uleb128 0x1
 11884 04ae 13       		.uleb128 0x13
 11885 04af 00       		.byte	0
 11886 04b0 00       		.byte	0
 11887 04b1 54       		.uleb128 0x54
 11888 04b2 34       		.uleb128 0x34
 11889 04b3 00       		.byte	0
 11890 04b4 03       		.uleb128 0x3
 11891 04b5 0E       		.uleb128 0xe
 11892 04b6 3A       		.uleb128 0x3a
 11893 04b7 0B       		.uleb128 0xb
 11894 04b8 3B       		.uleb128 0x3b
 11895 04b9 0B       		.uleb128 0xb
 11896 04ba 49       		.uleb128 0x49
 11897 04bb 13       		.uleb128 0x13
 11898 04bc 3F       		.uleb128 0x3f
 11899 04bd 19       		.uleb128 0x19
 11900 04be 02       		.uleb128 0x2
 11901 04bf 18       		.uleb128 0x18
 11902 04c0 00       		.byte	0
 11903 04c1 00       		.byte	0
 11904 04c2 00       		.byte	0
 11905              		.section	.debug_loc,"",%progbits
 11906              	.Ldebug_loc0:
 11907              	.LLST0:
 11908 0000 00000000 		.4byte	.LVL0
 11909 0004 18000000 		.4byte	.LVL4
 11910 0008 0100     		.2byte	0x1
 11911 000a 50       		.byte	0x50
 11912 000b 18000000 		.4byte	.LVL4
 11913 000f 34000000 		.4byte	.LVL6
ARM GAS  /tmp/ccoI4Tqz.s 			page 210


 11914 0013 0100     		.2byte	0x1
 11915 0015 55       		.byte	0x55
 11916 0016 34000000 		.4byte	.LVL6
 11917 001a 38000000 		.4byte	.LFE67
 11918 001e 0400     		.2byte	0x4
 11919 0020 F3       		.byte	0xf3
 11920 0021 01       		.uleb128 0x1
 11921 0022 50       		.byte	0x50
 11922 0023 9F       		.byte	0x9f
 11923 0024 00000000 		.4byte	0
 11924 0028 00000000 		.4byte	0
 11925              	.LLST1:
 11926 002c 00000000 		.4byte	.LVL0
 11927 0030 10000000 		.4byte	.LVL3
 11928 0034 0100     		.2byte	0x1
 11929 0036 51       		.byte	0x51
 11930 0037 10000000 		.4byte	.LVL3
 11931 003b 38000000 		.4byte	.LFE67
 11932 003f 0400     		.2byte	0x4
 11933 0041 F3       		.byte	0xf3
 11934 0042 01       		.uleb128 0x1
 11935 0043 51       		.byte	0x51
 11936 0044 9F       		.byte	0x9f
 11937 0045 00000000 		.4byte	0
 11938 0049 00000000 		.4byte	0
 11939              	.LLST2:
 11940 004d 00000000 		.4byte	.LVL0
 11941 0051 0A000000 		.4byte	.LVL2
 11942 0055 0100     		.2byte	0x1
 11943 0057 52       		.byte	0x52
 11944 0058 0A000000 		.4byte	.LVL2
 11945 005c 38000000 		.4byte	.LFE67
 11946 0060 0400     		.2byte	0x4
 11947 0062 F3       		.byte	0xf3
 11948 0063 01       		.uleb128 0x1
 11949 0064 52       		.byte	0x52
 11950 0065 9F       		.byte	0x9f
 11951 0066 00000000 		.4byte	0
 11952 006a 00000000 		.4byte	0
 11953              	.LLST3:
 11954 006e 06000000 		.4byte	.LVL1
 11955 0072 34000000 		.4byte	.LVL6
 11956 0076 0D00     		.2byte	0xd
 11957 0078 76       		.byte	0x76
 11958 0079 00       		.sleb128 0
 11959 007a 0B       		.byte	0xb
 11960 007b 00FF     		.2byte	0xff00
 11961 007d 1A       		.byte	0x1a
 11962 007e 0A       		.byte	0xa
 11963 007f FFFF     		.2byte	0xffff
 11964 0081 1A       		.byte	0x1a
 11965 0082 38       		.byte	0x38
 11966 0083 26       		.byte	0x26
 11967 0084 9F       		.byte	0x9f
 11968 0085 00000000 		.4byte	0
 11969 0089 00000000 		.4byte	0
 11970              	.LLST4:
ARM GAS  /tmp/ccoI4Tqz.s 			page 211


 11971 008d 06000000 		.4byte	.LVL1
 11972 0091 34000000 		.4byte	.LVL6
 11973 0095 0100     		.2byte	0x1
 11974 0097 56       		.byte	0x56
 11975 0098 00000000 		.4byte	0
 11976 009c 00000000 		.4byte	0
 11977              	.LLST6:
 11978 00a0 06000000 		.4byte	.LVL1
 11979 00a4 10000000 		.4byte	.LVL3
 11980 00a8 0700     		.2byte	0x7
 11981 00aa 71       		.byte	0x71
 11982 00ab 00       		.sleb128 0
 11983 00ac 31       		.byte	0x31
 11984 00ad 24       		.byte	0x24
 11985 00ae 23       		.byte	0x23
 11986 00af 05       		.uleb128 0x5
 11987 00b0 9F       		.byte	0x9f
 11988 00b1 10000000 		.4byte	.LVL3
 11989 00b5 38000000 		.4byte	.LFE67
 11990 00b9 0800     		.2byte	0x8
 11991 00bb F3       		.byte	0xf3
 11992 00bc 01       		.uleb128 0x1
 11993 00bd 51       		.byte	0x51
 11994 00be 31       		.byte	0x31
 11995 00bf 24       		.byte	0x24
 11996 00c0 23       		.byte	0x23
 11997 00c1 05       		.uleb128 0x5
 11998 00c2 9F       		.byte	0x9f
 11999 00c3 00000000 		.4byte	0
 12000 00c7 00000000 		.4byte	0
 12001              	.LLST7:
 12002 00cb 06000000 		.4byte	.LVL1
 12003 00cf 18000000 		.4byte	.LVL4
 12004 00d3 0100     		.2byte	0x1
 12005 00d5 50       		.byte	0x50
 12006 00d6 18000000 		.4byte	.LVL4
 12007 00da 34000000 		.4byte	.LVL6
 12008 00de 0100     		.2byte	0x1
 12009 00e0 55       		.byte	0x55
 12010 00e1 34000000 		.4byte	.LVL6
 12011 00e5 38000000 		.4byte	.LFE67
 12012 00e9 0400     		.2byte	0x4
 12013 00eb F3       		.byte	0xf3
 12014 00ec 01       		.uleb128 0x1
 12015 00ed 50       		.byte	0x50
 12016 00ee 9F       		.byte	0x9f
 12017 00ef 00000000 		.4byte	0
 12018 00f3 00000000 		.4byte	0
 12019              	.LLST8:
 12020 00f7 1C000000 		.4byte	.LVL5
 12021 00fb 34000000 		.4byte	.LVL6
 12022 00ff 0D00     		.2byte	0xd
 12023 0101 76       		.byte	0x76
 12024 0102 00       		.sleb128 0
 12025 0103 0B       		.byte	0xb
 12026 0104 00FF     		.2byte	0xff00
 12027 0106 1A       		.byte	0x1a
ARM GAS  /tmp/ccoI4Tqz.s 			page 212


 12028 0107 0A       		.byte	0xa
 12029 0108 FFFF     		.2byte	0xffff
 12030 010a 1A       		.byte	0x1a
 12031 010b 38       		.byte	0x38
 12032 010c 26       		.byte	0x26
 12033 010d 9F       		.byte	0x9f
 12034 010e 00000000 		.4byte	0
 12035 0112 00000000 		.4byte	0
 12036              	.LLST9:
 12037 0116 1C000000 		.4byte	.LVL5
 12038 011a 34000000 		.4byte	.LVL6
 12039 011e 0A00     		.2byte	0xa
 12040 0120 74       		.byte	0x74
 12041 0121 00       		.sleb128 0
 12042 0122 08       		.byte	0x8
 12043 0123 FF       		.byte	0xff
 12044 0124 1A       		.byte	0x1a
 12045 0125 23       		.byte	0x23
 12046 0126 03       		.uleb128 0x3
 12047 0127 31       		.byte	0x31
 12048 0128 24       		.byte	0x24
 12049 0129 9F       		.byte	0x9f
 12050 012a 00000000 		.4byte	0
 12051 012e 00000000 		.4byte	0
 12052              	.LLST10:
 12053 0132 1C000000 		.4byte	.LVL5
 12054 0136 34000000 		.4byte	.LVL6
 12055 013a 0100     		.2byte	0x1
 12056 013c 55       		.byte	0x55
 12057 013d 34000000 		.4byte	.LVL6
 12058 0141 38000000 		.4byte	.LFE67
 12059 0145 0400     		.2byte	0x4
 12060 0147 F3       		.byte	0xf3
 12061 0148 01       		.uleb128 0x1
 12062 0149 50       		.byte	0x50
 12063 014a 9F       		.byte	0x9f
 12064 014b 00000000 		.4byte	0
 12065 014f 00000000 		.4byte	0
 12066              	.LLST11:
 12067 0153 00000000 		.4byte	.LVL8
 12068 0157 2E000000 		.4byte	.LVL11
 12069 015b 0100     		.2byte	0x1
 12070 015d 51       		.byte	0x51
 12071 015e 2E000000 		.4byte	.LVL11
 12072 0162 8A000000 		.4byte	.LVL13
 12073 0166 0200     		.2byte	0x2
 12074 0168 70       		.byte	0x70
 12075 0169 00       		.sleb128 0
 12076 016a 8A000000 		.4byte	.LVL13
 12077 016e BC000000 		.4byte	.LFE13
 12078 0172 0400     		.2byte	0x4
 12079 0174 F3       		.byte	0xf3
 12080 0175 01       		.uleb128 0x1
 12081 0176 51       		.byte	0x51
 12082 0177 9F       		.byte	0x9f
 12083 0178 00000000 		.4byte	0
 12084 017c 00000000 		.4byte	0
ARM GAS  /tmp/ccoI4Tqz.s 			page 213


 12085              	.LLST12:
 12086 0180 00000000 		.4byte	.LVL8
 12087 0184 1E000000 		.4byte	.LVL9
 12088 0188 0100     		.2byte	0x1
 12089 018a 52       		.byte	0x52
 12090 018b 1E000000 		.4byte	.LVL9
 12091 018f 8A000000 		.4byte	.LVL13
 12092 0193 0200     		.2byte	0x2
 12093 0195 70       		.byte	0x70
 12094 0196 01       		.sleb128 1
 12095 0197 8A000000 		.4byte	.LVL13
 12096 019b BC000000 		.4byte	.LFE13
 12097 019f 0400     		.2byte	0x4
 12098 01a1 F3       		.byte	0xf3
 12099 01a2 01       		.uleb128 0x1
 12100 01a3 52       		.byte	0x52
 12101 01a4 9F       		.byte	0x9f
 12102 01a5 00000000 		.4byte	0
 12103 01a9 00000000 		.4byte	0
 12104              	.LLST13:
 12105 01ad 00000000 		.4byte	.LVL8
 12106 01b1 20000000 		.4byte	.LVL10
 12107 01b5 0100     		.2byte	0x1
 12108 01b7 53       		.byte	0x53
 12109 01b8 20000000 		.4byte	.LVL10
 12110 01bc 8A000000 		.4byte	.LVL13
 12111 01c0 0200     		.2byte	0x2
 12112 01c2 70       		.byte	0x70
 12113 01c3 02       		.sleb128 2
 12114 01c4 8A000000 		.4byte	.LVL13
 12115 01c8 BC000000 		.4byte	.LFE13
 12116 01cc 0400     		.2byte	0x4
 12117 01ce F3       		.byte	0xf3
 12118 01cf 01       		.uleb128 0x1
 12119 01d0 53       		.byte	0x53
 12120 01d1 9F       		.byte	0x9f
 12121 01d2 00000000 		.4byte	0
 12122 01d6 00000000 		.4byte	0
 12123              	.LLST14:
 12124 01da 86000000 		.4byte	.LVL12
 12125 01de 8A000000 		.4byte	.LVL13
 12126 01e2 0200     		.2byte	0x2
 12127 01e4 30       		.byte	0x30
 12128 01e5 9F       		.byte	0x9f
 12129 01e6 8A000000 		.4byte	.LVL13
 12130 01ea 8E000000 		.4byte	.LVL14
 12131 01ee 0500     		.2byte	0x5
 12132 01f0 33       		.byte	0x33
 12133 01f1 7E       		.byte	0x7e
 12134 01f2 00       		.sleb128 0
 12135 01f3 1C       		.byte	0x1c
 12136 01f4 9F       		.byte	0x9f
 12137 01f5 8E000000 		.4byte	.LVL14
 12138 01f9 AA000000 		.4byte	.LVL15
 12139 01fd 0500     		.2byte	0x5
 12140 01ff 32       		.byte	0x32
 12141 0200 7E       		.byte	0x7e
ARM GAS  /tmp/ccoI4Tqz.s 			page 214


 12142 0201 00       		.sleb128 0
 12143 0202 1C       		.byte	0x1c
 12144 0203 9F       		.byte	0x9f
 12145 0204 00000000 		.4byte	0
 12146 0208 00000000 		.4byte	0
 12147              	.LLST15:
 12148 020c 00000000 		.4byte	.LVL16
 12149 0210 11000000 		.4byte	.LVL18-1
 12150 0214 0100     		.2byte	0x1
 12151 0216 50       		.byte	0x50
 12152 0217 11000000 		.4byte	.LVL18-1
 12153 021b 16000000 		.4byte	.LFE8
 12154 021f 0100     		.2byte	0x1
 12155 0221 54       		.byte	0x54
 12156 0222 00000000 		.4byte	0
 12157 0226 00000000 		.4byte	0
 12158              	.LLST16:
 12159 022a 00000000 		.4byte	.LVL16
 12160 022e 0E000000 		.4byte	.LVL17
 12161 0232 0100     		.2byte	0x1
 12162 0234 51       		.byte	0x51
 12163 0235 0E000000 		.4byte	.LVL17
 12164 0239 11000000 		.4byte	.LVL18-1
 12165 023d 0300     		.2byte	0x3
 12166 023f 70       		.byte	0x70
 12167 0240 8401     		.sleb128 132
 12168 0242 11000000 		.4byte	.LVL18-1
 12169 0246 16000000 		.4byte	.LFE8
 12170 024a 0400     		.2byte	0x4
 12171 024c F3       		.byte	0xf3
 12172 024d 01       		.uleb128 0x1
 12173 024e 51       		.byte	0x51
 12174 024f 9F       		.byte	0x9f
 12175 0250 00000000 		.4byte	0
 12176 0254 00000000 		.4byte	0
 12177              	.LLST17:
 12178 0258 00000000 		.4byte	.LVL19
 12179 025c 15000000 		.4byte	.LVL23-1
 12180 0260 0100     		.2byte	0x1
 12181 0262 50       		.byte	0x50
 12182 0263 15000000 		.4byte	.LVL23-1
 12183 0267 1A000000 		.4byte	.LFE11
 12184 026b 0100     		.2byte	0x1
 12185 026d 54       		.byte	0x54
 12186 026e 00000000 		.4byte	0
 12187 0272 00000000 		.4byte	0
 12188              	.LLST18:
 12189 0276 00000000 		.4byte	.LVL19
 12190 027a 0E000000 		.4byte	.LVL20
 12191 027e 0100     		.2byte	0x1
 12192 0280 51       		.byte	0x51
 12193 0281 0E000000 		.4byte	.LVL20
 12194 0285 15000000 		.4byte	.LVL23-1
 12195 0289 0300     		.2byte	0x3
 12196 028b 70       		.byte	0x70
 12197 028c 8401     		.sleb128 132
 12198 028e 15000000 		.4byte	.LVL23-1
ARM GAS  /tmp/ccoI4Tqz.s 			page 215


 12199 0292 1A000000 		.4byte	.LFE11
 12200 0296 0400     		.2byte	0x4
 12201 0298 F3       		.byte	0xf3
 12202 0299 01       		.uleb128 0x1
 12203 029a 51       		.byte	0x51
 12204 029b 9F       		.byte	0x9f
 12205 029c 00000000 		.4byte	0
 12206 02a0 00000000 		.4byte	0
 12207              	.LLST19:
 12208 02a4 00000000 		.4byte	.LVL19
 12209 02a8 10000000 		.4byte	.LVL21
 12210 02ac 0100     		.2byte	0x1
 12211 02ae 52       		.byte	0x52
 12212 02af 10000000 		.4byte	.LVL21
 12213 02b3 1A000000 		.4byte	.LFE11
 12214 02b7 0400     		.2byte	0x4
 12215 02b9 F3       		.byte	0xf3
 12216 02ba 01       		.uleb128 0x1
 12217 02bb 52       		.byte	0x52
 12218 02bc 9F       		.byte	0x9f
 12219 02bd 00000000 		.4byte	0
 12220 02c1 00000000 		.4byte	0
 12221              	.LLST20:
 12222 02c5 00000000 		.4byte	.LVL19
 12223 02c9 12000000 		.4byte	.LVL22
 12224 02cd 0100     		.2byte	0x1
 12225 02cf 53       		.byte	0x53
 12226 02d0 12000000 		.4byte	.LVL22
 12227 02d4 1A000000 		.4byte	.LFE11
 12228 02d8 0400     		.2byte	0x4
 12229 02da F3       		.byte	0xf3
 12230 02db 01       		.uleb128 0x1
 12231 02dc 53       		.byte	0x53
 12232 02dd 9F       		.byte	0x9f
 12233 02de 00000000 		.4byte	0
 12234 02e2 00000000 		.4byte	0
 12235              	.LLST21:
 12236 02e6 00000000 		.4byte	.LVL24
 12237 02ea 22000000 		.4byte	.LVL26
 12238 02ee 0100     		.2byte	0x1
 12239 02f0 50       		.byte	0x50
 12240 02f1 22000000 		.4byte	.LVL26
 12241 02f5 C6000000 		.4byte	.LVL45
 12242 02f9 0100     		.2byte	0x1
 12243 02fb 54       		.byte	0x54
 12244 02fc C6000000 		.4byte	.LVL45
 12245 0300 CA000000 		.4byte	.LVL46
 12246 0304 0400     		.2byte	0x4
 12247 0306 F3       		.byte	0xf3
 12248 0307 01       		.uleb128 0x1
 12249 0308 50       		.byte	0x50
 12250 0309 9F       		.byte	0x9f
 12251 030a CA000000 		.4byte	.LVL46
 12252 030e D6000000 		.4byte	.LFE15
 12253 0312 0100     		.2byte	0x1
 12254 0314 50       		.byte	0x50
 12255 0315 00000000 		.4byte	0
ARM GAS  /tmp/ccoI4Tqz.s 			page 216


 12256 0319 00000000 		.4byte	0
 12257              	.LLST22:
 12258 031d 00000000 		.4byte	.LVL24
 12259 0321 0E000000 		.4byte	.LVL25
 12260 0325 0200     		.2byte	0x2
 12261 0327 30       		.byte	0x30
 12262 0328 9F       		.byte	0x9f
 12263 0329 0E000000 		.4byte	.LVL25
 12264 032d 26000000 		.4byte	.LVL27
 12265 0331 0100     		.2byte	0x1
 12266 0333 52       		.byte	0x52
 12267 0334 26000000 		.4byte	.LVL27
 12268 0338 28000000 		.4byte	.LVL28
 12269 033c 0600     		.2byte	0x6
 12270 033e 72       		.byte	0x72
 12271 033f 00       		.sleb128 0
 12272 0340 73       		.byte	0x73
 12273 0341 00       		.sleb128 0
 12274 0342 21       		.byte	0x21
 12275 0343 9F       		.byte	0x9f
 12276 0344 28000000 		.4byte	.LVL28
 12277 0348 2E000000 		.4byte	.LVL29
 12278 034c 0D00     		.2byte	0xd
 12279 034e 74       		.byte	0x74
 12280 034f 09       		.sleb128 9
 12281 0350 94       		.byte	0x94
 12282 0351 01       		.byte	0x1
 12283 0352 33       		.byte	0x33
 12284 0353 1A       		.byte	0x1a
 12285 0354 08       		.byte	0x8
 12286 0355 FF       		.byte	0xff
 12287 0356 1A       		.byte	0x1a
 12288 0357 72       		.byte	0x72
 12289 0358 00       		.sleb128 0
 12290 0359 21       		.byte	0x21
 12291 035a 9F       		.byte	0x9f
 12292 035b 4E000000 		.4byte	.LVL32
 12293 035f 69000000 		.4byte	.LVL34-1
 12294 0363 0100     		.2byte	0x1
 12295 0365 53       		.byte	0x53
 12296 0366 6A000000 		.4byte	.LVL34
 12297 036a 76000000 		.4byte	.LVL35
 12298 036e 0200     		.2byte	0x2
 12299 0370 30       		.byte	0x30
 12300 0371 9F       		.byte	0x9f
 12301 0372 76000000 		.4byte	.LVL35
 12302 0376 7C000000 		.4byte	.LVL36
 12303 037a 0100     		.2byte	0x1
 12304 037c 53       		.byte	0x53
 12305 037d 7C000000 		.4byte	.LVL36
 12306 0381 7E000000 		.4byte	.LVL37
 12307 0385 1800     		.2byte	0x18
 12308 0387 08       		.byte	0x8
 12309 0388 20       		.byte	0x20
 12310 0389 74       		.byte	0x74
 12311 038a 13       		.sleb128 19
 12312 038b 94       		.byte	0x94
ARM GAS  /tmp/ccoI4Tqz.s 			page 217


 12313 038c 01       		.byte	0x1
 12314 038d 08       		.byte	0x8
 12315 038e FF       		.byte	0xff
 12316 038f 1A       		.byte	0x1a
 12317 0390 74       		.byte	0x74
 12318 0391 13       		.sleb128 19
 12319 0392 94       		.byte	0x94
 12320 0393 01       		.byte	0x1
 12321 0394 08       		.byte	0x8
 12322 0395 FF       		.byte	0xff
 12323 0396 1A       		.byte	0x1a
 12324 0397 30       		.byte	0x30
 12325 0398 2E       		.byte	0x2e
 12326 0399 28       		.byte	0x28
 12327 039a 0100     		.2byte	0x1
 12328 039c 16       		.byte	0x16
 12329 039d 13       		.byte	0x13
 12330 039e 9F       		.byte	0x9f
 12331 039f 7E000000 		.4byte	.LVL37
 12332 03a3 9B000000 		.4byte	.LVL40-1
 12333 03a7 0100     		.2byte	0x1
 12334 03a9 53       		.byte	0x53
 12335 03aa 9C000000 		.4byte	.LVL40
 12336 03ae A8000000 		.4byte	.LVL41
 12337 03b2 0200     		.2byte	0x2
 12338 03b4 30       		.byte	0x30
 12339 03b5 9F       		.byte	0x9f
 12340 03b6 A8000000 		.4byte	.LVL41
 12341 03ba AE000000 		.4byte	.LVL42
 12342 03be 0100     		.2byte	0x1
 12343 03c0 53       		.byte	0x53
 12344 03c1 AE000000 		.4byte	.LVL42
 12345 03c5 B0000000 		.4byte	.LVL43
 12346 03c9 1800     		.2byte	0x18
 12347 03cb 08       		.byte	0x8
 12348 03cc 20       		.byte	0x20
 12349 03cd 74       		.byte	0x74
 12350 03ce 0D       		.sleb128 13
 12351 03cf 94       		.byte	0x94
 12352 03d0 01       		.byte	0x1
 12353 03d1 08       		.byte	0x8
 12354 03d2 FF       		.byte	0xff
 12355 03d3 1A       		.byte	0x1a
 12356 03d4 74       		.byte	0x74
 12357 03d5 0D       		.sleb128 13
 12358 03d6 94       		.byte	0x94
 12359 03d7 01       		.byte	0x1
 12360 03d8 08       		.byte	0x8
 12361 03d9 FF       		.byte	0xff
 12362 03da 1A       		.byte	0x1a
 12363 03db 30       		.byte	0x30
 12364 03dc 2E       		.byte	0x2e
 12365 03dd 28       		.byte	0x28
 12366 03de 0100     		.2byte	0x1
 12367 03e0 16       		.byte	0x16
 12368 03e1 13       		.byte	0x13
 12369 03e2 9F       		.byte	0x9f
ARM GAS  /tmp/ccoI4Tqz.s 			page 218


 12370 03e3 B0000000 		.4byte	.LVL43
 12371 03e7 C9000000 		.4byte	.LVL46-1
 12372 03eb 0100     		.2byte	0x1
 12373 03ed 53       		.byte	0x53
 12374 03ee CA000000 		.4byte	.LVL46
 12375 03f2 D6000000 		.4byte	.LFE15
 12376 03f6 0100     		.2byte	0x1
 12377 03f8 52       		.byte	0x52
 12378 03f9 00000000 		.4byte	0
 12379 03fd 00000000 		.4byte	0
 12380              	.LLST23:
 12381 0401 26000000 		.4byte	.LVL27
 12382 0405 28000000 		.4byte	.LVL28
 12383 0409 0600     		.2byte	0x6
 12384 040b 72       		.byte	0x72
 12385 040c 00       		.sleb128 0
 12386 040d 73       		.byte	0x73
 12387 040e 00       		.sleb128 0
 12388 040f 21       		.byte	0x21
 12389 0410 9F       		.byte	0x9f
 12390 0411 28000000 		.4byte	.LVL28
 12391 0415 2E000000 		.4byte	.LVL29
 12392 0419 0D00     		.2byte	0xd
 12393 041b 74       		.byte	0x74
 12394 041c 09       		.sleb128 9
 12395 041d 94       		.byte	0x94
 12396 041e 01       		.byte	0x1
 12397 041f 33       		.byte	0x33
 12398 0420 1A       		.byte	0x1a
 12399 0421 08       		.byte	0x8
 12400 0422 FF       		.byte	0xff
 12401 0423 1A       		.byte	0x1a
 12402 0424 72       		.byte	0x72
 12403 0425 00       		.sleb128 0
 12404 0426 21       		.byte	0x21
 12405 0427 9F       		.byte	0x9f
 12406 0428 00000000 		.4byte	0
 12407 042c 00000000 		.4byte	0
 12408              	.LLST24:
 12409 0430 26000000 		.4byte	.LVL27
 12410 0434 CA000000 		.4byte	.LVL46
 12411 0438 0200     		.2byte	0x2
 12412 043a 40       		.byte	0x40
 12413 043b 9F       		.byte	0x9f
 12414 043c 00000000 		.4byte	0
 12415 0440 00000000 		.4byte	0
 12416              	.LLST25:
 12417 0444 26000000 		.4byte	.LVL27
 12418 0448 C6000000 		.4byte	.LVL45
 12419 044c 0100     		.2byte	0x1
 12420 044e 54       		.byte	0x54
 12421 044f C6000000 		.4byte	.LVL45
 12422 0453 CA000000 		.4byte	.LVL46
 12423 0457 0400     		.2byte	0x4
 12424 0459 F3       		.byte	0xf3
 12425 045a 01       		.uleb128 0x1
 12426 045b 50       		.byte	0x50
ARM GAS  /tmp/ccoI4Tqz.s 			page 219


 12427 045c 9F       		.byte	0x9f
 12428 045d 00000000 		.4byte	0
 12429 0461 00000000 		.4byte	0
 12430              	.LLST26:
 12431 0465 32000000 		.4byte	.LVL30
 12432 0469 CA000000 		.4byte	.LVL46
 12433 046d 0200     		.2byte	0x2
 12434 046f 30       		.byte	0x30
 12435 0470 9F       		.byte	0x9f
 12436 0471 00000000 		.4byte	0
 12437 0475 00000000 		.4byte	0
 12438              	.LLST27:
 12439 0479 32000000 		.4byte	.LVL30
 12440 047d CA000000 		.4byte	.LVL46
 12441 0481 0200     		.2byte	0x2
 12442 0483 41       		.byte	0x41
 12443 0484 9F       		.byte	0x9f
 12444 0485 00000000 		.4byte	0
 12445 0489 00000000 		.4byte	0
 12446              	.LLST28:
 12447 048d 32000000 		.4byte	.LVL30
 12448 0491 C6000000 		.4byte	.LVL45
 12449 0495 0100     		.2byte	0x1
 12450 0497 54       		.byte	0x54
 12451 0498 C6000000 		.4byte	.LVL45
 12452 049c CA000000 		.4byte	.LVL46
 12453 04a0 0400     		.2byte	0x4
 12454 04a2 F3       		.byte	0xf3
 12455 04a3 01       		.uleb128 0x1
 12456 04a4 50       		.byte	0x50
 12457 04a5 9F       		.byte	0x9f
 12458 04a6 00000000 		.4byte	0
 12459 04aa 00000000 		.4byte	0
 12460              	.LLST29:
 12461 04ae 5C000000 		.4byte	.LVL33
 12462 04b2 69000000 		.4byte	.LVL34-1
 12463 04b6 0100     		.2byte	0x1
 12464 04b8 53       		.byte	0x53
 12465 04b9 00000000 		.4byte	0
 12466 04bd 00000000 		.4byte	0
 12467              	.LLST30:
 12468 04c1 5C000000 		.4byte	.LVL33
 12469 04c5 CA000000 		.4byte	.LVL46
 12470 04c9 0200     		.2byte	0x2
 12471 04cb 42       		.byte	0x42
 12472 04cc 9F       		.byte	0x9f
 12473 04cd 00000000 		.4byte	0
 12474 04d1 00000000 		.4byte	0
 12475              	.LLST31:
 12476 04d5 5C000000 		.4byte	.LVL33
 12477 04d9 C6000000 		.4byte	.LVL45
 12478 04dd 0100     		.2byte	0x1
 12479 04df 54       		.byte	0x54
 12480 04e0 C6000000 		.4byte	.LVL45
 12481 04e4 CA000000 		.4byte	.LVL46
 12482 04e8 0400     		.2byte	0x4
 12483 04ea F3       		.byte	0xf3
ARM GAS  /tmp/ccoI4Tqz.s 			page 220


 12484 04eb 01       		.uleb128 0x1
 12485 04ec 50       		.byte	0x50
 12486 04ed 9F       		.byte	0x9f
 12487 04ee 00000000 		.4byte	0
 12488 04f2 00000000 		.4byte	0
 12489              	.LLST32:
 12490 04f6 8E000000 		.4byte	.LVL39
 12491 04fa 9B000000 		.4byte	.LVL40-1
 12492 04fe 0100     		.2byte	0x1
 12493 0500 53       		.byte	0x53
 12494 0501 00000000 		.4byte	0
 12495 0505 00000000 		.4byte	0
 12496              	.LLST33:
 12497 0509 8E000000 		.4byte	.LVL39
 12498 050d CA000000 		.4byte	.LVL46
 12499 0511 0200     		.2byte	0x2
 12500 0513 4E       		.byte	0x4e
 12501 0514 9F       		.byte	0x9f
 12502 0515 00000000 		.4byte	0
 12503 0519 00000000 		.4byte	0
 12504              	.LLST34:
 12505 051d 8E000000 		.4byte	.LVL39
 12506 0521 C6000000 		.4byte	.LVL45
 12507 0525 0100     		.2byte	0x1
 12508 0527 54       		.byte	0x54
 12509 0528 C6000000 		.4byte	.LVL45
 12510 052c CA000000 		.4byte	.LVL46
 12511 0530 0400     		.2byte	0x4
 12512 0532 F3       		.byte	0xf3
 12513 0533 01       		.uleb128 0x1
 12514 0534 50       		.byte	0x50
 12515 0535 9F       		.byte	0x9f
 12516 0536 00000000 		.4byte	0
 12517 053a 00000000 		.4byte	0
 12518              	.LLST35:
 12519 053e B8000000 		.4byte	.LVL44
 12520 0542 C9000000 		.4byte	.LVL46-1
 12521 0546 0100     		.2byte	0x1
 12522 0548 53       		.byte	0x53
 12523 0549 00000000 		.4byte	0
 12524 054d 00000000 		.4byte	0
 12525              	.LLST36:
 12526 0551 B8000000 		.4byte	.LVL44
 12527 0555 CA000000 		.4byte	.LVL46
 12528 0559 0200     		.2byte	0x2
 12529 055b 43       		.byte	0x43
 12530 055c 9F       		.byte	0x9f
 12531 055d 00000000 		.4byte	0
 12532 0561 00000000 		.4byte	0
 12533              	.LLST37:
 12534 0565 B8000000 		.4byte	.LVL44
 12535 0569 C6000000 		.4byte	.LVL45
 12536 056d 0100     		.2byte	0x1
 12537 056f 54       		.byte	0x54
 12538 0570 C6000000 		.4byte	.LVL45
 12539 0574 CA000000 		.4byte	.LVL46
 12540 0578 0400     		.2byte	0x4
ARM GAS  /tmp/ccoI4Tqz.s 			page 221


 12541 057a F3       		.byte	0xf3
 12542 057b 01       		.uleb128 0x1
 12543 057c 50       		.byte	0x50
 12544 057d 9F       		.byte	0x9f
 12545 057e 00000000 		.4byte	0
 12546 0582 00000000 		.4byte	0
 12547              	.LLST38:
 12548 0586 00000000 		.4byte	.LVL49
 12549 058a 24000000 		.4byte	.LVL54
 12550 058e 0100     		.2byte	0x1
 12551 0590 50       		.byte	0x50
 12552 0591 24000000 		.4byte	.LVL54
 12553 0595 84000000 		.4byte	.LVL63
 12554 0599 0100     		.2byte	0x1
 12555 059b 54       		.byte	0x54
 12556 059c 84000000 		.4byte	.LVL63
 12557 05a0 88000000 		.4byte	.LVL64
 12558 05a4 0400     		.2byte	0x4
 12559 05a6 F3       		.byte	0xf3
 12560 05a7 01       		.uleb128 0x1
 12561 05a8 50       		.byte	0x50
 12562 05a9 9F       		.byte	0x9f
 12563 05aa 88000000 		.4byte	.LVL64
 12564 05ae 9A000000 		.4byte	.LFE16
 12565 05b2 0100     		.2byte	0x1
 12566 05b4 54       		.byte	0x54
 12567 05b5 00000000 		.4byte	0
 12568 05b9 00000000 		.4byte	0
 12569              	.LLST39:
 12570 05bd 00000000 		.4byte	.LVL49
 12571 05c1 10000000 		.4byte	.LVL50
 12572 05c5 0200     		.2byte	0x2
 12573 05c7 30       		.byte	0x30
 12574 05c8 9F       		.byte	0x9f
 12575 05c9 10000000 		.4byte	.LVL50
 12576 05cd 16000000 		.4byte	.LVL51
 12577 05d1 0100     		.2byte	0x1
 12578 05d3 53       		.byte	0x53
 12579 05d4 16000000 		.4byte	.LVL51
 12580 05d8 18000000 		.4byte	.LVL52
 12581 05dc 1800     		.2byte	0x18
 12582 05de 08       		.byte	0x8
 12583 05df 20       		.byte	0x20
 12584 05e0 70       		.byte	0x70
 12585 05e1 1B       		.sleb128 27
 12586 05e2 94       		.byte	0x94
 12587 05e3 01       		.byte	0x1
 12588 05e4 08       		.byte	0x8
 12589 05e5 FF       		.byte	0xff
 12590 05e6 1A       		.byte	0x1a
 12591 05e7 70       		.byte	0x70
 12592 05e8 1B       		.sleb128 27
 12593 05e9 94       		.byte	0x94
 12594 05ea 01       		.byte	0x1
 12595 05eb 08       		.byte	0x8
 12596 05ec FF       		.byte	0xff
 12597 05ed 1A       		.byte	0x1a
ARM GAS  /tmp/ccoI4Tqz.s 			page 222


 12598 05ee 30       		.byte	0x30
 12599 05ef 2E       		.byte	0x2e
 12600 05f0 28       		.byte	0x28
 12601 05f1 0100     		.2byte	0x1
 12602 05f3 16       		.byte	0x16
 12603 05f4 13       		.byte	0x13
 12604 05f5 9F       		.byte	0x9f
 12605 05f6 18000000 		.4byte	.LVL52
 12606 05fa 2D000000 		.4byte	.LVL55-1
 12607 05fe 0100     		.2byte	0x1
 12608 0600 53       		.byte	0x53
 12609 0601 2E000000 		.4byte	.LVL55
 12610 0605 38000000 		.4byte	.LVL56
 12611 0609 0200     		.2byte	0x2
 12612 060b 30       		.byte	0x30
 12613 060c 9F       		.byte	0x9f
 12614 060d 38000000 		.4byte	.LVL56
 12615 0611 4C000000 		.4byte	.LVL57
 12616 0615 0100     		.2byte	0x1
 12617 0617 53       		.byte	0x53
 12618 0618 4C000000 		.4byte	.LVL57
 12619 061c 52000000 		.4byte	.LVL58
 12620 0620 0500     		.2byte	0x5
 12621 0622 73       		.byte	0x73
 12622 0623 00       		.sleb128 0
 12623 0624 34       		.byte	0x34
 12624 0625 21       		.byte	0x21
 12625 0626 9F       		.byte	0x9f
 12626 0627 58000000 		.4byte	.LVL59
 12627 062b 65000000 		.4byte	.LVL60-1
 12628 062f 0100     		.2byte	0x1
 12629 0631 53       		.byte	0x53
 12630 0632 66000000 		.4byte	.LVL60
 12631 0636 6A000000 		.4byte	.LVL61
 12632 063a 0200     		.2byte	0x2
 12633 063c 30       		.byte	0x30
 12634 063d 9F       		.byte	0x9f
 12635 063e 6A000000 		.4byte	.LVL61
 12636 0642 76000000 		.4byte	.LVL62
 12637 0646 0300     		.2byte	0x3
 12638 0648 09       		.byte	0x9
 12639 0649 80       		.byte	0x80
 12640 064a 9F       		.byte	0x9f
 12641 064b 76000000 		.4byte	.LVL62
 12642 064f 87000000 		.4byte	.LVL64-1
 12643 0653 0100     		.2byte	0x1
 12644 0655 53       		.byte	0x53
 12645 0656 88000000 		.4byte	.LVL64
 12646 065a 9A000000 		.4byte	.LFE16
 12647 065e 0100     		.2byte	0x1
 12648 0660 53       		.byte	0x53
 12649 0661 00000000 		.4byte	0
 12650 0665 00000000 		.4byte	0
 12651              	.LLST40:
 12652 0669 20000000 		.4byte	.LVL53
 12653 066d 2D000000 		.4byte	.LVL55-1
 12654 0671 0100     		.2byte	0x1
ARM GAS  /tmp/ccoI4Tqz.s 			page 223


 12655 0673 53       		.byte	0x53
 12656 0674 00000000 		.4byte	0
 12657 0678 00000000 		.4byte	0
 12658              	.LLST41:
 12659 067c 20000000 		.4byte	.LVL53
 12660 0680 24000000 		.4byte	.LVL54
 12661 0684 0100     		.2byte	0x1
 12662 0686 50       		.byte	0x50
 12663 0687 24000000 		.4byte	.LVL54
 12664 068b 84000000 		.4byte	.LVL63
 12665 068f 0100     		.2byte	0x1
 12666 0691 54       		.byte	0x54
 12667 0692 84000000 		.4byte	.LVL63
 12668 0696 88000000 		.4byte	.LVL64
 12669 069a 0400     		.2byte	0x4
 12670 069c F3       		.byte	0xf3
 12671 069d 01       		.uleb128 0x1
 12672 069e 50       		.byte	0x50
 12673 069f 9F       		.byte	0x9f
 12674 06a0 88000000 		.4byte	.LVL64
 12675 06a4 9A000000 		.4byte	.LFE16
 12676 06a8 0100     		.2byte	0x1
 12677 06aa 54       		.byte	0x54
 12678 06ab 00000000 		.4byte	0
 12679 06af 00000000 		.4byte	0
 12680              	.LLST42:
 12681 06b3 58000000 		.4byte	.LVL59
 12682 06b7 65000000 		.4byte	.LVL60-1
 12683 06bb 0100     		.2byte	0x1
 12684 06bd 53       		.byte	0x53
 12685 06be 00000000 		.4byte	0
 12686 06c2 00000000 		.4byte	0
 12687              	.LLST43:
 12688 06c6 58000000 		.4byte	.LVL59
 12689 06ca 88000000 		.4byte	.LVL64
 12690 06ce 0300     		.2byte	0x3
 12691 06d0 08       		.byte	0x8
 12692 06d1 20       		.byte	0x20
 12693 06d2 9F       		.byte	0x9f
 12694 06d3 00000000 		.4byte	0
 12695 06d7 00000000 		.4byte	0
 12696              	.LLST44:
 12697 06db 58000000 		.4byte	.LVL59
 12698 06df 84000000 		.4byte	.LVL63
 12699 06e3 0100     		.2byte	0x1
 12700 06e5 54       		.byte	0x54
 12701 06e6 84000000 		.4byte	.LVL63
 12702 06ea 88000000 		.4byte	.LVL64
 12703 06ee 0400     		.2byte	0x4
 12704 06f0 F3       		.byte	0xf3
 12705 06f1 01       		.uleb128 0x1
 12706 06f2 50       		.byte	0x50
 12707 06f3 9F       		.byte	0x9f
 12708 06f4 00000000 		.4byte	0
 12709 06f8 00000000 		.4byte	0
 12710              	.LLST45:
 12711 06fc 76000000 		.4byte	.LVL62
ARM GAS  /tmp/ccoI4Tqz.s 			page 224


 12712 0700 87000000 		.4byte	.LVL64-1
 12713 0704 0100     		.2byte	0x1
 12714 0706 53       		.byte	0x53
 12715 0707 00000000 		.4byte	0
 12716 070b 00000000 		.4byte	0
 12717              	.LLST46:
 12718 070f 76000000 		.4byte	.LVL62
 12719 0713 88000000 		.4byte	.LVL64
 12720 0717 0300     		.2byte	0x3
 12721 0719 08       		.byte	0x8
 12722 071a 21       		.byte	0x21
 12723 071b 9F       		.byte	0x9f
 12724 071c 00000000 		.4byte	0
 12725 0720 00000000 		.4byte	0
 12726              	.LLST47:
 12727 0724 76000000 		.4byte	.LVL62
 12728 0728 84000000 		.4byte	.LVL63
 12729 072c 0100     		.2byte	0x1
 12730 072e 54       		.byte	0x54
 12731 072f 84000000 		.4byte	.LVL63
 12732 0733 88000000 		.4byte	.LVL64
 12733 0737 0400     		.2byte	0x4
 12734 0739 F3       		.byte	0xf3
 12735 073a 01       		.uleb128 0x1
 12736 073b 50       		.byte	0x50
 12737 073c 9F       		.byte	0x9f
 12738 073d 00000000 		.4byte	0
 12739 0741 00000000 		.4byte	0
 12740              	.LLST48:
 12741 0745 00000000 		.4byte	.LVL68
 12742 0749 09000000 		.4byte	.LVL69-1
 12743 074d 0100     		.2byte	0x1
 12744 074f 50       		.byte	0x50
 12745 0750 09000000 		.4byte	.LVL69-1
 12746 0754 0A000000 		.4byte	.LFE19
 12747 0758 0400     		.2byte	0x4
 12748 075a F3       		.byte	0xf3
 12749 075b 01       		.uleb128 0x1
 12750 075c 50       		.byte	0x50
 12751 075d 9F       		.byte	0x9f
 12752 075e 00000000 		.4byte	0
 12753 0762 00000000 		.4byte	0
 12754              	.LLST49:
 12755 0766 00000000 		.4byte	.LVL68
 12756 076a 09000000 		.4byte	.LVL69-1
 12757 076e 0100     		.2byte	0x1
 12758 0770 51       		.byte	0x51
 12759 0771 09000000 		.4byte	.LVL69-1
 12760 0775 0A000000 		.4byte	.LFE19
 12761 0779 0400     		.2byte	0x4
 12762 077b F3       		.byte	0xf3
 12763 077c 01       		.uleb128 0x1
 12764 077d 51       		.byte	0x51
 12765 077e 9F       		.byte	0x9f
 12766 077f 00000000 		.4byte	0
 12767 0783 00000000 		.4byte	0
 12768              	.LLST50:
ARM GAS  /tmp/ccoI4Tqz.s 			page 225


 12769 0787 00000000 		.4byte	.LVL68
 12770 078b 09000000 		.4byte	.LVL69-1
 12771 078f 0100     		.2byte	0x1
 12772 0791 52       		.byte	0x52
 12773 0792 09000000 		.4byte	.LVL69-1
 12774 0796 0A000000 		.4byte	.LFE19
 12775 079a 0400     		.2byte	0x4
 12776 079c F3       		.byte	0xf3
 12777 079d 01       		.uleb128 0x1
 12778 079e 52       		.byte	0x52
 12779 079f 9F       		.byte	0x9f
 12780 07a0 00000000 		.4byte	0
 12781 07a4 00000000 		.4byte	0
 12782              	.LLST51:
 12783 07a8 00000000 		.4byte	.LVL70
 12784 07ac 34000000 		.4byte	.LVL73
 12785 07b0 0100     		.2byte	0x1
 12786 07b2 50       		.byte	0x50
 12787 07b3 34000000 		.4byte	.LVL73
 12788 07b7 A4000000 		.4byte	.LVL81
 12789 07bb 0100     		.2byte	0x1
 12790 07bd 54       		.byte	0x54
 12791 07be A4000000 		.4byte	.LVL81
 12792 07c2 AC000000 		.4byte	.LFE20
 12793 07c6 0400     		.2byte	0x4
 12794 07c8 F3       		.byte	0xf3
 12795 07c9 01       		.uleb128 0x1
 12796 07ca 50       		.byte	0x50
 12797 07cb 9F       		.byte	0x9f
 12798 07cc 00000000 		.4byte	0
 12799 07d0 00000000 		.4byte	0
 12800              	.LLST52:
 12801 07d4 00000000 		.4byte	.LVL70
 12802 07d8 24000000 		.4byte	.LVL71
 12803 07dc 0200     		.2byte	0x2
 12804 07de 30       		.byte	0x30
 12805 07df 9F       		.byte	0x9f
 12806 07e0 24000000 		.4byte	.LVL71
 12807 07e4 30000000 		.4byte	.LVL72
 12808 07e8 1500     		.2byte	0x15
 12809 07ea 70       		.byte	0x70
 12810 07eb 21       		.sleb128 33
 12811 07ec 94       		.byte	0x94
 12812 07ed 01       		.byte	0x1
 12813 07ee 37       		.byte	0x37
 12814 07ef 1A       		.byte	0x1a
 12815 07f0 32       		.byte	0x32
 12816 07f1 24       		.byte	0x24
 12817 07f2 70       		.byte	0x70
 12818 07f3 23       		.sleb128 35
 12819 07f4 94       		.byte	0x94
 12820 07f5 01       		.byte	0x1
 12821 07f6 33       		.byte	0x33
 12822 07f7 1A       		.byte	0x1a
 12823 07f8 35       		.byte	0x35
 12824 07f9 24       		.byte	0x24
 12825 07fa 21       		.byte	0x21
ARM GAS  /tmp/ccoI4Tqz.s 			page 226


 12826 07fb 71       		.byte	0x71
 12827 07fc 00       		.sleb128 0
 12828 07fd 21       		.byte	0x21
 12829 07fe 9F       		.byte	0x9f
 12830 07ff 38000000 		.4byte	.LVL74
 12831 0803 4E000000 		.4byte	.LVL75
 12832 0807 0200     		.2byte	0x2
 12833 0809 30       		.byte	0x30
 12834 080a 9F       		.byte	0x9f
 12835 080b 4E000000 		.4byte	.LVL75
 12836 080f 57000000 		.4byte	.LVL76-1
 12837 0813 0100     		.2byte	0x1
 12838 0815 53       		.byte	0x53
 12839 0816 58000000 		.4byte	.LVL76
 12840 081a 68000000 		.4byte	.LVL77
 12841 081e 0200     		.2byte	0x2
 12842 0820 30       		.byte	0x30
 12843 0821 9F       		.byte	0x9f
 12844 0822 68000000 		.4byte	.LVL77
 12845 0826 78000000 		.4byte	.LVL78
 12846 082a 0A00     		.2byte	0xa
 12847 082c 74       		.byte	0x74
 12848 082d 26       		.sleb128 38
 12849 082e 94       		.byte	0x94
 12850 082f 01       		.byte	0x1
 12851 0830 33       		.byte	0x33
 12852 0831 1A       		.byte	0x1a
 12853 0832 72       		.byte	0x72
 12854 0833 00       		.sleb128 0
 12855 0834 21       		.byte	0x21
 12856 0835 9F       		.byte	0x9f
 12857 0836 7C000000 		.4byte	.LVL79
 12858 083a 93000000 		.4byte	.LVL80-1
 12859 083e 0900     		.2byte	0x9
 12860 0840 74       		.byte	0x74
 12861 0841 24       		.sleb128 36
 12862 0842 94       		.byte	0x94
 12863 0843 01       		.byte	0x1
 12864 0844 33       		.byte	0x33
 12865 0845 1A       		.byte	0x1a
 12866 0846 32       		.byte	0x32
 12867 0847 24       		.byte	0x24
 12868 0848 9F       		.byte	0x9f
 12869 0849 94000000 		.4byte	.LVL80
 12870 084d AC000000 		.4byte	.LFE20
 12871 0851 0200     		.2byte	0x2
 12872 0853 30       		.byte	0x30
 12873 0854 9F       		.byte	0x9f
 12874 0855 00000000 		.4byte	0
 12875 0859 00000000 		.4byte	0
 12876              	.LLST53:
 12877 085d 24000000 		.4byte	.LVL71
 12878 0861 30000000 		.4byte	.LVL72
 12879 0865 1500     		.2byte	0x15
 12880 0867 70       		.byte	0x70
 12881 0868 21       		.sleb128 33
 12882 0869 94       		.byte	0x94
ARM GAS  /tmp/ccoI4Tqz.s 			page 227


 12883 086a 01       		.byte	0x1
 12884 086b 37       		.byte	0x37
 12885 086c 1A       		.byte	0x1a
 12886 086d 32       		.byte	0x32
 12887 086e 24       		.byte	0x24
 12888 086f 70       		.byte	0x70
 12889 0870 23       		.sleb128 35
 12890 0871 94       		.byte	0x94
 12891 0872 01       		.byte	0x1
 12892 0873 33       		.byte	0x33
 12893 0874 1A       		.byte	0x1a
 12894 0875 35       		.byte	0x35
 12895 0876 24       		.byte	0x24
 12896 0877 21       		.byte	0x21
 12897 0878 71       		.byte	0x71
 12898 0879 00       		.sleb128 0
 12899 087a 21       		.byte	0x21
 12900 087b 9F       		.byte	0x9f
 12901 087c 00000000 		.4byte	0
 12902 0880 00000000 		.4byte	0
 12903              	.LLST54:
 12904 0884 24000000 		.4byte	.LVL71
 12905 0888 34000000 		.4byte	.LVL73
 12906 088c 0100     		.2byte	0x1
 12907 088e 50       		.byte	0x50
 12908 088f 34000000 		.4byte	.LVL73
 12909 0893 A4000000 		.4byte	.LVL81
 12910 0897 0100     		.2byte	0x1
 12911 0899 54       		.byte	0x54
 12912 089a A4000000 		.4byte	.LVL81
 12913 089e AC000000 		.4byte	.LFE20
 12914 08a2 0400     		.2byte	0x4
 12915 08a4 F3       		.byte	0xf3
 12916 08a5 01       		.uleb128 0x1
 12917 08a6 50       		.byte	0x50
 12918 08a7 9F       		.byte	0x9f
 12919 08a8 00000000 		.4byte	0
 12920 08ac 00000000 		.4byte	0
 12921              	.LLST55:
 12922 08b0 4E000000 		.4byte	.LVL75
 12923 08b4 57000000 		.4byte	.LVL76-1
 12924 08b8 0100     		.2byte	0x1
 12925 08ba 53       		.byte	0x53
 12926 08bb 00000000 		.4byte	0
 12927 08bf 00000000 		.4byte	0
 12928              	.LLST56:
 12929 08c3 4E000000 		.4byte	.LVL75
 12930 08c7 A4000000 		.4byte	.LVL81
 12931 08cb 0100     		.2byte	0x1
 12932 08cd 54       		.byte	0x54
 12933 08ce A4000000 		.4byte	.LVL81
 12934 08d2 AC000000 		.4byte	.LFE20
 12935 08d6 0400     		.2byte	0x4
 12936 08d8 F3       		.byte	0xf3
 12937 08d9 01       		.uleb128 0x1
 12938 08da 50       		.byte	0x50
 12939 08db 9F       		.byte	0x9f
ARM GAS  /tmp/ccoI4Tqz.s 			page 228


 12940 08dc 00000000 		.4byte	0
 12941 08e0 00000000 		.4byte	0
 12942              	.LLST57:
 12943 08e4 68000000 		.4byte	.LVL77
 12944 08e8 78000000 		.4byte	.LVL78
 12945 08ec 0A00     		.2byte	0xa
 12946 08ee 74       		.byte	0x74
 12947 08ef 26       		.sleb128 38
 12948 08f0 94       		.byte	0x94
 12949 08f1 01       		.byte	0x1
 12950 08f2 33       		.byte	0x33
 12951 08f3 1A       		.byte	0x1a
 12952 08f4 72       		.byte	0x72
 12953 08f5 00       		.sleb128 0
 12954 08f6 21       		.byte	0x21
 12955 08f7 9F       		.byte	0x9f
 12956 08f8 00000000 		.4byte	0
 12957 08fc 00000000 		.4byte	0
 12958              	.LLST58:
 12959 0900 68000000 		.4byte	.LVL77
 12960 0904 A4000000 		.4byte	.LVL81
 12961 0908 0100     		.2byte	0x1
 12962 090a 54       		.byte	0x54
 12963 090b A4000000 		.4byte	.LVL81
 12964 090f AC000000 		.4byte	.LFE20
 12965 0913 0400     		.2byte	0x4
 12966 0915 F3       		.byte	0xf3
 12967 0916 01       		.uleb128 0x1
 12968 0917 50       		.byte	0x50
 12969 0918 9F       		.byte	0x9f
 12970 0919 00000000 		.4byte	0
 12971 091d 00000000 		.4byte	0
 12972              	.LLST59:
 12973 0921 7C000000 		.4byte	.LVL79
 12974 0925 93000000 		.4byte	.LVL80-1
 12975 0929 0900     		.2byte	0x9
 12976 092b 74       		.byte	0x74
 12977 092c 24       		.sleb128 36
 12978 092d 94       		.byte	0x94
 12979 092e 01       		.byte	0x1
 12980 092f 33       		.byte	0x33
 12981 0930 1A       		.byte	0x1a
 12982 0931 32       		.byte	0x32
 12983 0932 24       		.byte	0x24
 12984 0933 9F       		.byte	0x9f
 12985 0934 00000000 		.4byte	0
 12986 0938 00000000 		.4byte	0
 12987              	.LLST60:
 12988 093c 7C000000 		.4byte	.LVL79
 12989 0940 A4000000 		.4byte	.LVL81
 12990 0944 0100     		.2byte	0x1
 12991 0946 54       		.byte	0x54
 12992 0947 A4000000 		.4byte	.LVL81
 12993 094b AC000000 		.4byte	.LFE20
 12994 094f 0400     		.2byte	0x4
 12995 0951 F3       		.byte	0xf3
 12996 0952 01       		.uleb128 0x1
ARM GAS  /tmp/ccoI4Tqz.s 			page 229


 12997 0953 50       		.byte	0x50
 12998 0954 9F       		.byte	0x9f
 12999 0955 00000000 		.4byte	0
 13000 0959 00000000 		.4byte	0
 13001              	.LLST61:
 13002 095d 94000000 		.4byte	.LVL80
 13003 0961 A4000000 		.4byte	.LVL81
 13004 0965 0100     		.2byte	0x1
 13005 0967 54       		.byte	0x54
 13006 0968 A4000000 		.4byte	.LVL81
 13007 096c AC000000 		.4byte	.LFE20
 13008 0970 0400     		.2byte	0x4
 13009 0972 F3       		.byte	0xf3
 13010 0973 01       		.uleb128 0x1
 13011 0974 50       		.byte	0x50
 13012 0975 9F       		.byte	0x9f
 13013 0976 00000000 		.4byte	0
 13014 097a 00000000 		.4byte	0
 13015              	.LLST62:
 13016 097e 00000000 		.4byte	.LVL83
 13017 0982 0E000000 		.4byte	.LVL85
 13018 0986 0100     		.2byte	0x1
 13019 0988 50       		.byte	0x50
 13020 0989 0E000000 		.4byte	.LVL85
 13021 098d 11000000 		.4byte	.LVL86-1
 13022 0991 0100     		.2byte	0x1
 13023 0993 53       		.byte	0x53
 13024 0994 11000000 		.4byte	.LVL86-1
 13025 0998 18000000 		.4byte	.LFE21
 13026 099c 0400     		.2byte	0x4
 13027 099e F3       		.byte	0xf3
 13028 099f 01       		.uleb128 0x1
 13029 09a0 50       		.byte	0x50
 13030 09a1 9F       		.byte	0x9f
 13031 09a2 00000000 		.4byte	0
 13032 09a6 00000000 		.4byte	0
 13033              	.LLST63:
 13034 09aa 12000000 		.4byte	.LVL86
 13035 09ae 16000000 		.4byte	.LVL87
 13036 09b2 0100     		.2byte	0x1
 13037 09b4 50       		.byte	0x50
 13038 09b5 00000000 		.4byte	0
 13039 09b9 00000000 		.4byte	0
 13040              	.LLST64:
 13041 09bd 04000000 		.4byte	.LVL84
 13042 09c1 0E000000 		.4byte	.LVL85
 13043 09c5 0100     		.2byte	0x1
 13044 09c7 50       		.byte	0x50
 13045 09c8 0E000000 		.4byte	.LVL85
 13046 09cc 11000000 		.4byte	.LVL86-1
 13047 09d0 0100     		.2byte	0x1
 13048 09d2 53       		.byte	0x53
 13049 09d3 11000000 		.4byte	.LVL86-1
 13050 09d7 18000000 		.4byte	.LFE21
 13051 09db 0400     		.2byte	0x4
 13052 09dd F3       		.byte	0xf3
 13053 09de 01       		.uleb128 0x1
ARM GAS  /tmp/ccoI4Tqz.s 			page 230


 13054 09df 50       		.byte	0x50
 13055 09e0 9F       		.byte	0x9f
 13056 09e1 00000000 		.4byte	0
 13057 09e5 00000000 		.4byte	0
 13058              	.LLST65:
 13059 09e9 00000000 		.4byte	.LVL88
 13060 09ed 0E000000 		.4byte	.LVL90
 13061 09f1 0100     		.2byte	0x1
 13062 09f3 50       		.byte	0x50
 13063 09f4 0E000000 		.4byte	.LVL90
 13064 09f8 11000000 		.4byte	.LVL91-1
 13065 09fc 0100     		.2byte	0x1
 13066 09fe 53       		.byte	0x53
 13067 09ff 11000000 		.4byte	.LVL91-1
 13068 0a03 18000000 		.4byte	.LFE22
 13069 0a07 0400     		.2byte	0x4
 13070 0a09 F3       		.byte	0xf3
 13071 0a0a 01       		.uleb128 0x1
 13072 0a0b 50       		.byte	0x50
 13073 0a0c 9F       		.byte	0x9f
 13074 0a0d 00000000 		.4byte	0
 13075 0a11 00000000 		.4byte	0
 13076              	.LLST66:
 13077 0a15 12000000 		.4byte	.LVL91
 13078 0a19 16000000 		.4byte	.LVL92
 13079 0a1d 0100     		.2byte	0x1
 13080 0a1f 50       		.byte	0x50
 13081 0a20 00000000 		.4byte	0
 13082 0a24 00000000 		.4byte	0
 13083              	.LLST67:
 13084 0a28 04000000 		.4byte	.LVL89
 13085 0a2c 0E000000 		.4byte	.LVL90
 13086 0a30 0100     		.2byte	0x1
 13087 0a32 50       		.byte	0x50
 13088 0a33 0E000000 		.4byte	.LVL90
 13089 0a37 11000000 		.4byte	.LVL91-1
 13090 0a3b 0100     		.2byte	0x1
 13091 0a3d 53       		.byte	0x53
 13092 0a3e 11000000 		.4byte	.LVL91-1
 13093 0a42 18000000 		.4byte	.LFE22
 13094 0a46 0400     		.2byte	0x4
 13095 0a48 F3       		.byte	0xf3
 13096 0a49 01       		.uleb128 0x1
 13097 0a4a 50       		.byte	0x50
 13098 0a4b 9F       		.byte	0x9f
 13099 0a4c 00000000 		.4byte	0
 13100 0a50 00000000 		.4byte	0
 13101              	.LLST68:
 13102 0a54 00000000 		.4byte	.LVL93
 13103 0a58 0E000000 		.4byte	.LVL95
 13104 0a5c 0100     		.2byte	0x1
 13105 0a5e 50       		.byte	0x50
 13106 0a5f 0E000000 		.4byte	.LVL95
 13107 0a63 11000000 		.4byte	.LVL96-1
 13108 0a67 0100     		.2byte	0x1
 13109 0a69 53       		.byte	0x53
 13110 0a6a 11000000 		.4byte	.LVL96-1
ARM GAS  /tmp/ccoI4Tqz.s 			page 231


 13111 0a6e 18000000 		.4byte	.LFE23
 13112 0a72 0400     		.2byte	0x4
 13113 0a74 F3       		.byte	0xf3
 13114 0a75 01       		.uleb128 0x1
 13115 0a76 50       		.byte	0x50
 13116 0a77 9F       		.byte	0x9f
 13117 0a78 00000000 		.4byte	0
 13118 0a7c 00000000 		.4byte	0
 13119              	.LLST69:
 13120 0a80 12000000 		.4byte	.LVL96
 13121 0a84 16000000 		.4byte	.LVL97
 13122 0a88 0100     		.2byte	0x1
 13123 0a8a 50       		.byte	0x50
 13124 0a8b 00000000 		.4byte	0
 13125 0a8f 00000000 		.4byte	0
 13126              	.LLST70:
 13127 0a93 04000000 		.4byte	.LVL94
 13128 0a97 0E000000 		.4byte	.LVL95
 13129 0a9b 0100     		.2byte	0x1
 13130 0a9d 50       		.byte	0x50
 13131 0a9e 0E000000 		.4byte	.LVL95
 13132 0aa2 11000000 		.4byte	.LVL96-1
 13133 0aa6 0100     		.2byte	0x1
 13134 0aa8 53       		.byte	0x53
 13135 0aa9 11000000 		.4byte	.LVL96-1
 13136 0aad 18000000 		.4byte	.LFE23
 13137 0ab1 0400     		.2byte	0x4
 13138 0ab3 F3       		.byte	0xf3
 13139 0ab4 01       		.uleb128 0x1
 13140 0ab5 50       		.byte	0x50
 13141 0ab6 9F       		.byte	0x9f
 13142 0ab7 00000000 		.4byte	0
 13143 0abb 00000000 		.4byte	0
 13144              	.LLST71:
 13145 0abf 00000000 		.4byte	.LVL98
 13146 0ac3 0C000000 		.4byte	.LVL100
 13147 0ac7 0100     		.2byte	0x1
 13148 0ac9 50       		.byte	0x50
 13149 0aca 0C000000 		.4byte	.LVL100
 13150 0ace 13000000 		.4byte	.LVL102-1
 13151 0ad2 0100     		.2byte	0x1
 13152 0ad4 53       		.byte	0x53
 13153 0ad5 13000000 		.4byte	.LVL102-1
 13154 0ad9 20000000 		.4byte	.LFE24
 13155 0add 0400     		.2byte	0x4
 13156 0adf F3       		.byte	0xf3
 13157 0ae0 01       		.uleb128 0x1
 13158 0ae1 50       		.byte	0x50
 13159 0ae2 9F       		.byte	0x9f
 13160 0ae3 00000000 		.4byte	0
 13161 0ae7 00000000 		.4byte	0
 13162              	.LLST72:
 13163 0aeb 00000000 		.4byte	.LVL98
 13164 0aef 10000000 		.4byte	.LVL101
 13165 0af3 0100     		.2byte	0x1
 13166 0af5 51       		.byte	0x51
 13167 0af6 10000000 		.4byte	.LVL101
ARM GAS  /tmp/ccoI4Tqz.s 			page 232


 13168 0afa 20000000 		.4byte	.LFE24
 13169 0afe 0400     		.2byte	0x4
 13170 0b00 F3       		.byte	0xf3
 13171 0b01 01       		.uleb128 0x1
 13172 0b02 51       		.byte	0x51
 13173 0b03 9F       		.byte	0x9f
 13174 0b04 00000000 		.4byte	0
 13175 0b08 00000000 		.4byte	0
 13176              	.LLST73:
 13177 0b0c 14000000 		.4byte	.LVL102
 13178 0b10 1A000000 		.4byte	.LVL103
 13179 0b14 0100     		.2byte	0x1
 13180 0b16 50       		.byte	0x50
 13181 0b17 00000000 		.4byte	0
 13182 0b1b 00000000 		.4byte	0
 13183              	.LLST74:
 13184 0b1f 02000000 		.4byte	.LVL99
 13185 0b23 0C000000 		.4byte	.LVL100
 13186 0b27 0100     		.2byte	0x1
 13187 0b29 50       		.byte	0x50
 13188 0b2a 0C000000 		.4byte	.LVL100
 13189 0b2e 13000000 		.4byte	.LVL102-1
 13190 0b32 0100     		.2byte	0x1
 13191 0b34 53       		.byte	0x53
 13192 0b35 13000000 		.4byte	.LVL102-1
 13193 0b39 20000000 		.4byte	.LFE24
 13194 0b3d 0400     		.2byte	0x4
 13195 0b3f F3       		.byte	0xf3
 13196 0b40 01       		.uleb128 0x1
 13197 0b41 50       		.byte	0x50
 13198 0b42 9F       		.byte	0x9f
 13199 0b43 00000000 		.4byte	0
 13200 0b47 00000000 		.4byte	0
 13201              	.LLST75:
 13202 0b4b 00000000 		.4byte	.LVL104
 13203 0b4f 10000000 		.4byte	.LVL107
 13204 0b53 0100     		.2byte	0x1
 13205 0b55 50       		.byte	0x50
 13206 0b56 10000000 		.4byte	.LVL107
 13207 0b5a 66000000 		.4byte	.LFE25
 13208 0b5e 0100     		.2byte	0x1
 13209 0b60 54       		.byte	0x54
 13210 0b61 00000000 		.4byte	0
 13211 0b65 00000000 		.4byte	0
 13212              	.LLST76:
 13213 0b69 06000000 		.4byte	.LVL106
 13214 0b6d 16000000 		.4byte	.LVL108
 13215 0b71 0300     		.2byte	0x3
 13216 0b73 91       		.byte	0x91
 13217 0b74 60       		.sleb128 -32
 13218 0b75 9F       		.byte	0x9f
 13219 0b76 16000000 		.4byte	.LVL108
 13220 0b7a 19000000 		.4byte	.LVL109-1
 13221 0b7e 0100     		.2byte	0x1
 13222 0b80 53       		.byte	0x53
 13223 0b81 19000000 		.4byte	.LVL109-1
 13224 0b85 66000000 		.4byte	.LFE25
ARM GAS  /tmp/ccoI4Tqz.s 			page 233


 13225 0b89 0300     		.2byte	0x3
 13226 0b8b 91       		.byte	0x91
 13227 0b8c 60       		.sleb128 -32
 13228 0b8d 9F       		.byte	0x9f
 13229 0b8e 00000000 		.4byte	0
 13230 0b92 00000000 		.4byte	0
 13231              	.LLST77:
 13232 0b96 04000000 		.4byte	.LVL105
 13233 0b9a 10000000 		.4byte	.LVL107
 13234 0b9e 0100     		.2byte	0x1
 13235 0ba0 50       		.byte	0x50
 13236 0ba1 10000000 		.4byte	.LVL107
 13237 0ba5 66000000 		.4byte	.LFE25
 13238 0ba9 0100     		.2byte	0x1
 13239 0bab 54       		.byte	0x54
 13240 0bac 00000000 		.4byte	0
 13241 0bb0 00000000 		.4byte	0
 13242              	.LLST78:
 13243 0bb4 00000000 		.4byte	.LVL110
 13244 0bb8 12000000 		.4byte	.LVL113
 13245 0bbc 0100     		.2byte	0x1
 13246 0bbe 50       		.byte	0x50
 13247 0bbf 12000000 		.4byte	.LVL113
 13248 0bc3 3A000000 		.4byte	.LVL118
 13249 0bc7 0100     		.2byte	0x1
 13250 0bc9 54       		.byte	0x54
 13251 0bca 3A000000 		.4byte	.LVL118
 13252 0bce 48000000 		.4byte	.LFE26
 13253 0bd2 0400     		.2byte	0x4
 13254 0bd4 F3       		.byte	0xf3
 13255 0bd5 01       		.uleb128 0x1
 13256 0bd6 50       		.byte	0x50
 13257 0bd7 9F       		.byte	0x9f
 13258 0bd8 00000000 		.4byte	0
 13259 0bdc 00000000 		.4byte	0
 13260              	.LLST79:
 13261 0be0 00000000 		.4byte	.LVL110
 13262 0be4 1C000000 		.4byte	.LVL114
 13263 0be8 0100     		.2byte	0x1
 13264 0bea 51       		.byte	0x51
 13265 0beb 1C000000 		.4byte	.LVL114
 13266 0bef 48000000 		.4byte	.LFE26
 13267 0bf3 0400     		.2byte	0x4
 13268 0bf5 F3       		.byte	0xf3
 13269 0bf6 01       		.uleb128 0x1
 13270 0bf7 51       		.byte	0x51
 13271 0bf8 9F       		.byte	0x9f
 13272 0bf9 00000000 		.4byte	0
 13273 0bfd 00000000 		.4byte	0
 13274              	.LLST80:
 13275 0c01 34000000 		.4byte	.LVL117
 13276 0c05 40000000 		.4byte	.LVL119
 13277 0c09 0100     		.2byte	0x1
 13278 0c0b 50       		.byte	0x50
 13279 0c0c 40000000 		.4byte	.LVL119
 13280 0c10 42000000 		.4byte	.LVL120
 13281 0c14 1200     		.2byte	0x12
ARM GAS  /tmp/ccoI4Tqz.s 			page 234


 13282 0c16 91       		.byte	0x91
 13283 0c17 6D       		.sleb128 -19
 13284 0c18 94       		.byte	0x94
 13285 0c19 01       		.byte	0x1
 13286 0c1a 08       		.byte	0x8
 13287 0c1b FF       		.byte	0xff
 13288 0c1c 1A       		.byte	0x1a
 13289 0c1d 38       		.byte	0x38
 13290 0c1e 24       		.byte	0x24
 13291 0c1f 91       		.byte	0x91
 13292 0c20 6C       		.sleb128 -20
 13293 0c21 94       		.byte	0x94
 13294 0c22 01       		.byte	0x1
 13295 0c23 08       		.byte	0x8
 13296 0c24 FF       		.byte	0xff
 13297 0c25 1A       		.byte	0x1a
 13298 0c26 21       		.byte	0x21
 13299 0c27 9F       		.byte	0x9f
 13300 0c28 42000000 		.4byte	.LVL120
 13301 0c2c 48000000 		.4byte	.LFE26
 13302 0c30 0100     		.2byte	0x1
 13303 0c32 50       		.byte	0x50
 13304 0c33 00000000 		.4byte	0
 13305 0c37 00000000 		.4byte	0
 13306              	.LLST81:
 13307 0c3b 0A000000 		.4byte	.LVL112
 13308 0c3f 20000000 		.4byte	.LVL115
 13309 0c43 0300     		.2byte	0x3
 13310 0c45 91       		.byte	0x91
 13311 0c46 6C       		.sleb128 -20
 13312 0c47 9F       		.byte	0x9f
 13313 0c48 20000000 		.4byte	.LVL115
 13314 0c4c 23000000 		.4byte	.LVL116-1
 13315 0c50 0100     		.2byte	0x1
 13316 0c52 53       		.byte	0x53
 13317 0c53 23000000 		.4byte	.LVL116-1
 13318 0c57 48000000 		.4byte	.LFE26
 13319 0c5b 0300     		.2byte	0x3
 13320 0c5d 91       		.byte	0x91
 13321 0c5e 6C       		.sleb128 -20
 13322 0c5f 9F       		.byte	0x9f
 13323 0c60 00000000 		.4byte	0
 13324 0c64 00000000 		.4byte	0
 13325              	.LLST82:
 13326 0c68 04000000 		.4byte	.LVL111
 13327 0c6c 1C000000 		.4byte	.LVL114
 13328 0c70 0500     		.2byte	0x5
 13329 0c72 71       		.byte	0x71
 13330 0c73 14       		.sleb128 20
 13331 0c74 31       		.byte	0x31
 13332 0c75 24       		.byte	0x24
 13333 0c76 9F       		.byte	0x9f
 13334 0c77 1C000000 		.4byte	.LVL114
 13335 0c7b 48000000 		.4byte	.LFE26
 13336 0c7f 0800     		.2byte	0x8
 13337 0c81 F3       		.byte	0xf3
 13338 0c82 01       		.uleb128 0x1
ARM GAS  /tmp/ccoI4Tqz.s 			page 235


 13339 0c83 51       		.byte	0x51
 13340 0c84 23       		.byte	0x23
 13341 0c85 14       		.uleb128 0x14
 13342 0c86 31       		.byte	0x31
 13343 0c87 24       		.byte	0x24
 13344 0c88 9F       		.byte	0x9f
 13345 0c89 00000000 		.4byte	0
 13346 0c8d 00000000 		.4byte	0
 13347              	.LLST83:
 13348 0c91 04000000 		.4byte	.LVL111
 13349 0c95 12000000 		.4byte	.LVL113
 13350 0c99 0100     		.2byte	0x1
 13351 0c9b 50       		.byte	0x50
 13352 0c9c 12000000 		.4byte	.LVL113
 13353 0ca0 3A000000 		.4byte	.LVL118
 13354 0ca4 0100     		.2byte	0x1
 13355 0ca6 54       		.byte	0x54
 13356 0ca7 3A000000 		.4byte	.LVL118
 13357 0cab 48000000 		.4byte	.LFE26
 13358 0caf 0400     		.2byte	0x4
 13359 0cb1 F3       		.byte	0xf3
 13360 0cb2 01       		.uleb128 0x1
 13361 0cb3 50       		.byte	0x50
 13362 0cb4 9F       		.byte	0x9f
 13363 0cb5 00000000 		.4byte	0
 13364 0cb9 00000000 		.4byte	0
 13365              	.LLST84:
 13366 0cbd 00000000 		.4byte	.LVL121
 13367 0cc1 10000000 		.4byte	.LVL124
 13368 0cc5 0100     		.2byte	0x1
 13369 0cc7 50       		.byte	0x50
 13370 0cc8 10000000 		.4byte	.LVL124
 13371 0ccc 48000000 		.4byte	.LFE27
 13372 0cd0 0100     		.2byte	0x1
 13373 0cd2 54       		.byte	0x54
 13374 0cd3 00000000 		.4byte	0
 13375 0cd7 00000000 		.4byte	0
 13376              	.LLST85:
 13377 0cdb 06000000 		.4byte	.LVL123
 13378 0cdf 16000000 		.4byte	.LVL125
 13379 0ce3 0300     		.2byte	0x3
 13380 0ce5 91       		.byte	0x91
 13381 0ce6 68       		.sleb128 -24
 13382 0ce7 9F       		.byte	0x9f
 13383 0ce8 16000000 		.4byte	.LVL125
 13384 0cec 19000000 		.4byte	.LVL126-1
 13385 0cf0 0100     		.2byte	0x1
 13386 0cf2 53       		.byte	0x53
 13387 0cf3 19000000 		.4byte	.LVL126-1
 13388 0cf7 48000000 		.4byte	.LFE27
 13389 0cfb 0300     		.2byte	0x3
 13390 0cfd 91       		.byte	0x91
 13391 0cfe 68       		.sleb128 -24
 13392 0cff 9F       		.byte	0x9f
 13393 0d00 00000000 		.4byte	0
 13394 0d04 00000000 		.4byte	0
 13395              	.LLST86:
ARM GAS  /tmp/ccoI4Tqz.s 			page 236


 13396 0d08 04000000 		.4byte	.LVL122
 13397 0d0c 10000000 		.4byte	.LVL124
 13398 0d10 0100     		.2byte	0x1
 13399 0d12 50       		.byte	0x50
 13400 0d13 10000000 		.4byte	.LVL124
 13401 0d17 48000000 		.4byte	.LFE27
 13402 0d1b 0100     		.2byte	0x1
 13403 0d1d 54       		.byte	0x54
 13404 0d1e 00000000 		.4byte	0
 13405 0d22 00000000 		.4byte	0
 13406              	.LLST87:
 13407 0d26 00000000 		.4byte	.LVL127
 13408 0d2a 28000000 		.4byte	.LVL129
 13409 0d2e 0100     		.2byte	0x1
 13410 0d30 50       		.byte	0x50
 13411 0d31 28000000 		.4byte	.LVL129
 13412 0d35 CC000000 		.4byte	.LFE18
 13413 0d39 0100     		.2byte	0x1
 13414 0d3b 54       		.byte	0x54
 13415 0d3c 00000000 		.4byte	0
 13416 0d40 00000000 		.4byte	0
 13417              	.LLST88:
 13418 0d44 00000000 		.4byte	.LVL127
 13419 0d48 28000000 		.4byte	.LVL129
 13420 0d4c 0100     		.2byte	0x1
 13421 0d4e 51       		.byte	0x51
 13422 0d4f 28000000 		.4byte	.LVL129
 13423 0d53 CC000000 		.4byte	.LFE18
 13424 0d57 0400     		.2byte	0x4
 13425 0d59 F3       		.byte	0xf3
 13426 0d5a 01       		.uleb128 0x1
 13427 0d5b 51       		.byte	0x51
 13428 0d5c 9F       		.byte	0x9f
 13429 0d5d 00000000 		.4byte	0
 13430 0d61 00000000 		.4byte	0
 13431              	.LLST89:
 13432 0d65 24000000 		.4byte	.LVL128
 13433 0d69 28000000 		.4byte	.LVL129
 13434 0d6d 0200     		.2byte	0x2
 13435 0d6f 30       		.byte	0x30
 13436 0d70 9F       		.byte	0x9f
 13437 0d71 7C000000 		.4byte	.LVL136
 13438 0d75 7E000000 		.4byte	.LVL137
 13439 0d79 0600     		.2byte	0x6
 13440 0d7b 08       		.byte	0x8
 13441 0d7c 81       		.byte	0x81
 13442 0d7d 76       		.byte	0x76
 13443 0d7e 00       		.sleb128 0
 13444 0d7f 1C       		.byte	0x1c
 13445 0d80 9F       		.byte	0x9f
 13446 0d81 7E000000 		.4byte	.LVL137
 13447 0d85 88000000 		.4byte	.LVL138
 13448 0d89 0600     		.2byte	0x6
 13449 0d8b 08       		.byte	0x8
 13450 0d8c 80       		.byte	0x80
 13451 0d8d 76       		.byte	0x76
 13452 0d8e 00       		.sleb128 0
ARM GAS  /tmp/ccoI4Tqz.s 			page 237


 13453 0d8f 1C       		.byte	0x1c
 13454 0d90 9F       		.byte	0x9f
 13455 0d91 00000000 		.4byte	0
 13456 0d95 00000000 		.4byte	0
 13457              	.LLST90:
 13458 0d99 4A000000 		.4byte	.LVL133
 13459 0d9d 54000000 		.4byte	.LVL134
 13460 0da1 0200     		.2byte	0x2
 13461 0da3 30       		.byte	0x30
 13462 0da4 9F       		.byte	0x9f
 13463 0da5 54000000 		.4byte	.LVL134
 13464 0da9 88000000 		.4byte	.LVL138
 13465 0dad 0100     		.2byte	0x1
 13466 0daf 53       		.byte	0x53
 13467 0db0 88000000 		.4byte	.LVL138
 13468 0db4 B8000000 		.4byte	.LVL142
 13469 0db8 0100     		.2byte	0x1
 13470 0dba 56       		.byte	0x56
 13471 0dbb B8000000 		.4byte	.LVL142
 13472 0dbf C2000000 		.4byte	.LVL143
 13473 0dc3 0300     		.2byte	0x3
 13474 0dc5 76       		.byte	0x76
 13475 0dc6 7F       		.sleb128 -1
 13476 0dc7 9F       		.byte	0x9f
 13477 0dc8 C2000000 		.4byte	.LVL143
 13478 0dcc CC000000 		.4byte	.LFE18
 13479 0dd0 0100     		.2byte	0x1
 13480 0dd2 56       		.byte	0x56
 13481 0dd3 00000000 		.4byte	0
 13482 0dd7 00000000 		.4byte	0
 13483              	.LLST91:
 13484 0ddb 36000000 		.4byte	.LVL130
 13485 0ddf 3C000000 		.4byte	.LVL131
 13486 0de3 0100     		.2byte	0x1
 13487 0de5 50       		.byte	0x50
 13488 0de6 00000000 		.4byte	0
 13489 0dea 00000000 		.4byte	0
 13490              	.LLST92:
 13491 0dee A2000000 		.4byte	.LVL139
 13492 0df2 A7000000 		.4byte	.LVL140-1
 13493 0df6 0100     		.2byte	0x1
 13494 0df8 53       		.byte	0x53
 13495 0df9 00000000 		.4byte	0
 13496 0dfd 00000000 		.4byte	0
 13497              	.LLST93:
 13498 0e01 B0000000 		.4byte	.LVL141
 13499 0e05 B8000000 		.4byte	.LVL142
 13500 0e09 0100     		.2byte	0x1
 13501 0e0b 56       		.byte	0x56
 13502 0e0c B8000000 		.4byte	.LVL142
 13503 0e10 C1000000 		.4byte	.LVL143-1
 13504 0e14 0100     		.2byte	0x1
 13505 0e16 51       		.byte	0x51
 13506 0e17 00000000 		.4byte	0
 13507 0e1b 00000000 		.4byte	0
 13508              	.LLST94:
 13509 0e1f 00000000 		.4byte	.LVL144
ARM GAS  /tmp/ccoI4Tqz.s 			page 238


 13510 0e23 16000000 		.4byte	.LVL148
 13511 0e27 0100     		.2byte	0x1
 13512 0e29 50       		.byte	0x50
 13513 0e2a 16000000 		.4byte	.LVL148
 13514 0e2e 36000000 		.4byte	.LFE28
 13515 0e32 0400     		.2byte	0x4
 13516 0e34 F3       		.byte	0xf3
 13517 0e35 01       		.uleb128 0x1
 13518 0e36 50       		.byte	0x50
 13519 0e37 9F       		.byte	0x9f
 13520 0e38 00000000 		.4byte	0
 13521 0e3c 00000000 		.4byte	0
 13522              	.LLST95:
 13523 0e40 00000000 		.4byte	.LVL144
 13524 0e44 0E000000 		.4byte	.LVL147
 13525 0e48 0100     		.2byte	0x1
 13526 0e4a 51       		.byte	0x51
 13527 0e4b 0E000000 		.4byte	.LVL147
 13528 0e4f 36000000 		.4byte	.LFE28
 13529 0e53 0400     		.2byte	0x4
 13530 0e55 F3       		.byte	0xf3
 13531 0e56 01       		.uleb128 0x1
 13532 0e57 51       		.byte	0x51
 13533 0e58 9F       		.byte	0x9f
 13534 0e59 00000000 		.4byte	0
 13535 0e5d 00000000 		.4byte	0
 13536              	.LLST96:
 13537 0e61 0A000000 		.4byte	.LVL146
 13538 0e65 1E000000 		.4byte	.LVL149
 13539 0e69 0300     		.2byte	0x3
 13540 0e6b 91       		.byte	0x91
 13541 0e6c 74       		.sleb128 -12
 13542 0e6d 9F       		.byte	0x9f
 13543 0e6e 1E000000 		.4byte	.LVL149
 13544 0e72 21000000 		.4byte	.LVL150-1
 13545 0e76 0100     		.2byte	0x1
 13546 0e78 53       		.byte	0x53
 13547 0e79 21000000 		.4byte	.LVL150-1
 13548 0e7d 36000000 		.4byte	.LFE28
 13549 0e81 0300     		.2byte	0x3
 13550 0e83 91       		.byte	0x91
 13551 0e84 74       		.sleb128 -12
 13552 0e85 9F       		.byte	0x9f
 13553 0e86 00000000 		.4byte	0
 13554 0e8a 00000000 		.4byte	0
 13555              	.LLST97:
 13556 0e8e 02000000 		.4byte	.LVL145
 13557 0e92 0E000000 		.4byte	.LVL147
 13558 0e96 0A00     		.2byte	0xa
 13559 0e98 71       		.byte	0x71
 13560 0e99 00       		.sleb128 0
 13561 0e9a 08       		.byte	0x8
 13562 0e9b FF       		.byte	0xff
 13563 0e9c 1A       		.byte	0x1a
 13564 0e9d 23       		.byte	0x23
 13565 0e9e 14       		.uleb128 0x14
 13566 0e9f 31       		.byte	0x31
ARM GAS  /tmp/ccoI4Tqz.s 			page 239


 13567 0ea0 24       		.byte	0x24
 13568 0ea1 9F       		.byte	0x9f
 13569 0ea2 0E000000 		.4byte	.LVL147
 13570 0ea6 36000000 		.4byte	.LFE28
 13571 0eaa 0B00     		.2byte	0xb
 13572 0eac F3       		.byte	0xf3
 13573 0ead 01       		.uleb128 0x1
 13574 0eae 51       		.byte	0x51
 13575 0eaf 08       		.byte	0x8
 13576 0eb0 FF       		.byte	0xff
 13577 0eb1 1A       		.byte	0x1a
 13578 0eb2 23       		.byte	0x23
 13579 0eb3 14       		.uleb128 0x14
 13580 0eb4 31       		.byte	0x31
 13581 0eb5 24       		.byte	0x24
 13582 0eb6 9F       		.byte	0x9f
 13583 0eb7 00000000 		.4byte	0
 13584 0ebb 00000000 		.4byte	0
 13585              	.LLST98:
 13586 0ebf 02000000 		.4byte	.LVL145
 13587 0ec3 16000000 		.4byte	.LVL148
 13588 0ec7 0100     		.2byte	0x1
 13589 0ec9 50       		.byte	0x50
 13590 0eca 16000000 		.4byte	.LVL148
 13591 0ece 36000000 		.4byte	.LFE28
 13592 0ed2 0400     		.2byte	0x4
 13593 0ed4 F3       		.byte	0xf3
 13594 0ed5 01       		.uleb128 0x1
 13595 0ed6 50       		.byte	0x50
 13596 0ed7 9F       		.byte	0x9f
 13597 0ed8 00000000 		.4byte	0
 13598 0edc 00000000 		.4byte	0
 13599              	.LLST99:
 13600 0ee0 00000000 		.4byte	.LVL151
 13601 0ee4 10000000 		.4byte	.LVL154
 13602 0ee8 0100     		.2byte	0x1
 13603 0eea 50       		.byte	0x50
 13604 0eeb 10000000 		.4byte	.LVL154
 13605 0eef 2C000000 		.4byte	.LFE29
 13606 0ef3 0100     		.2byte	0x1
 13607 0ef5 54       		.byte	0x54
 13608 0ef6 00000000 		.4byte	0
 13609 0efa 00000000 		.4byte	0
 13610              	.LLST100:
 13611 0efe 06000000 		.4byte	.LVL153
 13612 0f02 16000000 		.4byte	.LVL155
 13613 0f06 0300     		.2byte	0x3
 13614 0f08 91       		.byte	0x91
 13615 0f09 74       		.sleb128 -12
 13616 0f0a 9F       		.byte	0x9f
 13617 0f0b 16000000 		.4byte	.LVL155
 13618 0f0f 19000000 		.4byte	.LVL156-1
 13619 0f13 0100     		.2byte	0x1
 13620 0f15 53       		.byte	0x53
 13621 0f16 19000000 		.4byte	.LVL156-1
 13622 0f1a 2C000000 		.4byte	.LFE29
 13623 0f1e 0300     		.2byte	0x3
ARM GAS  /tmp/ccoI4Tqz.s 			page 240


 13624 0f20 91       		.byte	0x91
 13625 0f21 74       		.sleb128 -12
 13626 0f22 9F       		.byte	0x9f
 13627 0f23 00000000 		.4byte	0
 13628 0f27 00000000 		.4byte	0
 13629              	.LLST101:
 13630 0f2b 04000000 		.4byte	.LVL152
 13631 0f2f 10000000 		.4byte	.LVL154
 13632 0f33 0100     		.2byte	0x1
 13633 0f35 50       		.byte	0x50
 13634 0f36 10000000 		.4byte	.LVL154
 13635 0f3a 2C000000 		.4byte	.LFE29
 13636 0f3e 0100     		.2byte	0x1
 13637 0f40 54       		.byte	0x54
 13638 0f41 00000000 		.4byte	0
 13639 0f45 00000000 		.4byte	0
 13640              	.LLST102:
 13641 0f49 00000000 		.4byte	.LVL157
 13642 0f4d 10000000 		.4byte	.LVL160
 13643 0f51 0100     		.2byte	0x1
 13644 0f53 50       		.byte	0x50
 13645 0f54 10000000 		.4byte	.LVL160
 13646 0f58 66000000 		.4byte	.LFE30
 13647 0f5c 0100     		.2byte	0x1
 13648 0f5e 54       		.byte	0x54
 13649 0f5f 00000000 		.4byte	0
 13650 0f63 00000000 		.4byte	0
 13651              	.LLST103:
 13652 0f67 06000000 		.4byte	.LVL159
 13653 0f6b 16000000 		.4byte	.LVL161
 13654 0f6f 0300     		.2byte	0x3
 13655 0f71 91       		.byte	0x91
 13656 0f72 60       		.sleb128 -32
 13657 0f73 9F       		.byte	0x9f
 13658 0f74 16000000 		.4byte	.LVL161
 13659 0f78 19000000 		.4byte	.LVL162-1
 13660 0f7c 0100     		.2byte	0x1
 13661 0f7e 53       		.byte	0x53
 13662 0f7f 19000000 		.4byte	.LVL162-1
 13663 0f83 66000000 		.4byte	.LFE30
 13664 0f87 0300     		.2byte	0x3
 13665 0f89 91       		.byte	0x91
 13666 0f8a 60       		.sleb128 -32
 13667 0f8b 9F       		.byte	0x9f
 13668 0f8c 00000000 		.4byte	0
 13669 0f90 00000000 		.4byte	0
 13670              	.LLST104:
 13671 0f94 04000000 		.4byte	.LVL158
 13672 0f98 10000000 		.4byte	.LVL160
 13673 0f9c 0100     		.2byte	0x1
 13674 0f9e 50       		.byte	0x50
 13675 0f9f 10000000 		.4byte	.LVL160
 13676 0fa3 66000000 		.4byte	.LFE30
 13677 0fa7 0100     		.2byte	0x1
 13678 0fa9 54       		.byte	0x54
 13679 0faa 00000000 		.4byte	0
 13680 0fae 00000000 		.4byte	0
ARM GAS  /tmp/ccoI4Tqz.s 			page 241


 13681              	.LLST105:
 13682 0fb2 00000000 		.4byte	.LVL163
 13683 0fb6 12000000 		.4byte	.LVL166
 13684 0fba 0100     		.2byte	0x1
 13685 0fbc 50       		.byte	0x50
 13686 0fbd 12000000 		.4byte	.LVL166
 13687 0fc1 46000000 		.4byte	.LFE31
 13688 0fc5 0100     		.2byte	0x1
 13689 0fc7 54       		.byte	0x54
 13690 0fc8 00000000 		.4byte	0
 13691 0fcc 00000000 		.4byte	0
 13692              	.LLST106:
 13693 0fd0 00000000 		.4byte	.LVL163
 13694 0fd4 1C000000 		.4byte	.LVL167
 13695 0fd8 0100     		.2byte	0x1
 13696 0fda 51       		.byte	0x51
 13697 0fdb 1C000000 		.4byte	.LVL167
 13698 0fdf 46000000 		.4byte	.LFE31
 13699 0fe3 0400     		.2byte	0x4
 13700 0fe5 F3       		.byte	0xf3
 13701 0fe6 01       		.uleb128 0x1
 13702 0fe7 51       		.byte	0x51
 13703 0fe8 9F       		.byte	0x9f
 13704 0fe9 00000000 		.4byte	0
 13705 0fed 00000000 		.4byte	0
 13706              	.LLST107:
 13707 0ff1 34000000 		.4byte	.LVL170
 13708 0ff5 3E000000 		.4byte	.LVL171
 13709 0ff9 0100     		.2byte	0x1
 13710 0ffb 50       		.byte	0x50
 13711 0ffc 3E000000 		.4byte	.LVL171
 13712 1000 40000000 		.4byte	.LVL172
 13713 1004 1200     		.2byte	0x12
 13714 1006 91       		.byte	0x91
 13715 1007 6D       		.sleb128 -19
 13716 1008 94       		.byte	0x94
 13717 1009 01       		.byte	0x1
 13718 100a 08       		.byte	0x8
 13719 100b FF       		.byte	0xff
 13720 100c 1A       		.byte	0x1a
 13721 100d 38       		.byte	0x38
 13722 100e 24       		.byte	0x24
 13723 100f 91       		.byte	0x91
 13724 1010 6C       		.sleb128 -20
 13725 1011 94       		.byte	0x94
 13726 1012 01       		.byte	0x1
 13727 1013 08       		.byte	0x8
 13728 1014 FF       		.byte	0xff
 13729 1015 1A       		.byte	0x1a
 13730 1016 21       		.byte	0x21
 13731 1017 9F       		.byte	0x9f
 13732 1018 40000000 		.4byte	.LVL172
 13733 101c 46000000 		.4byte	.LFE31
 13734 1020 0100     		.2byte	0x1
 13735 1022 50       		.byte	0x50
 13736 1023 00000000 		.4byte	0
 13737 1027 00000000 		.4byte	0
ARM GAS  /tmp/ccoI4Tqz.s 			page 242


 13738              	.LLST108:
 13739 102b 0A000000 		.4byte	.LVL165
 13740 102f 20000000 		.4byte	.LVL168
 13741 1033 0300     		.2byte	0x3
 13742 1035 91       		.byte	0x91
 13743 1036 6C       		.sleb128 -20
 13744 1037 9F       		.byte	0x9f
 13745 1038 20000000 		.4byte	.LVL168
 13746 103c 23000000 		.4byte	.LVL169-1
 13747 1040 0100     		.2byte	0x1
 13748 1042 53       		.byte	0x53
 13749 1043 23000000 		.4byte	.LVL169-1
 13750 1047 46000000 		.4byte	.LFE31
 13751 104b 0300     		.2byte	0x3
 13752 104d 91       		.byte	0x91
 13753 104e 6C       		.sleb128 -20
 13754 104f 9F       		.byte	0x9f
 13755 1050 00000000 		.4byte	0
 13756 1054 00000000 		.4byte	0
 13757              	.LLST109:
 13758 1058 04000000 		.4byte	.LVL164
 13759 105c 1C000000 		.4byte	.LVL167
 13760 1060 0500     		.2byte	0x5
 13761 1062 71       		.byte	0x71
 13762 1063 0C       		.sleb128 12
 13763 1064 31       		.byte	0x31
 13764 1065 24       		.byte	0x24
 13765 1066 9F       		.byte	0x9f
 13766 1067 1C000000 		.4byte	.LVL167
 13767 106b 46000000 		.4byte	.LFE31
 13768 106f 0800     		.2byte	0x8
 13769 1071 F3       		.byte	0xf3
 13770 1072 01       		.uleb128 0x1
 13771 1073 51       		.byte	0x51
 13772 1074 23       		.byte	0x23
 13773 1075 0C       		.uleb128 0xc
 13774 1076 31       		.byte	0x31
 13775 1077 24       		.byte	0x24
 13776 1078 9F       		.byte	0x9f
 13777 1079 00000000 		.4byte	0
 13778 107d 00000000 		.4byte	0
 13779              	.LLST110:
 13780 1081 04000000 		.4byte	.LVL164
 13781 1085 12000000 		.4byte	.LVL166
 13782 1089 0100     		.2byte	0x1
 13783 108b 50       		.byte	0x50
 13784 108c 12000000 		.4byte	.LVL166
 13785 1090 46000000 		.4byte	.LFE31
 13786 1094 0100     		.2byte	0x1
 13787 1096 54       		.byte	0x54
 13788 1097 00000000 		.4byte	0
 13789 109b 00000000 		.4byte	0
 13790              	.LLST111:
 13791 109f 00000000 		.4byte	.LVL173
 13792 10a3 06000000 		.4byte	.LVL174
 13793 10a7 0100     		.2byte	0x1
 13794 10a9 50       		.byte	0x50
ARM GAS  /tmp/ccoI4Tqz.s 			page 243


 13795 10aa 06000000 		.4byte	.LVL174
 13796 10ae 12000000 		.4byte	.LFE32
 13797 10b2 0100     		.2byte	0x1
 13798 10b4 54       		.byte	0x54
 13799 10b5 00000000 		.4byte	0
 13800 10b9 00000000 		.4byte	0
 13801              	.LLST112:
 13802 10bd 00000000 		.4byte	.LVL173
 13803 10c1 09000000 		.4byte	.LVL175-1
 13804 10c5 0100     		.2byte	0x1
 13805 10c7 51       		.byte	0x51
 13806 10c8 09000000 		.4byte	.LVL175-1
 13807 10cc 12000000 		.4byte	.LFE32
 13808 10d0 0400     		.2byte	0x4
 13809 10d2 F3       		.byte	0xf3
 13810 10d3 01       		.uleb128 0x1
 13811 10d4 51       		.byte	0x51
 13812 10d5 9F       		.byte	0x9f
 13813 10d6 00000000 		.4byte	0
 13814 10da 00000000 		.4byte	0
 13815              	.LLST113:
 13816 10de 00000000 		.4byte	.LVL177
 13817 10e2 06000000 		.4byte	.LVL178
 13818 10e6 0100     		.2byte	0x1
 13819 10e8 50       		.byte	0x50
 13820 10e9 06000000 		.4byte	.LVL178
 13821 10ed 12000000 		.4byte	.LFE33
 13822 10f1 0100     		.2byte	0x1
 13823 10f3 54       		.byte	0x54
 13824 10f4 00000000 		.4byte	0
 13825 10f8 00000000 		.4byte	0
 13826              	.LLST114:
 13827 10fc 00000000 		.4byte	.LVL177
 13828 1100 09000000 		.4byte	.LVL179-1
 13829 1104 0100     		.2byte	0x1
 13830 1106 51       		.byte	0x51
 13831 1107 09000000 		.4byte	.LVL179-1
 13832 110b 12000000 		.4byte	.LFE33
 13833 110f 0400     		.2byte	0x4
 13834 1111 F3       		.byte	0xf3
 13835 1112 01       		.uleb128 0x1
 13836 1113 51       		.byte	0x51
 13837 1114 9F       		.byte	0x9f
 13838 1115 00000000 		.4byte	0
 13839 1119 00000000 		.4byte	0
 13840              	.LLST115:
 13841 111d 00000000 		.4byte	.LVL181
 13842 1121 06000000 		.4byte	.LVL182
 13843 1125 0100     		.2byte	0x1
 13844 1127 50       		.byte	0x50
 13845 1128 06000000 		.4byte	.LVL182
 13846 112c 12000000 		.4byte	.LFE34
 13847 1130 0100     		.2byte	0x1
 13848 1132 54       		.byte	0x54
 13849 1133 00000000 		.4byte	0
 13850 1137 00000000 		.4byte	0
 13851              	.LLST116:
ARM GAS  /tmp/ccoI4Tqz.s 			page 244


 13852 113b 00000000 		.4byte	.LVL181
 13853 113f 09000000 		.4byte	.LVL183-1
 13854 1143 0100     		.2byte	0x1
 13855 1145 51       		.byte	0x51
 13856 1146 09000000 		.4byte	.LVL183-1
 13857 114a 12000000 		.4byte	.LFE34
 13858 114e 0400     		.2byte	0x4
 13859 1150 F3       		.byte	0xf3
 13860 1151 01       		.uleb128 0x1
 13861 1152 51       		.byte	0x51
 13862 1153 9F       		.byte	0x9f
 13863 1154 00000000 		.4byte	0
 13864 1158 00000000 		.4byte	0
 13865              	.LLST117:
 13866 115c 00000000 		.4byte	.LVL185
 13867 1160 0A000000 		.4byte	.LVL187
 13868 1164 0100     		.2byte	0x1
 13869 1166 50       		.byte	0x50
 13870 1167 0A000000 		.4byte	.LVL187
 13871 116b 58000000 		.4byte	.LFE35
 13872 116f 0100     		.2byte	0x1
 13873 1171 54       		.byte	0x54
 13874 1172 00000000 		.4byte	0
 13875 1176 00000000 		.4byte	0
 13876              	.LLST118:
 13877 117a 00000000 		.4byte	.LVL185
 13878 117e 0E000000 		.4byte	.LVL188
 13879 1182 0100     		.2byte	0x1
 13880 1184 51       		.byte	0x51
 13881 1185 0E000000 		.4byte	.LVL188
 13882 1189 58000000 		.4byte	.LFE35
 13883 118d 0400     		.2byte	0x4
 13884 118f F3       		.byte	0xf3
 13885 1190 01       		.uleb128 0x1
 13886 1191 51       		.byte	0x51
 13887 1192 9F       		.byte	0x9f
 13888 1193 00000000 		.4byte	0
 13889 1197 00000000 		.4byte	0
 13890              	.LLST119:
 13891 119b 14000000 		.4byte	.LVL189
 13892 119f 1C000000 		.4byte	.LVL190
 13893 11a3 0100     		.2byte	0x1
 13894 11a5 50       		.byte	0x50
 13895 11a6 1C000000 		.4byte	.LVL190
 13896 11aa 35000000 		.4byte	.LVL192-1
 13897 11ae 0100     		.2byte	0x1
 13898 11b0 53       		.byte	0x53
 13899 11b1 48000000 		.4byte	.LVL195
 13900 11b5 58000000 		.4byte	.LFE35
 13901 11b9 0100     		.2byte	0x1
 13902 11bb 53       		.byte	0x53
 13903 11bc 00000000 		.4byte	0
 13904 11c0 00000000 		.4byte	0
 13905              	.LLST120:
 13906 11c4 04000000 		.4byte	.LVL186
 13907 11c8 0A000000 		.4byte	.LVL187
 13908 11cc 0100     		.2byte	0x1
ARM GAS  /tmp/ccoI4Tqz.s 			page 245


 13909 11ce 50       		.byte	0x50
 13910 11cf 0A000000 		.4byte	.LVL187
 13911 11d3 58000000 		.4byte	.LFE35
 13912 11d7 0100     		.2byte	0x1
 13913 11d9 54       		.byte	0x54
 13914 11da 00000000 		.4byte	0
 13915 11de 00000000 		.4byte	0
 13916              	.LLST121:
 13917 11e2 28000000 		.4byte	.LVL191
 13918 11e6 35000000 		.4byte	.LVL192-1
 13919 11ea 0100     		.2byte	0x1
 13920 11ec 53       		.byte	0x53
 13921 11ed 00000000 		.4byte	0
 13922 11f1 00000000 		.4byte	0
 13923              	.LLST122:
 13924 11f5 28000000 		.4byte	.LVL191
 13925 11f9 48000000 		.4byte	.LVL195
 13926 11fd 0200     		.2byte	0x2
 13927 11ff 40       		.byte	0x40
 13928 1200 9F       		.byte	0x9f
 13929 1201 00000000 		.4byte	0
 13930 1205 00000000 		.4byte	0
 13931              	.LLST123:
 13932 1209 28000000 		.4byte	.LVL191
 13933 120d 48000000 		.4byte	.LVL195
 13934 1211 0100     		.2byte	0x1
 13935 1213 54       		.byte	0x54
 13936 1214 00000000 		.4byte	0
 13937 1218 00000000 		.4byte	0
 13938              	.LLST124:
 13939 121c 36000000 		.4byte	.LVL192
 13940 1220 48000000 		.4byte	.LVL195
 13941 1224 0100     		.2byte	0x1
 13942 1226 54       		.byte	0x54
 13943 1227 00000000 		.4byte	0
 13944 122b 00000000 		.4byte	0
 13945              	.LLST125:
 13946 122f 00000000 		.4byte	.LVL198
 13947 1233 0A000000 		.4byte	.LVL200
 13948 1237 0100     		.2byte	0x1
 13949 1239 50       		.byte	0x50
 13950 123a 0A000000 		.4byte	.LVL200
 13951 123e 60000000 		.4byte	.LFE36
 13952 1242 0100     		.2byte	0x1
 13953 1244 54       		.byte	0x54
 13954 1245 00000000 		.4byte	0
 13955 1249 00000000 		.4byte	0
 13956              	.LLST126:
 13957 124d 00000000 		.4byte	.LVL198
 13958 1251 0E000000 		.4byte	.LVL201
 13959 1255 0100     		.2byte	0x1
 13960 1257 51       		.byte	0x51
 13961 1258 0E000000 		.4byte	.LVL201
 13962 125c 60000000 		.4byte	.LFE36
 13963 1260 0400     		.2byte	0x4
 13964 1262 F3       		.byte	0xf3
 13965 1263 01       		.uleb128 0x1
ARM GAS  /tmp/ccoI4Tqz.s 			page 246


 13966 1264 51       		.byte	0x51
 13967 1265 9F       		.byte	0x9f
 13968 1266 00000000 		.4byte	0
 13969 126a 00000000 		.4byte	0
 13970              	.LLST127:
 13971 126e 14000000 		.4byte	.LVL202
 13972 1272 1A000000 		.4byte	.LVL203
 13973 1276 0100     		.2byte	0x1
 13974 1278 50       		.byte	0x50
 13975 1279 1A000000 		.4byte	.LVL203
 13976 127d 35000000 		.4byte	.LVL205-1
 13977 1281 0100     		.2byte	0x1
 13978 1283 53       		.byte	0x53
 13979 1284 48000000 		.4byte	.LVL208
 13980 1288 60000000 		.4byte	.LFE36
 13981 128c 0100     		.2byte	0x1
 13982 128e 53       		.byte	0x53
 13983 128f 00000000 		.4byte	0
 13984 1293 00000000 		.4byte	0
 13985              	.LLST128:
 13986 1297 04000000 		.4byte	.LVL199
 13987 129b 0A000000 		.4byte	.LVL200
 13988 129f 0100     		.2byte	0x1
 13989 12a1 50       		.byte	0x50
 13990 12a2 0A000000 		.4byte	.LVL200
 13991 12a6 60000000 		.4byte	.LFE36
 13992 12aa 0100     		.2byte	0x1
 13993 12ac 54       		.byte	0x54
 13994 12ad 00000000 		.4byte	0
 13995 12b1 00000000 		.4byte	0
 13996              	.LLST129:
 13997 12b5 28000000 		.4byte	.LVL204
 13998 12b9 35000000 		.4byte	.LVL205-1
 13999 12bd 0100     		.2byte	0x1
 14000 12bf 53       		.byte	0x53
 14001 12c0 00000000 		.4byte	0
 14002 12c4 00000000 		.4byte	0
 14003              	.LLST130:
 14004 12c8 28000000 		.4byte	.LVL204
 14005 12cc 48000000 		.4byte	.LVL208
 14006 12d0 0300     		.2byte	0x3
 14007 12d2 08       		.byte	0x8
 14008 12d3 20       		.byte	0x20
 14009 12d4 9F       		.byte	0x9f
 14010 12d5 00000000 		.4byte	0
 14011 12d9 00000000 		.4byte	0
 14012              	.LLST131:
 14013 12dd 28000000 		.4byte	.LVL204
 14014 12e1 48000000 		.4byte	.LVL208
 14015 12e5 0100     		.2byte	0x1
 14016 12e7 54       		.byte	0x54
 14017 12e8 00000000 		.4byte	0
 14018 12ec 00000000 		.4byte	0
 14019              	.LLST132:
 14020 12f0 36000000 		.4byte	.LVL205
 14021 12f4 48000000 		.4byte	.LVL208
 14022 12f8 0100     		.2byte	0x1
ARM GAS  /tmp/ccoI4Tqz.s 			page 247


 14023 12fa 54       		.byte	0x54
 14024 12fb 00000000 		.4byte	0
 14025 12ff 00000000 		.4byte	0
 14026              	.LLST133:
 14027 1303 00000000 		.4byte	.LVL212
 14028 1307 18000000 		.4byte	.LVL215
 14029 130b 0100     		.2byte	0x1
 14030 130d 50       		.byte	0x50
 14031 130e 18000000 		.4byte	.LVL215
 14032 1312 36000000 		.4byte	.LVL221
 14033 1316 0100     		.2byte	0x1
 14034 1318 55       		.byte	0x55
 14035 1319 36000000 		.4byte	.LVL221
 14036 131d 3A000000 		.4byte	.LFE38
 14037 1321 0400     		.2byte	0x4
 14038 1323 F3       		.byte	0xf3
 14039 1324 01       		.uleb128 0x1
 14040 1325 50       		.byte	0x50
 14041 1326 9F       		.byte	0x9f
 14042 1327 00000000 		.4byte	0
 14043 132b 00000000 		.4byte	0
 14044              	.LLST134:
 14045 132f 00000000 		.4byte	.LVL212
 14046 1333 14000000 		.4byte	.LVL214
 14047 1337 0100     		.2byte	0x1
 14048 1339 51       		.byte	0x51
 14049 133a 14000000 		.4byte	.LVL214
 14050 133e 3A000000 		.4byte	.LFE38
 14051 1342 0400     		.2byte	0x4
 14052 1344 F3       		.byte	0xf3
 14053 1345 01       		.uleb128 0x1
 14054 1346 51       		.byte	0x51
 14055 1347 9F       		.byte	0x9f
 14056 1348 00000000 		.4byte	0
 14057 134c 00000000 		.4byte	0
 14058              	.LLST135:
 14059 1350 1C000000 		.4byte	.LVL216
 14060 1354 20000000 		.4byte	.LVL217
 14061 1358 0500     		.2byte	0x5
 14062 135a 70       		.byte	0x70
 14063 135b 00       		.sleb128 0
 14064 135c 4F       		.byte	0x4f
 14065 135d 1A       		.byte	0x1a
 14066 135e 9F       		.byte	0x9f
 14067 135f 24000000 		.4byte	.LVL218
 14068 1363 39000000 		.4byte	.LVL222-1
 14069 1367 0100     		.2byte	0x1
 14070 1369 53       		.byte	0x53
 14071 136a 00000000 		.4byte	0
 14072 136e 00000000 		.4byte	0
 14073              	.LLST136:
 14074 1372 0A000000 		.4byte	.LVL213
 14075 1376 18000000 		.4byte	.LVL215
 14076 137a 0100     		.2byte	0x1
 14077 137c 50       		.byte	0x50
 14078 137d 18000000 		.4byte	.LVL215
 14079 1381 36000000 		.4byte	.LVL221
ARM GAS  /tmp/ccoI4Tqz.s 			page 248


 14080 1385 0100     		.2byte	0x1
 14081 1387 55       		.byte	0x55
 14082 1388 36000000 		.4byte	.LVL221
 14083 138c 3A000000 		.4byte	.LFE38
 14084 1390 0400     		.2byte	0x4
 14085 1392 F3       		.byte	0xf3
 14086 1393 01       		.uleb128 0x1
 14087 1394 50       		.byte	0x50
 14088 1395 9F       		.byte	0x9f
 14089 1396 00000000 		.4byte	0
 14090 139a 00000000 		.4byte	0
 14091              	.LLST137:
 14092 139e 26000000 		.4byte	.LVL219
 14093 13a2 30000000 		.4byte	.LVL220
 14094 13a6 0100     		.2byte	0x1
 14095 13a8 53       		.byte	0x53
 14096 13a9 00000000 		.4byte	0
 14097 13ad 00000000 		.4byte	0
 14098              	.LLST138:
 14099 13b1 26000000 		.4byte	.LVL219
 14100 13b5 36000000 		.4byte	.LVL221
 14101 13b9 0100     		.2byte	0x1
 14102 13bb 55       		.byte	0x55
 14103 13bc 36000000 		.4byte	.LVL221
 14104 13c0 3A000000 		.4byte	.LFE38
 14105 13c4 0400     		.2byte	0x4
 14106 13c6 F3       		.byte	0xf3
 14107 13c7 01       		.uleb128 0x1
 14108 13c8 50       		.byte	0x50
 14109 13c9 9F       		.byte	0x9f
 14110 13ca 00000000 		.4byte	0
 14111 13ce 00000000 		.4byte	0
 14112              	.LLST139:
 14113 13d2 00000000 		.4byte	.LVL223
 14114 13d6 18000000 		.4byte	.LVL226
 14115 13da 0100     		.2byte	0x1
 14116 13dc 50       		.byte	0x50
 14117 13dd 18000000 		.4byte	.LVL226
 14118 13e1 36000000 		.4byte	.LVL232
 14119 13e5 0100     		.2byte	0x1
 14120 13e7 55       		.byte	0x55
 14121 13e8 36000000 		.4byte	.LVL232
 14122 13ec 3A000000 		.4byte	.LFE39
 14123 13f0 0400     		.2byte	0x4
 14124 13f2 F3       		.byte	0xf3
 14125 13f3 01       		.uleb128 0x1
 14126 13f4 50       		.byte	0x50
 14127 13f5 9F       		.byte	0x9f
 14128 13f6 00000000 		.4byte	0
 14129 13fa 00000000 		.4byte	0
 14130              	.LLST140:
 14131 13fe 00000000 		.4byte	.LVL223
 14132 1402 14000000 		.4byte	.LVL225
 14133 1406 0100     		.2byte	0x1
 14134 1408 51       		.byte	0x51
 14135 1409 14000000 		.4byte	.LVL225
 14136 140d 3A000000 		.4byte	.LFE39
ARM GAS  /tmp/ccoI4Tqz.s 			page 249


 14137 1411 0400     		.2byte	0x4
 14138 1413 F3       		.byte	0xf3
 14139 1414 01       		.uleb128 0x1
 14140 1415 51       		.byte	0x51
 14141 1416 9F       		.byte	0x9f
 14142 1417 00000000 		.4byte	0
 14143 141b 00000000 		.4byte	0
 14144              	.LLST141:
 14145 141f 1C000000 		.4byte	.LVL227
 14146 1423 20000000 		.4byte	.LVL228
 14147 1427 0500     		.2byte	0x5
 14148 1429 70       		.byte	0x70
 14149 142a 00       		.sleb128 0
 14150 142b 4F       		.byte	0x4f
 14151 142c 1A       		.byte	0x1a
 14152 142d 9F       		.byte	0x9f
 14153 142e 24000000 		.4byte	.LVL229
 14154 1432 39000000 		.4byte	.LVL233-1
 14155 1436 0100     		.2byte	0x1
 14156 1438 53       		.byte	0x53
 14157 1439 00000000 		.4byte	0
 14158 143d 00000000 		.4byte	0
 14159              	.LLST142:
 14160 1441 0A000000 		.4byte	.LVL224
 14161 1445 18000000 		.4byte	.LVL226
 14162 1449 0100     		.2byte	0x1
 14163 144b 50       		.byte	0x50
 14164 144c 18000000 		.4byte	.LVL226
 14165 1450 36000000 		.4byte	.LVL232
 14166 1454 0100     		.2byte	0x1
 14167 1456 55       		.byte	0x55
 14168 1457 36000000 		.4byte	.LVL232
 14169 145b 3A000000 		.4byte	.LFE39
 14170 145f 0400     		.2byte	0x4
 14171 1461 F3       		.byte	0xf3
 14172 1462 01       		.uleb128 0x1
 14173 1463 50       		.byte	0x50
 14174 1464 9F       		.byte	0x9f
 14175 1465 00000000 		.4byte	0
 14176 1469 00000000 		.4byte	0
 14177              	.LLST143:
 14178 146d 26000000 		.4byte	.LVL230
 14179 1471 30000000 		.4byte	.LVL231
 14180 1475 0100     		.2byte	0x1
 14181 1477 53       		.byte	0x53
 14182 1478 00000000 		.4byte	0
 14183 147c 00000000 		.4byte	0
 14184              	.LLST144:
 14185 1480 26000000 		.4byte	.LVL230
 14186 1484 36000000 		.4byte	.LVL232
 14187 1488 0100     		.2byte	0x1
 14188 148a 55       		.byte	0x55
 14189 148b 36000000 		.4byte	.LVL232
 14190 148f 3A000000 		.4byte	.LFE39
 14191 1493 0400     		.2byte	0x4
 14192 1495 F3       		.byte	0xf3
 14193 1496 01       		.uleb128 0x1
ARM GAS  /tmp/ccoI4Tqz.s 			page 250


 14194 1497 50       		.byte	0x50
 14195 1498 9F       		.byte	0x9f
 14196 1499 00000000 		.4byte	0
 14197 149d 00000000 		.4byte	0
 14198              	.LLST145:
 14199 14a1 00000000 		.4byte	.LVL234
 14200 14a5 10000000 		.4byte	.LVL237
 14201 14a9 0100     		.2byte	0x1
 14202 14ab 50       		.byte	0x50
 14203 14ac 10000000 		.4byte	.LVL237
 14204 14b0 34000000 		.4byte	.LVL243
 14205 14b4 0100     		.2byte	0x1
 14206 14b6 54       		.byte	0x54
 14207 14b7 34000000 		.4byte	.LVL243
 14208 14bb 38000000 		.4byte	.LFE40
 14209 14bf 0400     		.2byte	0x4
 14210 14c1 F3       		.byte	0xf3
 14211 14c2 01       		.uleb128 0x1
 14212 14c3 50       		.byte	0x50
 14213 14c4 9F       		.byte	0x9f
 14214 14c5 00000000 		.4byte	0
 14215 14c9 00000000 		.4byte	0
 14216              	.LLST146:
 14217 14cd 00000000 		.4byte	.LVL234
 14218 14d1 0C000000 		.4byte	.LVL236
 14219 14d5 0100     		.2byte	0x1
 14220 14d7 51       		.byte	0x51
 14221 14d8 0C000000 		.4byte	.LVL236
 14222 14dc 38000000 		.4byte	.LFE40
 14223 14e0 0400     		.2byte	0x4
 14224 14e2 F3       		.byte	0xf3
 14225 14e3 01       		.uleb128 0x1
 14226 14e4 51       		.byte	0x51
 14227 14e5 9F       		.byte	0x9f
 14228 14e6 00000000 		.4byte	0
 14229 14ea 00000000 		.4byte	0
 14230              	.LLST147:
 14231 14ee 14000000 		.4byte	.LVL238
 14232 14f2 1C000000 		.4byte	.LVL239
 14233 14f6 0600     		.2byte	0x6
 14234 14f8 70       		.byte	0x70
 14235 14f9 00       		.sleb128 0
 14236 14fa 09       		.byte	0x9
 14237 14fb E3       		.byte	0xe3
 14238 14fc 1A       		.byte	0x1a
 14239 14fd 9F       		.byte	0x9f
 14240 14fe 20000000 		.4byte	.LVL240
 14241 1502 37000000 		.4byte	.LVL244-1
 14242 1506 0100     		.2byte	0x1
 14243 1508 53       		.byte	0x53
 14244 1509 00000000 		.4byte	0
 14245 150d 00000000 		.4byte	0
 14246              	.LLST148:
 14247 1511 04000000 		.4byte	.LVL235
 14248 1515 10000000 		.4byte	.LVL237
 14249 1519 0100     		.2byte	0x1
 14250 151b 50       		.byte	0x50
ARM GAS  /tmp/ccoI4Tqz.s 			page 251


 14251 151c 10000000 		.4byte	.LVL237
 14252 1520 34000000 		.4byte	.LVL243
 14253 1524 0100     		.2byte	0x1
 14254 1526 54       		.byte	0x54
 14255 1527 34000000 		.4byte	.LVL243
 14256 152b 38000000 		.4byte	.LFE40
 14257 152f 0400     		.2byte	0x4
 14258 1531 F3       		.byte	0xf3
 14259 1532 01       		.uleb128 0x1
 14260 1533 50       		.byte	0x50
 14261 1534 9F       		.byte	0x9f
 14262 1535 00000000 		.4byte	0
 14263 1539 00000000 		.4byte	0
 14264              	.LLST149:
 14265 153d 24000000 		.4byte	.LVL241
 14266 1541 2E000000 		.4byte	.LVL242
 14267 1545 0100     		.2byte	0x1
 14268 1547 53       		.byte	0x53
 14269 1548 00000000 		.4byte	0
 14270 154c 00000000 		.4byte	0
 14271              	.LLST150:
 14272 1550 24000000 		.4byte	.LVL241
 14273 1554 34000000 		.4byte	.LVL243
 14274 1558 0100     		.2byte	0x1
 14275 155a 54       		.byte	0x54
 14276 155b 34000000 		.4byte	.LVL243
 14277 155f 38000000 		.4byte	.LFE40
 14278 1563 0400     		.2byte	0x4
 14279 1565 F3       		.byte	0xf3
 14280 1566 01       		.uleb128 0x1
 14281 1567 50       		.byte	0x50
 14282 1568 9F       		.byte	0x9f
 14283 1569 00000000 		.4byte	0
 14284 156d 00000000 		.4byte	0
 14285              	.LLST151:
 14286 1571 00000000 		.4byte	.LVL245
 14287 1575 06000000 		.4byte	.LVL246
 14288 1579 0100     		.2byte	0x1
 14289 157b 50       		.byte	0x50
 14290 157c 06000000 		.4byte	.LVL246
 14291 1580 16000000 		.4byte	.LFE41
 14292 1584 0100     		.2byte	0x1
 14293 1586 54       		.byte	0x54
 14294 1587 00000000 		.4byte	0
 14295 158b 00000000 		.4byte	0
 14296              	.LLST152:
 14297 158f 00000000 		.4byte	.LVL249
 14298 1593 06000000 		.4byte	.LVL250
 14299 1597 0100     		.2byte	0x1
 14300 1599 50       		.byte	0x50
 14301 159a 06000000 		.4byte	.LVL250
 14302 159e 16000000 		.4byte	.LFE42
 14303 15a2 0100     		.2byte	0x1
 14304 15a4 54       		.byte	0x54
 14305 15a5 00000000 		.4byte	0
 14306 15a9 00000000 		.4byte	0
 14307              	.LLST153:
ARM GAS  /tmp/ccoI4Tqz.s 			page 252


 14308 15ad 00000000 		.4byte	.LVL254
 14309 15b1 0A000000 		.4byte	.LVL256
 14310 15b5 0100     		.2byte	0x1
 14311 15b7 50       		.byte	0x50
 14312 15b8 0A000000 		.4byte	.LVL256
 14313 15bc 3E000000 		.4byte	.LVL262
 14314 15c0 0100     		.2byte	0x1
 14315 15c2 54       		.byte	0x54
 14316 15c3 3E000000 		.4byte	.LVL262
 14317 15c7 41000000 		.4byte	.LVL263-1
 14318 15cb 0100     		.2byte	0x1
 14319 15cd 50       		.byte	0x50
 14320 15ce 41000000 		.4byte	.LVL263-1
 14321 15d2 42000000 		.4byte	.LVL263
 14322 15d6 0400     		.2byte	0x4
 14323 15d8 F3       		.byte	0xf3
 14324 15d9 01       		.uleb128 0x1
 14325 15da 50       		.byte	0x50
 14326 15db 9F       		.byte	0x9f
 14327 15dc 42000000 		.4byte	.LVL263
 14328 15e0 60000000 		.4byte	.LFE37
 14329 15e4 0100     		.2byte	0x1
 14330 15e6 54       		.byte	0x54
 14331 15e7 00000000 		.4byte	0
 14332 15eb 00000000 		.4byte	0
 14333              	.LLST154:
 14334 15ef 00000000 		.4byte	.LVL254
 14335 15f3 0E000000 		.4byte	.LVL257
 14336 15f7 0100     		.2byte	0x1
 14337 15f9 51       		.byte	0x51
 14338 15fa 0E000000 		.4byte	.LVL257
 14339 15fe 60000000 		.4byte	.LFE37
 14340 1602 0400     		.2byte	0x4
 14341 1604 F3       		.byte	0xf3
 14342 1605 01       		.uleb128 0x1
 14343 1606 51       		.byte	0x51
 14344 1607 9F       		.byte	0x9f
 14345 1608 00000000 		.4byte	0
 14346 160c 00000000 		.4byte	0
 14347              	.LLST155:
 14348 1610 14000000 		.4byte	.LVL258
 14349 1614 1A000000 		.4byte	.LVL259
 14350 1618 0100     		.2byte	0x1
 14351 161a 50       		.byte	0x50
 14352 161b 1A000000 		.4byte	.LVL259
 14353 161f 37000000 		.4byte	.LVL261-1
 14354 1623 0100     		.2byte	0x1
 14355 1625 53       		.byte	0x53
 14356 1626 42000000 		.4byte	.LVL263
 14357 162a 60000000 		.4byte	.LFE37
 14358 162e 0100     		.2byte	0x1
 14359 1630 53       		.byte	0x53
 14360 1631 00000000 		.4byte	0
 14361 1635 00000000 		.4byte	0
 14362              	.LLST156:
 14363 1639 04000000 		.4byte	.LVL255
 14364 163d 0A000000 		.4byte	.LVL256
ARM GAS  /tmp/ccoI4Tqz.s 			page 253


 14365 1641 0100     		.2byte	0x1
 14366 1643 50       		.byte	0x50
 14367 1644 0A000000 		.4byte	.LVL256
 14368 1648 3E000000 		.4byte	.LVL262
 14369 164c 0100     		.2byte	0x1
 14370 164e 54       		.byte	0x54
 14371 164f 3E000000 		.4byte	.LVL262
 14372 1653 41000000 		.4byte	.LVL263-1
 14373 1657 0100     		.2byte	0x1
 14374 1659 50       		.byte	0x50
 14375 165a 41000000 		.4byte	.LVL263-1
 14376 165e 42000000 		.4byte	.LVL263
 14377 1662 0400     		.2byte	0x4
 14378 1664 F3       		.byte	0xf3
 14379 1665 01       		.uleb128 0x1
 14380 1666 50       		.byte	0x50
 14381 1667 9F       		.byte	0x9f
 14382 1668 42000000 		.4byte	.LVL263
 14383 166c 60000000 		.4byte	.LFE37
 14384 1670 0100     		.2byte	0x1
 14385 1672 54       		.byte	0x54
 14386 1673 00000000 		.4byte	0
 14387 1677 00000000 		.4byte	0
 14388              	.LLST157:
 14389 167b 2A000000 		.4byte	.LVL260
 14390 167f 37000000 		.4byte	.LVL261-1
 14391 1683 0100     		.2byte	0x1
 14392 1685 53       		.byte	0x53
 14393 1686 00000000 		.4byte	0
 14394 168a 00000000 		.4byte	0
 14395              	.LLST158:
 14396 168e 2A000000 		.4byte	.LVL260
 14397 1692 42000000 		.4byte	.LVL263
 14398 1696 0300     		.2byte	0x3
 14399 1698 08       		.byte	0x8
 14400 1699 21       		.byte	0x21
 14401 169a 9F       		.byte	0x9f
 14402 169b 00000000 		.4byte	0
 14403 169f 00000000 		.4byte	0
 14404              	.LLST159:
 14405 16a3 2A000000 		.4byte	.LVL260
 14406 16a7 3E000000 		.4byte	.LVL262
 14407 16ab 0100     		.2byte	0x1
 14408 16ad 54       		.byte	0x54
 14409 16ae 3E000000 		.4byte	.LVL262
 14410 16b2 41000000 		.4byte	.LVL263-1
 14411 16b6 0100     		.2byte	0x1
 14412 16b8 50       		.byte	0x50
 14413 16b9 41000000 		.4byte	.LVL263-1
 14414 16bd 42000000 		.4byte	.LVL263
 14415 16c1 0400     		.2byte	0x4
 14416 16c3 F3       		.byte	0xf3
 14417 16c4 01       		.uleb128 0x1
 14418 16c5 50       		.byte	0x50
 14419 16c6 9F       		.byte	0x9f
 14420 16c7 00000000 		.4byte	0
 14421 16cb 00000000 		.4byte	0
ARM GAS  /tmp/ccoI4Tqz.s 			page 254


 14422              	.LLST160:
 14423 16cf 00000000 		.4byte	.LVL267
 14424 16d3 06000000 		.4byte	.LVL269
 14425 16d7 0100     		.2byte	0x1
 14426 16d9 50       		.byte	0x50
 14427 16da 06000000 		.4byte	.LVL269
 14428 16de 46000000 		.4byte	.LVL278
 14429 16e2 0100     		.2byte	0x1
 14430 16e4 54       		.byte	0x54
 14431 16e5 46000000 		.4byte	.LVL278
 14432 16e9 4A000000 		.4byte	.LVL279
 14433 16ed 0400     		.2byte	0x4
 14434 16ef F3       		.byte	0xf3
 14435 16f0 01       		.uleb128 0x1
 14436 16f1 50       		.byte	0x50
 14437 16f2 9F       		.byte	0x9f
 14438 16f3 4A000000 		.4byte	.LVL279
 14439 16f7 58000000 		.4byte	.LFE44
 14440 16fb 0100     		.2byte	0x1
 14441 16fd 54       		.byte	0x54
 14442 16fe 00000000 		.4byte	0
 14443 1702 00000000 		.4byte	0
 14444              	.LLST161:
 14445 1706 00000000 		.4byte	.LVL267
 14446 170a 10000000 		.4byte	.LVL272
 14447 170e 0100     		.2byte	0x1
 14448 1710 51       		.byte	0x51
 14449 1711 10000000 		.4byte	.LVL272
 14450 1715 58000000 		.4byte	.LFE44
 14451 1719 0400     		.2byte	0x4
 14452 171b F3       		.byte	0xf3
 14453 171c 01       		.uleb128 0x1
 14454 171d 51       		.byte	0x51
 14455 171e 9F       		.byte	0x9f
 14456 171f 00000000 		.4byte	0
 14457 1723 00000000 		.4byte	0
 14458              	.LLST162:
 14459 1727 00000000 		.4byte	.LVL267
 14460 172b 0A000000 		.4byte	.LVL270
 14461 172f 0100     		.2byte	0x1
 14462 1731 52       		.byte	0x52
 14463 1732 0A000000 		.4byte	.LVL270
 14464 1736 58000000 		.4byte	.LFE44
 14465 173a 0400     		.2byte	0x4
 14466 173c F3       		.byte	0xf3
 14467 173d 01       		.uleb128 0x1
 14468 173e 52       		.byte	0x52
 14469 173f 9F       		.byte	0x9f
 14470 1740 00000000 		.4byte	0
 14471 1744 00000000 		.4byte	0
 14472              	.LLST163:
 14473 1748 00000000 		.4byte	.LVL267
 14474 174c 0C000000 		.4byte	.LVL271
 14475 1750 0100     		.2byte	0x1
 14476 1752 53       		.byte	0x53
 14477 1753 0C000000 		.4byte	.LVL271
 14478 1757 58000000 		.4byte	.LFE44
ARM GAS  /tmp/ccoI4Tqz.s 			page 255


 14479 175b 0400     		.2byte	0x4
 14480 175d F3       		.byte	0xf3
 14481 175e 01       		.uleb128 0x1
 14482 175f 53       		.byte	0x53
 14483 1760 9F       		.byte	0x9f
 14484 1761 00000000 		.4byte	0
 14485 1765 00000000 		.4byte	0
 14486              	.LLST164:
 14487 1769 00000000 		.4byte	.LVL267
 14488 176d 46000000 		.4byte	.LVL278
 14489 1771 0200     		.2byte	0x2
 14490 1773 91       		.byte	0x91
 14491 1774 00       		.sleb128 0
 14492 1775 46000000 		.4byte	.LVL278
 14493 1779 4A000000 		.4byte	.LVL279
 14494 177d 0200     		.2byte	0x2
 14495 177f 7D       		.byte	0x7d
 14496 1780 00       		.sleb128 0
 14497 1781 4A000000 		.4byte	.LVL279
 14498 1785 58000000 		.4byte	.LFE44
 14499 1789 0200     		.2byte	0x2
 14500 178b 91       		.byte	0x91
 14501 178c 00       		.sleb128 0
 14502 178d 00000000 		.4byte	0
 14503 1791 00000000 		.4byte	0
 14504              	.LLST165:
 14505 1795 2A000000 		.4byte	.LVL275
 14506 1799 32000000 		.4byte	.LVL276
 14507 179d 0100     		.2byte	0x1
 14508 179f 50       		.byte	0x50
 14509 17a0 32000000 		.4byte	.LVL276
 14510 17a4 49000000 		.4byte	.LVL279-1
 14511 17a8 0100     		.2byte	0x1
 14512 17aa 53       		.byte	0x53
 14513 17ab 4A000000 		.4byte	.LVL279
 14514 17af 4E000000 		.4byte	.LVL280
 14515 17b3 0100     		.2byte	0x1
 14516 17b5 50       		.byte	0x50
 14517 17b6 4E000000 		.4byte	.LVL280
 14518 17ba 58000000 		.4byte	.LFE44
 14519 17be 0100     		.2byte	0x1
 14520 17c0 53       		.byte	0x53
 14521 17c1 00000000 		.4byte	0
 14522 17c5 00000000 		.4byte	0
 14523              	.LLST166:
 14524 17c9 06000000 		.4byte	.LVL269
 14525 17cd 14000000 		.4byte	.LVL273
 14526 17d1 0100     		.2byte	0x1
 14527 17d3 50       		.byte	0x50
 14528 17d4 00000000 		.4byte	0
 14529 17d8 00000000 		.4byte	0
 14530              	.LLST167:
 14531 17dc 04000000 		.4byte	.LVL268
 14532 17e0 10000000 		.4byte	.LVL272
 14533 17e4 0100     		.2byte	0x1
 14534 17e6 51       		.byte	0x51
 14535 17e7 10000000 		.4byte	.LVL272
ARM GAS  /tmp/ccoI4Tqz.s 			page 256


 14536 17eb 58000000 		.4byte	.LFE44
 14537 17ef 0400     		.2byte	0x4
 14538 17f1 F3       		.byte	0xf3
 14539 17f2 01       		.uleb128 0x1
 14540 17f3 51       		.byte	0x51
 14541 17f4 9F       		.byte	0x9f
 14542 17f5 00000000 		.4byte	0
 14543 17f9 00000000 		.4byte	0
 14544              	.LLST168:
 14545 17fd 04000000 		.4byte	.LVL268
 14546 1801 06000000 		.4byte	.LVL269
 14547 1805 0100     		.2byte	0x1
 14548 1807 50       		.byte	0x50
 14549 1808 06000000 		.4byte	.LVL269
 14550 180c 46000000 		.4byte	.LVL278
 14551 1810 0100     		.2byte	0x1
 14552 1812 54       		.byte	0x54
 14553 1813 46000000 		.4byte	.LVL278
 14554 1817 4A000000 		.4byte	.LVL279
 14555 181b 0400     		.2byte	0x4
 14556 181d F3       		.byte	0xf3
 14557 181e 01       		.uleb128 0x1
 14558 181f 50       		.byte	0x50
 14559 1820 9F       		.byte	0x9f
 14560 1821 4A000000 		.4byte	.LVL279
 14561 1825 58000000 		.4byte	.LFE44
 14562 1829 0100     		.2byte	0x1
 14563 182b 54       		.byte	0x54
 14564 182c 00000000 		.4byte	0
 14565 1830 00000000 		.4byte	0
 14566              	.LLST169:
 14567 1834 1C000000 		.4byte	.LVL274
 14568 1838 46000000 		.4byte	.LVL278
 14569 183c 0100     		.2byte	0x1
 14570 183e 54       		.byte	0x54
 14571 183f 46000000 		.4byte	.LVL278
 14572 1843 4A000000 		.4byte	.LVL279
 14573 1847 0400     		.2byte	0x4
 14574 1849 F3       		.byte	0xf3
 14575 184a 01       		.uleb128 0x1
 14576 184b 50       		.byte	0x50
 14577 184c 9F       		.byte	0x9f
 14578 184d 4A000000 		.4byte	.LVL279
 14579 1851 58000000 		.4byte	.LFE44
 14580 1855 0100     		.2byte	0x1
 14581 1857 54       		.byte	0x54
 14582 1858 00000000 		.4byte	0
 14583 185c 00000000 		.4byte	0
 14584              	.LLST170:
 14585 1860 38000000 		.4byte	.LVL277
 14586 1864 49000000 		.4byte	.LVL279-1
 14587 1868 0100     		.2byte	0x1
 14588 186a 53       		.byte	0x53
 14589 186b 00000000 		.4byte	0
 14590 186f 00000000 		.4byte	0
 14591              	.LLST171:
 14592 1873 38000000 		.4byte	.LVL277
ARM GAS  /tmp/ccoI4Tqz.s 			page 257


 14593 1877 4A000000 		.4byte	.LVL279
 14594 187b 0300     		.2byte	0x3
 14595 187d 08       		.byte	0x8
 14596 187e 22       		.byte	0x22
 14597 187f 9F       		.byte	0x9f
 14598 1880 00000000 		.4byte	0
 14599 1884 00000000 		.4byte	0
 14600              	.LLST172:
 14601 1888 38000000 		.4byte	.LVL277
 14602 188c 46000000 		.4byte	.LVL278
 14603 1890 0100     		.2byte	0x1
 14604 1892 54       		.byte	0x54
 14605 1893 46000000 		.4byte	.LVL278
 14606 1897 4A000000 		.4byte	.LVL279
 14607 189b 0400     		.2byte	0x4
 14608 189d F3       		.byte	0xf3
 14609 189e 01       		.uleb128 0x1
 14610 189f 50       		.byte	0x50
 14611 18a0 9F       		.byte	0x9f
 14612 18a1 00000000 		.4byte	0
 14613 18a5 00000000 		.4byte	0
 14614              	.LLST173:
 14615 18a9 00000000 		.4byte	.LVL282
 14616 18ad 16000000 		.4byte	.LVL286
 14617 18b1 0100     		.2byte	0x1
 14618 18b3 50       		.byte	0x50
 14619 18b4 16000000 		.4byte	.LVL286
 14620 18b8 30000000 		.4byte	.LVL290
 14621 18bc 0100     		.2byte	0x1
 14622 18be 54       		.byte	0x54
 14623 18bf 30000000 		.4byte	.LVL290
 14624 18c3 34000000 		.4byte	.LFE45
 14625 18c7 0400     		.2byte	0x4
 14626 18c9 F3       		.byte	0xf3
 14627 18ca 01       		.uleb128 0x1
 14628 18cb 50       		.byte	0x50
 14629 18cc 9F       		.byte	0x9f
 14630 18cd 00000000 		.4byte	0
 14631 18d1 00000000 		.4byte	0
 14632              	.LLST174:
 14633 18d5 00000000 		.4byte	.LVL282
 14634 18d9 1A000000 		.4byte	.LVL287
 14635 18dd 0100     		.2byte	0x1
 14636 18df 51       		.byte	0x51
 14637 18e0 1A000000 		.4byte	.LVL287
 14638 18e4 34000000 		.4byte	.LFE45
 14639 18e8 0400     		.2byte	0x4
 14640 18ea F3       		.byte	0xf3
 14641 18eb 01       		.uleb128 0x1
 14642 18ec 51       		.byte	0x51
 14643 18ed 9F       		.byte	0x9f
 14644 18ee 00000000 		.4byte	0
 14645 18f2 00000000 		.4byte	0
 14646              	.LLST175:
 14647 18f6 00000000 		.4byte	.LVL282
 14648 18fa 06000000 		.4byte	.LVL283
 14649 18fe 0100     		.2byte	0x1
ARM GAS  /tmp/ccoI4Tqz.s 			page 258


 14650 1900 52       		.byte	0x52
 14651 1901 06000000 		.4byte	.LVL283
 14652 1905 34000000 		.4byte	.LFE45
 14653 1909 0400     		.2byte	0x4
 14654 190b F3       		.byte	0xf3
 14655 190c 01       		.uleb128 0x1
 14656 190d 52       		.byte	0x52
 14657 190e 9F       		.byte	0x9f
 14658 190f 00000000 		.4byte	0
 14659 1913 00000000 		.4byte	0
 14660              	.LLST176:
 14661 1917 00000000 		.4byte	.LVL282
 14662 191b 12000000 		.4byte	.LVL285
 14663 191f 0100     		.2byte	0x1
 14664 1921 53       		.byte	0x53
 14665 1922 12000000 		.4byte	.LVL285
 14666 1926 34000000 		.4byte	.LFE45
 14667 192a 0400     		.2byte	0x4
 14668 192c F3       		.byte	0xf3
 14669 192d 01       		.uleb128 0x1
 14670 192e 53       		.byte	0x53
 14671 192f 9F       		.byte	0x9f
 14672 1930 00000000 		.4byte	0
 14673 1934 00000000 		.4byte	0
 14674              	.LLST177:
 14675 1938 00000000 		.4byte	.LVL282
 14676 193c 06000000 		.4byte	.LVL283
 14677 1940 0200     		.2byte	0x2
 14678 1942 30       		.byte	0x30
 14679 1943 9F       		.byte	0x9f
 14680 1944 06000000 		.4byte	.LVL283
 14681 1948 1C000000 		.4byte	.LVL288
 14682 194c 0100     		.2byte	0x1
 14683 194e 52       		.byte	0x52
 14684 194f 00000000 		.4byte	0
 14685 1953 00000000 		.4byte	0
 14686              	.LLST178:
 14687 1957 10000000 		.4byte	.LVL284
 14688 195b 1C000000 		.4byte	.LVL288
 14689 195f 0100     		.2byte	0x1
 14690 1961 52       		.byte	0x52
 14691 1962 00000000 		.4byte	0
 14692 1966 00000000 		.4byte	0
 14693              	.LLST179:
 14694 196a 10000000 		.4byte	.LVL284
 14695 196e 16000000 		.4byte	.LVL286
 14696 1972 0100     		.2byte	0x1
 14697 1974 50       		.byte	0x50
 14698 1975 16000000 		.4byte	.LVL286
 14699 1979 30000000 		.4byte	.LVL290
 14700 197d 0100     		.2byte	0x1
 14701 197f 54       		.byte	0x54
 14702 1980 30000000 		.4byte	.LVL290
 14703 1984 34000000 		.4byte	.LFE45
 14704 1988 0400     		.2byte	0x4
 14705 198a F3       		.byte	0xf3
 14706 198b 01       		.uleb128 0x1
ARM GAS  /tmp/ccoI4Tqz.s 			page 259


 14707 198c 50       		.byte	0x50
 14708 198d 9F       		.byte	0x9f
 14709 198e 00000000 		.4byte	0
 14710 1992 00000000 		.4byte	0
 14711              	.LLST180:
 14712 1996 20000000 		.4byte	.LVL289
 14713 199a 30000000 		.4byte	.LVL290
 14714 199e 0100     		.2byte	0x1
 14715 19a0 55       		.byte	0x55
 14716 19a1 00000000 		.4byte	0
 14717 19a5 00000000 		.4byte	0
 14718              	.LLST181:
 14719 19a9 20000000 		.4byte	.LVL289
 14720 19ad 30000000 		.4byte	.LVL290
 14721 19b1 0100     		.2byte	0x1
 14722 19b3 54       		.byte	0x54
 14723 19b4 30000000 		.4byte	.LVL290
 14724 19b8 34000000 		.4byte	.LFE45
 14725 19bc 0400     		.2byte	0x4
 14726 19be F3       		.byte	0xf3
 14727 19bf 01       		.uleb128 0x1
 14728 19c0 50       		.byte	0x50
 14729 19c1 9F       		.byte	0x9f
 14730 19c2 00000000 		.4byte	0
 14731 19c6 00000000 		.4byte	0
 14732              	.LLST182:
 14733 19ca 00000000 		.4byte	.LVL292
 14734 19ce 0E000000 		.4byte	.LVL294
 14735 19d2 0100     		.2byte	0x1
 14736 19d4 50       		.byte	0x50
 14737 19d5 0E000000 		.4byte	.LVL294
 14738 19d9 11000000 		.4byte	.LVL295-1
 14739 19dd 0100     		.2byte	0x1
 14740 19df 53       		.byte	0x53
 14741 19e0 11000000 		.4byte	.LVL295-1
 14742 19e4 18000000 		.4byte	.LFE46
 14743 19e8 0400     		.2byte	0x4
 14744 19ea F3       		.byte	0xf3
 14745 19eb 01       		.uleb128 0x1
 14746 19ec 50       		.byte	0x50
 14747 19ed 9F       		.byte	0x9f
 14748 19ee 00000000 		.4byte	0
 14749 19f2 00000000 		.4byte	0
 14750              	.LLST183:
 14751 19f6 12000000 		.4byte	.LVL295
 14752 19fa 16000000 		.4byte	.LVL296
 14753 19fe 0500     		.2byte	0x5
 14754 1a00 70       		.byte	0x70
 14755 1a01 00       		.sleb128 0
 14756 1a02 40       		.byte	0x40
 14757 1a03 1A       		.byte	0x1a
 14758 1a04 9F       		.byte	0x9f
 14759 1a05 00000000 		.4byte	0
 14760 1a09 00000000 		.4byte	0
 14761              	.LLST184:
 14762 1a0d 04000000 		.4byte	.LVL293
 14763 1a11 0E000000 		.4byte	.LVL294
ARM GAS  /tmp/ccoI4Tqz.s 			page 260


 14764 1a15 0100     		.2byte	0x1
 14765 1a17 50       		.byte	0x50
 14766 1a18 0E000000 		.4byte	.LVL294
 14767 1a1c 11000000 		.4byte	.LVL295-1
 14768 1a20 0100     		.2byte	0x1
 14769 1a22 53       		.byte	0x53
 14770 1a23 11000000 		.4byte	.LVL295-1
 14771 1a27 18000000 		.4byte	.LFE46
 14772 1a2b 0400     		.2byte	0x4
 14773 1a2d F3       		.byte	0xf3
 14774 1a2e 01       		.uleb128 0x1
 14775 1a2f 50       		.byte	0x50
 14776 1a30 9F       		.byte	0x9f
 14777 1a31 00000000 		.4byte	0
 14778 1a35 00000000 		.4byte	0
 14779              	.LLST185:
 14780 1a39 00000000 		.4byte	.LVL297
 14781 1a3d 10000000 		.4byte	.LVL300
 14782 1a41 0100     		.2byte	0x1
 14783 1a43 50       		.byte	0x50
 14784 1a44 10000000 		.4byte	.LVL300
 14785 1a48 1A000000 		.4byte	.LVL303
 14786 1a4c 0100     		.2byte	0x1
 14787 1a4e 54       		.byte	0x54
 14788 1a4f 1A000000 		.4byte	.LVL303
 14789 1a53 1E000000 		.4byte	.LFE47
 14790 1a57 0400     		.2byte	0x4
 14791 1a59 F3       		.byte	0xf3
 14792 1a5a 01       		.uleb128 0x1
 14793 1a5b 50       		.byte	0x50
 14794 1a5c 9F       		.byte	0x9f
 14795 1a5d 00000000 		.4byte	0
 14796 1a61 00000000 		.4byte	0
 14797              	.LLST186:
 14798 1a65 00000000 		.4byte	.LVL297
 14799 1a69 14000000 		.4byte	.LVL301
 14800 1a6d 0100     		.2byte	0x1
 14801 1a6f 51       		.byte	0x51
 14802 1a70 14000000 		.4byte	.LVL301
 14803 1a74 1E000000 		.4byte	.LFE47
 14804 1a78 0400     		.2byte	0x4
 14805 1a7a F3       		.byte	0xf3
 14806 1a7b 01       		.uleb128 0x1
 14807 1a7c 51       		.byte	0x51
 14808 1a7d 9F       		.byte	0x9f
 14809 1a7e 00000000 		.4byte	0
 14810 1a82 00000000 		.4byte	0
 14811              	.LLST187:
 14812 1a86 00000000 		.4byte	.LVL297
 14813 1a8a 16000000 		.4byte	.LVL302
 14814 1a8e 0100     		.2byte	0x1
 14815 1a90 52       		.byte	0x52
 14816 1a91 16000000 		.4byte	.LVL302
 14817 1a95 1E000000 		.4byte	.LFE47
 14818 1a99 0400     		.2byte	0x4
 14819 1a9b F3       		.byte	0xf3
 14820 1a9c 01       		.uleb128 0x1
ARM GAS  /tmp/ccoI4Tqz.s 			page 261


 14821 1a9d 52       		.byte	0x52
 14822 1a9e 9F       		.byte	0x9f
 14823 1a9f 00000000 		.4byte	0
 14824 1aa3 00000000 		.4byte	0
 14825              	.LLST188:
 14826 1aa7 04000000 		.4byte	.LVL298
 14827 1aab 0C000000 		.4byte	.LVL299
 14828 1aaf 0100     		.2byte	0x1
 14829 1ab1 51       		.byte	0x51
 14830 1ab2 0C000000 		.4byte	.LVL299
 14831 1ab6 1D000000 		.4byte	.LVL304-1
 14832 1aba 0100     		.2byte	0x1
 14833 1abc 53       		.byte	0x53
 14834 1abd 00000000 		.4byte	0
 14835 1ac1 00000000 		.4byte	0
 14836              	.LLST189:
 14837 1ac5 0C000000 		.4byte	.LVL299
 14838 1ac9 1D000000 		.4byte	.LVL304-1
 14839 1acd 0100     		.2byte	0x1
 14840 1acf 53       		.byte	0x53
 14841 1ad0 00000000 		.4byte	0
 14842 1ad4 00000000 		.4byte	0
 14843              	.LLST190:
 14844 1ad8 0C000000 		.4byte	.LVL299
 14845 1adc 10000000 		.4byte	.LVL300
 14846 1ae0 0100     		.2byte	0x1
 14847 1ae2 50       		.byte	0x50
 14848 1ae3 10000000 		.4byte	.LVL300
 14849 1ae7 1A000000 		.4byte	.LVL303
 14850 1aeb 0100     		.2byte	0x1
 14851 1aed 54       		.byte	0x54
 14852 1aee 1A000000 		.4byte	.LVL303
 14853 1af2 1E000000 		.4byte	.LFE47
 14854 1af6 0400     		.2byte	0x4
 14855 1af8 F3       		.byte	0xf3
 14856 1af9 01       		.uleb128 0x1
 14857 1afa 50       		.byte	0x50
 14858 1afb 9F       		.byte	0x9f
 14859 1afc 00000000 		.4byte	0
 14860 1b00 00000000 		.4byte	0
 14861              	.LLST191:
 14862 1b04 00000000 		.4byte	.LVL305
 14863 1b08 14000000 		.4byte	.LVL309
 14864 1b0c 0100     		.2byte	0x1
 14865 1b0e 50       		.byte	0x50
 14866 1b0f 14000000 		.4byte	.LVL309
 14867 1b13 34000000 		.4byte	.LVL314
 14868 1b17 0100     		.2byte	0x1
 14869 1b19 55       		.byte	0x55
 14870 1b1a 34000000 		.4byte	.LVL314
 14871 1b1e 38000000 		.4byte	.LFE48
 14872 1b22 0400     		.2byte	0x4
 14873 1b24 F3       		.byte	0xf3
 14874 1b25 01       		.uleb128 0x1
 14875 1b26 50       		.byte	0x50
 14876 1b27 9F       		.byte	0x9f
 14877 1b28 00000000 		.4byte	0
ARM GAS  /tmp/ccoI4Tqz.s 			page 262


 14878 1b2c 00000000 		.4byte	0
 14879              	.LLST192:
 14880 1b30 00000000 		.4byte	.LVL305
 14881 1b34 18000000 		.4byte	.LVL310
 14882 1b38 0100     		.2byte	0x1
 14883 1b3a 51       		.byte	0x51
 14884 1b3b 18000000 		.4byte	.LVL310
 14885 1b3f 38000000 		.4byte	.LFE48
 14886 1b43 0400     		.2byte	0x4
 14887 1b45 F3       		.byte	0xf3
 14888 1b46 01       		.uleb128 0x1
 14889 1b47 51       		.byte	0x51
 14890 1b48 9F       		.byte	0x9f
 14891 1b49 00000000 		.4byte	0
 14892 1b4d 00000000 		.4byte	0
 14893              	.LLST193:
 14894 1b51 00000000 		.4byte	.LVL305
 14895 1b55 08000000 		.4byte	.LVL307
 14896 1b59 0100     		.2byte	0x1
 14897 1b5b 52       		.byte	0x52
 14898 1b5c 08000000 		.4byte	.LVL307
 14899 1b60 38000000 		.4byte	.LFE48
 14900 1b64 0400     		.2byte	0x4
 14901 1b66 F3       		.byte	0xf3
 14902 1b67 01       		.uleb128 0x1
 14903 1b68 52       		.byte	0x52
 14904 1b69 9F       		.byte	0x9f
 14905 1b6a 00000000 		.4byte	0
 14906 1b6e 00000000 		.4byte	0
 14907              	.LLST194:
 14908 1b72 00000000 		.4byte	.LVL305
 14909 1b76 0E000000 		.4byte	.LVL308
 14910 1b7a 0100     		.2byte	0x1
 14911 1b7c 53       		.byte	0x53
 14912 1b7d 0E000000 		.4byte	.LVL308
 14913 1b81 38000000 		.4byte	.LFE48
 14914 1b85 0400     		.2byte	0x4
 14915 1b87 F3       		.byte	0xf3
 14916 1b88 01       		.uleb128 0x1
 14917 1b89 53       		.byte	0x53
 14918 1b8a 9F       		.byte	0x9f
 14919 1b8b 00000000 		.4byte	0
 14920 1b8f 00000000 		.4byte	0
 14921              	.LLST195:
 14922 1b93 00000000 		.4byte	.LVL305
 14923 1b97 34000000 		.4byte	.LVL314
 14924 1b9b 0200     		.2byte	0x2
 14925 1b9d 91       		.byte	0x91
 14926 1b9e 00       		.sleb128 0
 14927 1b9f 34000000 		.4byte	.LVL314
 14928 1ba3 38000000 		.4byte	.LFE48
 14929 1ba7 0200     		.2byte	0x2
 14930 1ba9 7D       		.byte	0x7d
 14931 1baa 00       		.sleb128 0
 14932 1bab 00000000 		.4byte	0
 14933 1baf 00000000 		.4byte	0
 14934              	.LLST196:
ARM GAS  /tmp/ccoI4Tqz.s 			page 263


 14935 1bb3 20000000 		.4byte	.LVL312
 14936 1bb7 37000000 		.4byte	.LVL315-1
 14937 1bbb 0100     		.2byte	0x1
 14938 1bbd 53       		.byte	0x53
 14939 1bbe 00000000 		.4byte	0
 14940 1bc2 00000000 		.4byte	0
 14941              	.LLST197:
 14942 1bc6 04000000 		.4byte	.LVL306
 14943 1bca 18000000 		.4byte	.LVL310
 14944 1bce 0100     		.2byte	0x1
 14945 1bd0 51       		.byte	0x51
 14946 1bd1 18000000 		.4byte	.LVL310
 14947 1bd5 38000000 		.4byte	.LFE48
 14948 1bd9 0400     		.2byte	0x4
 14949 1bdb F3       		.byte	0xf3
 14950 1bdc 01       		.uleb128 0x1
 14951 1bdd 51       		.byte	0x51
 14952 1bde 9F       		.byte	0x9f
 14953 1bdf 00000000 		.4byte	0
 14954 1be3 00000000 		.4byte	0
 14955              	.LLST198:
 14956 1be7 04000000 		.4byte	.LVL306
 14957 1beb 08000000 		.4byte	.LVL307
 14958 1bef 0300     		.2byte	0x3
 14959 1bf1 72       		.byte	0x72
 14960 1bf2 07       		.sleb128 7
 14961 1bf3 9F       		.byte	0x9f
 14962 1bf4 08000000 		.4byte	.LVL307
 14963 1bf8 38000000 		.4byte	.LFE48
 14964 1bfc 0600     		.2byte	0x6
 14965 1bfe F3       		.byte	0xf3
 14966 1bff 01       		.uleb128 0x1
 14967 1c00 52       		.byte	0x52
 14968 1c01 23       		.byte	0x23
 14969 1c02 07       		.uleb128 0x7
 14970 1c03 9F       		.byte	0x9f
 14971 1c04 00000000 		.4byte	0
 14972 1c08 00000000 		.4byte	0
 14973              	.LLST199:
 14974 1c0c 04000000 		.4byte	.LVL306
 14975 1c10 14000000 		.4byte	.LVL309
 14976 1c14 0100     		.2byte	0x1
 14977 1c16 50       		.byte	0x50
 14978 1c17 14000000 		.4byte	.LVL309
 14979 1c1b 34000000 		.4byte	.LVL314
 14980 1c1f 0100     		.2byte	0x1
 14981 1c21 55       		.byte	0x55
 14982 1c22 34000000 		.4byte	.LVL314
 14983 1c26 38000000 		.4byte	.LFE48
 14984 1c2a 0400     		.2byte	0x4
 14985 1c2c F3       		.byte	0xf3
 14986 1c2d 01       		.uleb128 0x1
 14987 1c2e 50       		.byte	0x50
 14988 1c2f 9F       		.byte	0x9f
 14989 1c30 00000000 		.4byte	0
 14990 1c34 00000000 		.4byte	0
 14991              	.LLST200:
ARM GAS  /tmp/ccoI4Tqz.s 			page 264


 14992 1c38 26000000 		.4byte	.LVL313
 14993 1c3c 37000000 		.4byte	.LVL315-1
 14994 1c40 0100     		.2byte	0x1
 14995 1c42 53       		.byte	0x53
 14996 1c43 00000000 		.4byte	0
 14997 1c47 00000000 		.4byte	0
 14998              	.LLST201:
 14999 1c4b 26000000 		.4byte	.LVL313
 15000 1c4f 34000000 		.4byte	.LVL314
 15001 1c53 0100     		.2byte	0x1
 15002 1c55 55       		.byte	0x55
 15003 1c56 34000000 		.4byte	.LVL314
 15004 1c5a 38000000 		.4byte	.LFE48
 15005 1c5e 0400     		.2byte	0x4
 15006 1c60 F3       		.byte	0xf3
 15007 1c61 01       		.uleb128 0x1
 15008 1c62 50       		.byte	0x50
 15009 1c63 9F       		.byte	0x9f
 15010 1c64 00000000 		.4byte	0
 15011 1c68 00000000 		.4byte	0
 15012              	.LLST202:
 15013 1c6c 00000000 		.4byte	.LVL316
 15014 1c70 0E000000 		.4byte	.LVL318
 15015 1c74 0100     		.2byte	0x1
 15016 1c76 50       		.byte	0x50
 15017 1c77 0E000000 		.4byte	.LVL318
 15018 1c7b 11000000 		.4byte	.LVL319-1
 15019 1c7f 0100     		.2byte	0x1
 15020 1c81 53       		.byte	0x53
 15021 1c82 11000000 		.4byte	.LVL319-1
 15022 1c86 24000000 		.4byte	.LFE49
 15023 1c8a 0400     		.2byte	0x4
 15024 1c8c F3       		.byte	0xf3
 15025 1c8d 01       		.uleb128 0x1
 15026 1c8e 50       		.byte	0x50
 15027 1c8f 9F       		.byte	0x9f
 15028 1c90 00000000 		.4byte	0
 15029 1c94 00000000 		.4byte	0
 15030              	.LLST203:
 15031 1c98 12000000 		.4byte	.LVL319
 15032 1c9c 22000000 		.4byte	.LVL320
 15033 1ca0 0100     		.2byte	0x1
 15034 1ca2 50       		.byte	0x50
 15035 1ca3 00000000 		.4byte	0
 15036 1ca7 00000000 		.4byte	0
 15037              	.LLST204:
 15038 1cab 04000000 		.4byte	.LVL317
 15039 1caf 0E000000 		.4byte	.LVL318
 15040 1cb3 0100     		.2byte	0x1
 15041 1cb5 50       		.byte	0x50
 15042 1cb6 0E000000 		.4byte	.LVL318
 15043 1cba 11000000 		.4byte	.LVL319-1
 15044 1cbe 0100     		.2byte	0x1
 15045 1cc0 53       		.byte	0x53
 15046 1cc1 11000000 		.4byte	.LVL319-1
 15047 1cc5 24000000 		.4byte	.LFE49
 15048 1cc9 0400     		.2byte	0x4
ARM GAS  /tmp/ccoI4Tqz.s 			page 265


 15049 1ccb F3       		.byte	0xf3
 15050 1ccc 01       		.uleb128 0x1
 15051 1ccd 50       		.byte	0x50
 15052 1cce 9F       		.byte	0x9f
 15053 1ccf 00000000 		.4byte	0
 15054 1cd3 00000000 		.4byte	0
 15055              	.LLST205:
 15056 1cd7 00000000 		.4byte	.LVL321
 15057 1cdb 16000000 		.4byte	.LVL326
 15058 1cdf 0100     		.2byte	0x1
 15059 1ce1 50       		.byte	0x50
 15060 1ce2 16000000 		.4byte	.LVL326
 15061 1ce6 20000000 		.4byte	.LVL329
 15062 1cea 0100     		.2byte	0x1
 15063 1cec 54       		.byte	0x54
 15064 1ced 20000000 		.4byte	.LVL329
 15065 1cf1 24000000 		.4byte	.LFE50
 15066 1cf5 0400     		.2byte	0x4
 15067 1cf7 F3       		.byte	0xf3
 15068 1cf8 01       		.uleb128 0x1
 15069 1cf9 50       		.byte	0x50
 15070 1cfa 9F       		.byte	0x9f
 15071 1cfb 00000000 		.4byte	0
 15072 1cff 00000000 		.4byte	0
 15073              	.LLST206:
 15074 1d03 00000000 		.4byte	.LVL321
 15075 1d07 0A000000 		.4byte	.LVL323
 15076 1d0b 0100     		.2byte	0x1
 15077 1d0d 51       		.byte	0x51
 15078 1d0e 0A000000 		.4byte	.LVL323
 15079 1d12 24000000 		.4byte	.LFE50
 15080 1d16 0400     		.2byte	0x4
 15081 1d18 F3       		.byte	0xf3
 15082 1d19 01       		.uleb128 0x1
 15083 1d1a 51       		.byte	0x51
 15084 1d1b 9F       		.byte	0x9f
 15085 1d1c 00000000 		.4byte	0
 15086 1d20 00000000 		.4byte	0
 15087              	.LLST207:
 15088 1d24 00000000 		.4byte	.LVL321
 15089 1d28 1C000000 		.4byte	.LVL328
 15090 1d2c 0100     		.2byte	0x1
 15091 1d2e 52       		.byte	0x52
 15092 1d2f 1C000000 		.4byte	.LVL328
 15093 1d33 24000000 		.4byte	.LFE50
 15094 1d37 0400     		.2byte	0x4
 15095 1d39 F3       		.byte	0xf3
 15096 1d3a 01       		.uleb128 0x1
 15097 1d3b 52       		.byte	0x52
 15098 1d3c 9F       		.byte	0x9f
 15099 1d3d 00000000 		.4byte	0
 15100 1d41 00000000 		.4byte	0
 15101              	.LLST208:
 15102 1d45 00000000 		.4byte	.LVL321
 15103 1d49 12000000 		.4byte	.LVL325
 15104 1d4d 0100     		.2byte	0x1
 15105 1d4f 53       		.byte	0x53
ARM GAS  /tmp/ccoI4Tqz.s 			page 266


 15106 1d50 12000000 		.4byte	.LVL325
 15107 1d54 24000000 		.4byte	.LFE50
 15108 1d58 0400     		.2byte	0x4
 15109 1d5a F3       		.byte	0xf3
 15110 1d5b 01       		.uleb128 0x1
 15111 1d5c 53       		.byte	0x53
 15112 1d5d 9F       		.byte	0x9f
 15113 1d5e 00000000 		.4byte	0
 15114 1d62 00000000 		.4byte	0
 15115              	.LLST209:
 15116 1d66 04000000 		.4byte	.LVL322
 15117 1d6a 1A000000 		.4byte	.LVL327
 15118 1d6e 0100     		.2byte	0x1
 15119 1d70 51       		.byte	0x51
 15120 1d71 00000000 		.4byte	0
 15121 1d75 00000000 		.4byte	0
 15122              	.LLST210:
 15123 1d79 10000000 		.4byte	.LVL324
 15124 1d7d 1A000000 		.4byte	.LVL327
 15125 1d81 0100     		.2byte	0x1
 15126 1d83 51       		.byte	0x51
 15127 1d84 00000000 		.4byte	0
 15128 1d88 00000000 		.4byte	0
 15129              	.LLST211:
 15130 1d8c 10000000 		.4byte	.LVL324
 15131 1d90 16000000 		.4byte	.LVL326
 15132 1d94 0100     		.2byte	0x1
 15133 1d96 50       		.byte	0x50
 15134 1d97 16000000 		.4byte	.LVL326
 15135 1d9b 20000000 		.4byte	.LVL329
 15136 1d9f 0100     		.2byte	0x1
 15137 1da1 54       		.byte	0x54
 15138 1da2 20000000 		.4byte	.LVL329
 15139 1da6 24000000 		.4byte	.LFE50
 15140 1daa 0400     		.2byte	0x4
 15141 1dac F3       		.byte	0xf3
 15142 1dad 01       		.uleb128 0x1
 15143 1dae 50       		.byte	0x50
 15144 1daf 9F       		.byte	0x9f
 15145 1db0 00000000 		.4byte	0
 15146 1db4 00000000 		.4byte	0
 15147              	.LLST212:
 15148 1db8 00000000 		.4byte	.LVL331
 15149 1dbc 16000000 		.4byte	.LVL334
 15150 1dc0 0100     		.2byte	0x1
 15151 1dc2 50       		.byte	0x50
 15152 1dc3 16000000 		.4byte	.LVL334
 15153 1dc7 5A000000 		.4byte	.LVL341
 15154 1dcb 0100     		.2byte	0x1
 15155 1dcd 54       		.byte	0x54
 15156 1dce 5A000000 		.4byte	.LVL341
 15157 1dd2 5E000000 		.4byte	.LFE51
 15158 1dd6 0400     		.2byte	0x4
 15159 1dd8 F3       		.byte	0xf3
 15160 1dd9 01       		.uleb128 0x1
 15161 1dda 50       		.byte	0x50
 15162 1ddb 9F       		.byte	0x9f
ARM GAS  /tmp/ccoI4Tqz.s 			page 267


 15163 1ddc 00000000 		.4byte	0
 15164 1de0 00000000 		.4byte	0
 15165              	.LLST213:
 15166 1de4 00000000 		.4byte	.LVL331
 15167 1de8 1A000000 		.4byte	.LVL335
 15168 1dec 0100     		.2byte	0x1
 15169 1dee 51       		.byte	0x51
 15170 1def 1A000000 		.4byte	.LVL335
 15171 1df3 5E000000 		.4byte	.LFE51
 15172 1df7 0400     		.2byte	0x4
 15173 1df9 F3       		.byte	0xf3
 15174 1dfa 01       		.uleb128 0x1
 15175 1dfb 51       		.byte	0x51
 15176 1dfc 9F       		.byte	0x9f
 15177 1dfd 00000000 		.4byte	0
 15178 1e01 00000000 		.4byte	0
 15179              	.LLST214:
 15180 1e05 00000000 		.4byte	.LVL331
 15181 1e09 0E000000 		.4byte	.LVL333
 15182 1e0d 0100     		.2byte	0x1
 15183 1e0f 52       		.byte	0x52
 15184 1e10 0E000000 		.4byte	.LVL333
 15185 1e14 5E000000 		.4byte	.LFE51
 15186 1e18 0400     		.2byte	0x4
 15187 1e1a F3       		.byte	0xf3
 15188 1e1b 01       		.uleb128 0x1
 15189 1e1c 52       		.byte	0x52
 15190 1e1d 9F       		.byte	0x9f
 15191 1e1e 00000000 		.4byte	0
 15192 1e22 00000000 		.4byte	0
 15193              	.LLST215:
 15194 1e26 00000000 		.4byte	.LVL331
 15195 1e2a 1E000000 		.4byte	.LVL336
 15196 1e2e 0100     		.2byte	0x1
 15197 1e30 53       		.byte	0x53
 15198 1e31 1E000000 		.4byte	.LVL336
 15199 1e35 5E000000 		.4byte	.LFE51
 15200 1e39 0400     		.2byte	0x4
 15201 1e3b F3       		.byte	0xf3
 15202 1e3c 01       		.uleb128 0x1
 15203 1e3d 53       		.byte	0x53
 15204 1e3e 9F       		.byte	0x9f
 15205 1e3f 00000000 		.4byte	0
 15206 1e43 00000000 		.4byte	0
 15207              	.LLST216:
 15208 1e47 00000000 		.4byte	.LVL331
 15209 1e4b 5A000000 		.4byte	.LVL341
 15210 1e4f 0200     		.2byte	0x2
 15211 1e51 91       		.byte	0x91
 15212 1e52 00       		.sleb128 0
 15213 1e53 5A000000 		.4byte	.LVL341
 15214 1e57 5E000000 		.4byte	.LFE51
 15215 1e5b 0200     		.2byte	0x2
 15216 1e5d 7D       		.byte	0x7d
 15217 1e5e 00       		.sleb128 0
 15218 1e5f 00000000 		.4byte	0
 15219 1e63 00000000 		.4byte	0
ARM GAS  /tmp/ccoI4Tqz.s 			page 268


 15220              	.LLST217:
 15221 1e67 08000000 		.4byte	.LVL332
 15222 1e6b 5A000000 		.4byte	.LVL341
 15223 1e6f 1200     		.2byte	0x12
 15224 1e71 77       		.byte	0x77
 15225 1e72 00       		.sleb128 0
 15226 1e73 0A       		.byte	0xa
 15227 1e74 007F     		.2byte	0x7f00
 15228 1e76 1A       		.byte	0x1a
 15229 1e77 0A       		.byte	0xa
 15230 1e78 FFFF     		.2byte	0xffff
 15231 1e7a 1A       		.byte	0x1a
 15232 1e7b 38       		.byte	0x38
 15233 1e7c 26       		.byte	0x26
 15234 1e7d 9F       		.byte	0x9f
 15235 1e7e 93       		.byte	0x93
 15236 1e7f 01       		.uleb128 0x1
 15237 1e80 57       		.byte	0x57
 15238 1e81 93       		.byte	0x93
 15239 1e82 01       		.uleb128 0x1
 15240 1e83 00000000 		.4byte	0
 15241 1e87 00000000 		.4byte	0
 15242              	.LLST218:
 15243 1e8b 42000000 		.4byte	.LVL339
 15244 1e8f 5D000000 		.4byte	.LVL342-1
 15245 1e93 0100     		.2byte	0x1
 15246 1e95 53       		.byte	0x53
 15247 1e96 00000000 		.4byte	0
 15248 1e9a 00000000 		.4byte	0
 15249              	.LLST219:
 15250 1e9e 08000000 		.4byte	.LVL332
 15251 1ea2 5A000000 		.4byte	.LVL341
 15252 1ea6 0D00     		.2byte	0xd
 15253 1ea8 77       		.byte	0x77
 15254 1ea9 00       		.sleb128 0
 15255 1eaa 0A       		.byte	0xa
 15256 1eab 007F     		.2byte	0x7f00
 15257 1ead 1A       		.byte	0x1a
 15258 1eae 0A       		.byte	0xa
 15259 1eaf FFFF     		.2byte	0xffff
 15260 1eb1 1A       		.byte	0x1a
 15261 1eb2 38       		.byte	0x38
 15262 1eb3 26       		.byte	0x26
 15263 1eb4 9F       		.byte	0x9f
 15264 1eb5 00000000 		.4byte	0
 15265 1eb9 00000000 		.4byte	0
 15266              	.LLST220:
 15267 1ebd 08000000 		.4byte	.LVL332
 15268 1ec1 0E000000 		.4byte	.LVL333
 15269 1ec5 0700     		.2byte	0x7
 15270 1ec7 72       		.byte	0x72
 15271 1ec8 00       		.sleb128 0
 15272 1ec9 31       		.byte	0x31
 15273 1eca 24       		.byte	0x24
 15274 1ecb 23       		.byte	0x23
 15275 1ecc 31       		.uleb128 0x31
 15276 1ecd 9F       		.byte	0x9f
ARM GAS  /tmp/ccoI4Tqz.s 			page 269


 15277 1ece 0E000000 		.4byte	.LVL333
 15278 1ed2 5E000000 		.4byte	.LFE51
 15279 1ed6 0800     		.2byte	0x8
 15280 1ed8 F3       		.byte	0xf3
 15281 1ed9 01       		.uleb128 0x1
 15282 1eda 52       		.byte	0x52
 15283 1edb 31       		.byte	0x31
 15284 1edc 24       		.byte	0x24
 15285 1edd 23       		.byte	0x23
 15286 1ede 31       		.uleb128 0x31
 15287 1edf 9F       		.byte	0x9f
 15288 1ee0 00000000 		.4byte	0
 15289 1ee4 00000000 		.4byte	0
 15290              	.LLST221:
 15291 1ee8 08000000 		.4byte	.LVL332
 15292 1eec 16000000 		.4byte	.LVL334
 15293 1ef0 0100     		.2byte	0x1
 15294 1ef2 50       		.byte	0x50
 15295 1ef3 16000000 		.4byte	.LVL334
 15296 1ef7 5A000000 		.4byte	.LVL341
 15297 1efb 0100     		.2byte	0x1
 15298 1efd 54       		.byte	0x54
 15299 1efe 5A000000 		.4byte	.LVL341
 15300 1f02 5E000000 		.4byte	.LFE51
 15301 1f06 0400     		.2byte	0x4
 15302 1f08 F3       		.byte	0xf3
 15303 1f09 01       		.uleb128 0x1
 15304 1f0a 50       		.byte	0x50
 15305 1f0b 9F       		.byte	0x9f
 15306 1f0c 00000000 		.4byte	0
 15307 1f10 00000000 		.4byte	0
 15308              	.LLST222:
 15309 1f14 26000000 		.4byte	.LVL337
 15310 1f18 5A000000 		.4byte	.LVL341
 15311 1f1c 0100     		.2byte	0x1
 15312 1f1e 57       		.byte	0x57
 15313 1f1f 00000000 		.4byte	0
 15314 1f23 00000000 		.4byte	0
 15315              	.LLST223:
 15316 1f27 26000000 		.4byte	.LVL337
 15317 1f2b 5A000000 		.4byte	.LVL341
 15318 1f2f 0A00     		.2byte	0xa
 15319 1f31 75       		.byte	0x75
 15320 1f32 00       		.sleb128 0
 15321 1f33 08       		.byte	0x8
 15322 1f34 FF       		.byte	0xff
 15323 1f35 1A       		.byte	0x1a
 15324 1f36 23       		.byte	0x23
 15325 1f37 19       		.uleb128 0x19
 15326 1f38 31       		.byte	0x31
 15327 1f39 24       		.byte	0x24
 15328 1f3a 9F       		.byte	0x9f
 15329 1f3b 00000000 		.4byte	0
 15330 1f3f 00000000 		.4byte	0
 15331              	.LLST224:
 15332 1f43 26000000 		.4byte	.LVL337
 15333 1f47 5A000000 		.4byte	.LVL341
ARM GAS  /tmp/ccoI4Tqz.s 			page 270


 15334 1f4b 0100     		.2byte	0x1
 15335 1f4d 54       		.byte	0x54
 15336 1f4e 5A000000 		.4byte	.LVL341
 15337 1f52 5E000000 		.4byte	.LFE51
 15338 1f56 0400     		.2byte	0x4
 15339 1f58 F3       		.byte	0xf3
 15340 1f59 01       		.uleb128 0x1
 15341 1f5a 50       		.byte	0x50
 15342 1f5b 9F       		.byte	0x9f
 15343 1f5c 00000000 		.4byte	0
 15344 1f60 00000000 		.4byte	0
 15345              	.LLST225:
 15346 1f64 4C000000 		.4byte	.LVL340
 15347 1f68 5D000000 		.4byte	.LVL342-1
 15348 1f6c 0100     		.2byte	0x1
 15349 1f6e 53       		.byte	0x53
 15350 1f6f 00000000 		.4byte	0
 15351 1f73 00000000 		.4byte	0
 15352              	.LLST226:
 15353 1f77 4C000000 		.4byte	.LVL340
 15354 1f7b 5A000000 		.4byte	.LVL341
 15355 1f7f 0100     		.2byte	0x1
 15356 1f81 54       		.byte	0x54
 15357 1f82 5A000000 		.4byte	.LVL341
 15358 1f86 5E000000 		.4byte	.LFE51
 15359 1f8a 0400     		.2byte	0x4
 15360 1f8c F3       		.byte	0xf3
 15361 1f8d 01       		.uleb128 0x1
 15362 1f8e 50       		.byte	0x50
 15363 1f8f 9F       		.byte	0x9f
 15364 1f90 00000000 		.4byte	0
 15365 1f94 00000000 		.4byte	0
 15366              	.LLST227:
 15367 1f98 00000000 		.4byte	.LVL343
 15368 1f9c 0E000000 		.4byte	.LVL345
 15369 1fa0 0100     		.2byte	0x1
 15370 1fa2 50       		.byte	0x50
 15371 1fa3 0E000000 		.4byte	.LVL345
 15372 1fa7 11000000 		.4byte	.LVL346-1
 15373 1fab 0100     		.2byte	0x1
 15374 1fad 53       		.byte	0x53
 15375 1fae 11000000 		.4byte	.LVL346-1
 15376 1fb2 24000000 		.4byte	.LFE52
 15377 1fb6 0400     		.2byte	0x4
 15378 1fb8 F3       		.byte	0xf3
 15379 1fb9 01       		.uleb128 0x1
 15380 1fba 50       		.byte	0x50
 15381 1fbb 9F       		.byte	0x9f
 15382 1fbc 00000000 		.4byte	0
 15383 1fc0 00000000 		.4byte	0
 15384              	.LLST228:
 15385 1fc4 12000000 		.4byte	.LVL346
 15386 1fc8 22000000 		.4byte	.LVL347
 15387 1fcc 0100     		.2byte	0x1
 15388 1fce 50       		.byte	0x50
 15389 1fcf 00000000 		.4byte	0
 15390 1fd3 00000000 		.4byte	0
ARM GAS  /tmp/ccoI4Tqz.s 			page 271


 15391              	.LLST229:
 15392 1fd7 04000000 		.4byte	.LVL344
 15393 1fdb 0E000000 		.4byte	.LVL345
 15394 1fdf 0100     		.2byte	0x1
 15395 1fe1 50       		.byte	0x50
 15396 1fe2 0E000000 		.4byte	.LVL345
 15397 1fe6 11000000 		.4byte	.LVL346-1
 15398 1fea 0100     		.2byte	0x1
 15399 1fec 53       		.byte	0x53
 15400 1fed 11000000 		.4byte	.LVL346-1
 15401 1ff1 24000000 		.4byte	.LFE52
 15402 1ff5 0400     		.2byte	0x4
 15403 1ff7 F3       		.byte	0xf3
 15404 1ff8 01       		.uleb128 0x1
 15405 1ff9 50       		.byte	0x50
 15406 1ffa 9F       		.byte	0x9f
 15407 1ffb 00000000 		.4byte	0
 15408 1fff 00000000 		.4byte	0
 15409              	.LLST230:
 15410 2003 00000000 		.4byte	.LVL348
 15411 2007 06000000 		.4byte	.LVL349
 15412 200b 0100     		.2byte	0x1
 15413 200d 50       		.byte	0x50
 15414 200e 06000000 		.4byte	.LVL349
 15415 2012 2A000000 		.4byte	.LVL356
 15416 2016 0100     		.2byte	0x1
 15417 2018 54       		.byte	0x54
 15418 2019 2A000000 		.4byte	.LVL356
 15419 201d 2E000000 		.4byte	.LFE53
 15420 2021 0400     		.2byte	0x4
 15421 2023 F3       		.byte	0xf3
 15422 2024 01       		.uleb128 0x1
 15423 2025 50       		.byte	0x50
 15424 2026 9F       		.byte	0x9f
 15425 2027 00000000 		.4byte	0
 15426 202b 00000000 		.4byte	0
 15427              	.LLST231:
 15428 202f 00000000 		.4byte	.LVL348
 15429 2033 24000000 		.4byte	.LVL354
 15430 2037 0100     		.2byte	0x1
 15431 2039 51       		.byte	0x51
 15432 203a 24000000 		.4byte	.LVL354
 15433 203e 2E000000 		.4byte	.LFE53
 15434 2042 0400     		.2byte	0x4
 15435 2044 F3       		.byte	0xf3
 15436 2045 01       		.uleb128 0x1
 15437 2046 51       		.byte	0x51
 15438 2047 9F       		.byte	0x9f
 15439 2048 00000000 		.4byte	0
 15440 204c 00000000 		.4byte	0
 15441              	.LLST232:
 15442 2050 00000000 		.4byte	.LVL348
 15443 2054 26000000 		.4byte	.LVL355
 15444 2058 0100     		.2byte	0x1
 15445 205a 52       		.byte	0x52
 15446 205b 26000000 		.4byte	.LVL355
 15447 205f 2E000000 		.4byte	.LFE53
ARM GAS  /tmp/ccoI4Tqz.s 			page 272


 15448 2063 0400     		.2byte	0x4
 15449 2065 F3       		.byte	0xf3
 15450 2066 01       		.uleb128 0x1
 15451 2067 52       		.byte	0x52
 15452 2068 9F       		.byte	0x9f
 15453 2069 00000000 		.4byte	0
 15454 206d 00000000 		.4byte	0
 15455              	.LLST233:
 15456 2071 00000000 		.4byte	.LVL348
 15457 2075 0A000000 		.4byte	.LVL350
 15458 2079 0100     		.2byte	0x1
 15459 207b 53       		.byte	0x53
 15460 207c 0A000000 		.4byte	.LVL350
 15461 2080 2E000000 		.4byte	.LFE53
 15462 2084 0400     		.2byte	0x4
 15463 2086 F3       		.byte	0xf3
 15464 2087 01       		.uleb128 0x1
 15465 2088 53       		.byte	0x53
 15466 2089 9F       		.byte	0x9f
 15467 208a 00000000 		.4byte	0
 15468 208e 00000000 		.4byte	0
 15469              	.LLST234:
 15470 2092 0A000000 		.4byte	.LVL350
 15471 2096 2D000000 		.4byte	.LVL357-1
 15472 209a 0100     		.2byte	0x1
 15473 209c 53       		.byte	0x53
 15474 209d 00000000 		.4byte	0
 15475 20a1 00000000 		.4byte	0
 15476              	.LLST235:
 15477 20a5 1C000000 		.4byte	.LVL353
 15478 20a9 2D000000 		.4byte	.LVL357-1
 15479 20ad 0100     		.2byte	0x1
 15480 20af 53       		.byte	0x53
 15481 20b0 00000000 		.4byte	0
 15482 20b4 00000000 		.4byte	0
 15483              	.LLST236:
 15484 20b8 1C000000 		.4byte	.LVL353
 15485 20bc 2A000000 		.4byte	.LVL356
 15486 20c0 0100     		.2byte	0x1
 15487 20c2 54       		.byte	0x54
 15488 20c3 2A000000 		.4byte	.LVL356
 15489 20c7 2E000000 		.4byte	.LFE53
 15490 20cb 0400     		.2byte	0x4
 15491 20cd F3       		.byte	0xf3
 15492 20ce 01       		.uleb128 0x1
 15493 20cf 50       		.byte	0x50
 15494 20d0 9F       		.byte	0x9f
 15495 20d1 00000000 		.4byte	0
 15496 20d5 00000000 		.4byte	0
 15497              	.LLST237:
 15498 20d9 00000000 		.4byte	.LVL358
 15499 20dd 0A000000 		.4byte	.LVL361
 15500 20e1 0100     		.2byte	0x1
 15501 20e3 50       		.byte	0x50
 15502 20e4 0A000000 		.4byte	.LVL361
 15503 20e8 28000000 		.4byte	.LVL364
 15504 20ec 0100     		.2byte	0x1
ARM GAS  /tmp/ccoI4Tqz.s 			page 273


 15505 20ee 54       		.byte	0x54
 15506 20ef 28000000 		.4byte	.LVL364
 15507 20f3 2C000000 		.4byte	.LFE54
 15508 20f7 0400     		.2byte	0x4
 15509 20f9 F3       		.byte	0xf3
 15510 20fa 01       		.uleb128 0x1
 15511 20fb 50       		.byte	0x50
 15512 20fc 9F       		.byte	0x9f
 15513 20fd 00000000 		.4byte	0
 15514 2101 00000000 		.4byte	0
 15515              	.LLST238:
 15516 2105 00000000 		.4byte	.LVL358
 15517 2109 0E000000 		.4byte	.LVL362
 15518 210d 0100     		.2byte	0x1
 15519 210f 51       		.byte	0x51
 15520 2110 0E000000 		.4byte	.LVL362
 15521 2114 2C000000 		.4byte	.LFE54
 15522 2118 0400     		.2byte	0x4
 15523 211a F3       		.byte	0xf3
 15524 211b 01       		.uleb128 0x1
 15525 211c 51       		.byte	0x51
 15526 211d 9F       		.byte	0x9f
 15527 211e 00000000 		.4byte	0
 15528 2122 00000000 		.4byte	0
 15529              	.LLST239:
 15530 2126 06000000 		.4byte	.LVL360
 15531 212a 28000000 		.4byte	.LVL364
 15532 212e 0D00     		.2byte	0xd
 15533 2130 75       		.byte	0x75
 15534 2131 00       		.sleb128 0
 15535 2132 0A       		.byte	0xa
 15536 2133 007F     		.2byte	0x7f00
 15537 2135 1A       		.byte	0x1a
 15538 2136 0A       		.byte	0xa
 15539 2137 FFFF     		.2byte	0xffff
 15540 2139 1A       		.byte	0x1a
 15541 213a 38       		.byte	0x38
 15542 213b 26       		.byte	0x26
 15543 213c 9F       		.byte	0x9f
 15544 213d 00000000 		.4byte	0
 15545 2141 00000000 		.4byte	0
 15546              	.LLST240:
 15547 2145 04000000 		.4byte	.LVL359
 15548 2149 0A000000 		.4byte	.LVL361
 15549 214d 0100     		.2byte	0x1
 15550 214f 50       		.byte	0x50
 15551 2150 0A000000 		.4byte	.LVL361
 15552 2154 28000000 		.4byte	.LVL364
 15553 2158 0100     		.2byte	0x1
 15554 215a 54       		.byte	0x54
 15555 215b 28000000 		.4byte	.LVL364
 15556 215f 2C000000 		.4byte	.LFE54
 15557 2163 0400     		.2byte	0x4
 15558 2165 F3       		.byte	0xf3
 15559 2166 01       		.uleb128 0x1
 15560 2167 50       		.byte	0x50
 15561 2168 9F       		.byte	0x9f
ARM GAS  /tmp/ccoI4Tqz.s 			page 274


 15562 2169 00000000 		.4byte	0
 15563 216d 00000000 		.4byte	0
 15564              	.LLST241:
 15565 2171 18000000 		.4byte	.LVL363
 15566 2175 28000000 		.4byte	.LVL364
 15567 2179 0100     		.2byte	0x1
 15568 217b 55       		.byte	0x55
 15569 217c 28000000 		.4byte	.LVL364
 15570 2180 2B000000 		.4byte	.LVL365-1
 15571 2184 0100     		.2byte	0x1
 15572 2186 53       		.byte	0x53
 15573 2187 00000000 		.4byte	0
 15574 218b 00000000 		.4byte	0
 15575              	.LLST242:
 15576 218f 18000000 		.4byte	.LVL363
 15577 2193 28000000 		.4byte	.LVL364
 15578 2197 0100     		.2byte	0x1
 15579 2199 54       		.byte	0x54
 15580 219a 28000000 		.4byte	.LVL364
 15581 219e 2C000000 		.4byte	.LFE54
 15582 21a2 0400     		.2byte	0x4
 15583 21a4 F3       		.byte	0xf3
 15584 21a5 01       		.uleb128 0x1
 15585 21a6 50       		.byte	0x50
 15586 21a7 9F       		.byte	0x9f
 15587 21a8 00000000 		.4byte	0
 15588 21ac 00000000 		.4byte	0
 15589              	.LLST243:
 15590 21b0 00000000 		.4byte	.LVL366
 15591 21b4 0E000000 		.4byte	.LVL368
 15592 21b8 0100     		.2byte	0x1
 15593 21ba 50       		.byte	0x50
 15594 21bb 0E000000 		.4byte	.LVL368
 15595 21bf 11000000 		.4byte	.LVL369-1
 15596 21c3 0100     		.2byte	0x1
 15597 21c5 53       		.byte	0x53
 15598 21c6 11000000 		.4byte	.LVL369-1
 15599 21ca 20000000 		.4byte	.LFE55
 15600 21ce 0400     		.2byte	0x4
 15601 21d0 F3       		.byte	0xf3
 15602 21d1 01       		.uleb128 0x1
 15603 21d2 50       		.byte	0x50
 15604 21d3 9F       		.byte	0x9f
 15605 21d4 00000000 		.4byte	0
 15606 21d8 00000000 		.4byte	0
 15607              	.LLST244:
 15608 21dc 14000000 		.4byte	.LVL370
 15609 21e0 18000000 		.4byte	.LVL371
 15610 21e4 0100     		.2byte	0x1
 15611 21e6 50       		.byte	0x50
 15612 21e7 00000000 		.4byte	0
 15613 21eb 00000000 		.4byte	0
 15614              	.LLST245:
 15615 21ef 04000000 		.4byte	.LVL367
 15616 21f3 0E000000 		.4byte	.LVL368
 15617 21f7 0100     		.2byte	0x1
 15618 21f9 50       		.byte	0x50
ARM GAS  /tmp/ccoI4Tqz.s 			page 275


 15619 21fa 0E000000 		.4byte	.LVL368
 15620 21fe 11000000 		.4byte	.LVL369-1
 15621 2202 0100     		.2byte	0x1
 15622 2204 53       		.byte	0x53
 15623 2205 11000000 		.4byte	.LVL369-1
 15624 2209 20000000 		.4byte	.LFE55
 15625 220d 0400     		.2byte	0x4
 15626 220f F3       		.byte	0xf3
 15627 2210 01       		.uleb128 0x1
 15628 2211 50       		.byte	0x50
 15629 2212 9F       		.byte	0x9f
 15630 2213 00000000 		.4byte	0
 15631 2217 00000000 		.4byte	0
 15632              	.LLST246:
 15633 221b 00000000 		.4byte	.LVL372
 15634 221f 0A000000 		.4byte	.LVL374
 15635 2223 0100     		.2byte	0x1
 15636 2225 50       		.byte	0x50
 15637 2226 0A000000 		.4byte	.LVL374
 15638 222a 28000000 		.4byte	.LVL378
 15639 222e 0100     		.2byte	0x1
 15640 2230 54       		.byte	0x54
 15641 2231 28000000 		.4byte	.LVL378
 15642 2235 2C000000 		.4byte	.LVL379
 15643 2239 0400     		.2byte	0x4
 15644 223b F3       		.byte	0xf3
 15645 223c 01       		.uleb128 0x1
 15646 223d 50       		.byte	0x50
 15647 223e 9F       		.byte	0x9f
 15648 223f 2C000000 		.4byte	.LVL379
 15649 2243 34000000 		.4byte	.LFE56
 15650 2247 0100     		.2byte	0x1
 15651 2249 54       		.byte	0x54
 15652 224a 00000000 		.4byte	0
 15653 224e 00000000 		.4byte	0
 15654              	.LLST247:
 15655 2252 00000000 		.4byte	.LVL372
 15656 2256 0E000000 		.4byte	.LVL375
 15657 225a 0100     		.2byte	0x1
 15658 225c 51       		.byte	0x51
 15659 225d 0E000000 		.4byte	.LVL375
 15660 2261 34000000 		.4byte	.LFE56
 15661 2265 0400     		.2byte	0x4
 15662 2267 F3       		.byte	0xf3
 15663 2268 01       		.uleb128 0x1
 15664 2269 51       		.byte	0x51
 15665 226a 9F       		.byte	0x9f
 15666 226b 00000000 		.4byte	0
 15667 226f 00000000 		.4byte	0
 15668              	.LLST248:
 15669 2273 14000000 		.4byte	.LVL376
 15670 2277 1A000000 		.4byte	.LVL377
 15671 227b 0100     		.2byte	0x1
 15672 227d 50       		.byte	0x50
 15673 227e 1A000000 		.4byte	.LVL377
 15674 2282 2B000000 		.4byte	.LVL379-1
 15675 2286 0100     		.2byte	0x1
ARM GAS  /tmp/ccoI4Tqz.s 			page 276


 15676 2288 53       		.byte	0x53
 15677 2289 2C000000 		.4byte	.LVL379
 15678 228d 32000000 		.4byte	.LVL380
 15679 2291 0100     		.2byte	0x1
 15680 2293 50       		.byte	0x50
 15681 2294 32000000 		.4byte	.LVL380
 15682 2298 34000000 		.4byte	.LFE56
 15683 229c 0100     		.2byte	0x1
 15684 229e 53       		.byte	0x53
 15685 229f 00000000 		.4byte	0
 15686 22a3 00000000 		.4byte	0
 15687              	.LLST249:
 15688 22a7 04000000 		.4byte	.LVL373
 15689 22ab 0A000000 		.4byte	.LVL374
 15690 22af 0100     		.2byte	0x1
 15691 22b1 50       		.byte	0x50
 15692 22b2 0A000000 		.4byte	.LVL374
 15693 22b6 28000000 		.4byte	.LVL378
 15694 22ba 0100     		.2byte	0x1
 15695 22bc 54       		.byte	0x54
 15696 22bd 28000000 		.4byte	.LVL378
 15697 22c1 2C000000 		.4byte	.LVL379
 15698 22c5 0400     		.2byte	0x4
 15699 22c7 F3       		.byte	0xf3
 15700 22c8 01       		.uleb128 0x1
 15701 22c9 50       		.byte	0x50
 15702 22ca 9F       		.byte	0x9f
 15703 22cb 2C000000 		.4byte	.LVL379
 15704 22cf 34000000 		.4byte	.LFE56
 15705 22d3 0100     		.2byte	0x1
 15706 22d5 54       		.byte	0x54
 15707 22d6 00000000 		.4byte	0
 15708 22da 00000000 		.4byte	0
 15709              	.LLST250:
 15710 22de 1A000000 		.4byte	.LVL377
 15711 22e2 2B000000 		.4byte	.LVL379-1
 15712 22e6 0100     		.2byte	0x1
 15713 22e8 53       		.byte	0x53
 15714 22e9 00000000 		.4byte	0
 15715 22ed 00000000 		.4byte	0
 15716              	.LLST251:
 15717 22f1 1A000000 		.4byte	.LVL377
 15718 22f5 2C000000 		.4byte	.LVL379
 15719 22f9 0300     		.2byte	0x3
 15720 22fb 08       		.byte	0x8
 15721 22fc 23       		.byte	0x23
 15722 22fd 9F       		.byte	0x9f
 15723 22fe 00000000 		.4byte	0
 15724 2302 00000000 		.4byte	0
 15725              	.LLST252:
 15726 2306 1A000000 		.4byte	.LVL377
 15727 230a 28000000 		.4byte	.LVL378
 15728 230e 0100     		.2byte	0x1
 15729 2310 54       		.byte	0x54
 15730 2311 28000000 		.4byte	.LVL378
 15731 2315 2C000000 		.4byte	.LVL379
 15732 2319 0400     		.2byte	0x4
ARM GAS  /tmp/ccoI4Tqz.s 			page 277


 15733 231b F3       		.byte	0xf3
 15734 231c 01       		.uleb128 0x1
 15735 231d 50       		.byte	0x50
 15736 231e 9F       		.byte	0x9f
 15737 231f 00000000 		.4byte	0
 15738 2323 00000000 		.4byte	0
 15739              	.LLST253:
 15740 2327 00000000 		.4byte	.LVL381
 15741 232b 0A000000 		.4byte	.LVL383
 15742 232f 0100     		.2byte	0x1
 15743 2331 50       		.byte	0x50
 15744 2332 0A000000 		.4byte	.LVL383
 15745 2336 28000000 		.4byte	.LVL387
 15746 233a 0100     		.2byte	0x1
 15747 233c 54       		.byte	0x54
 15748 233d 28000000 		.4byte	.LVL387
 15749 2341 2C000000 		.4byte	.LVL388
 15750 2345 0400     		.2byte	0x4
 15751 2347 F3       		.byte	0xf3
 15752 2348 01       		.uleb128 0x1
 15753 2349 50       		.byte	0x50
 15754 234a 9F       		.byte	0x9f
 15755 234b 2C000000 		.4byte	.LVL388
 15756 234f 34000000 		.4byte	.LFE57
 15757 2353 0100     		.2byte	0x1
 15758 2355 54       		.byte	0x54
 15759 2356 00000000 		.4byte	0
 15760 235a 00000000 		.4byte	0
 15761              	.LLST254:
 15762 235e 00000000 		.4byte	.LVL381
 15763 2362 0E000000 		.4byte	.LVL384
 15764 2366 0100     		.2byte	0x1
 15765 2368 51       		.byte	0x51
 15766 2369 0E000000 		.4byte	.LVL384
 15767 236d 34000000 		.4byte	.LFE57
 15768 2371 0400     		.2byte	0x4
 15769 2373 F3       		.byte	0xf3
 15770 2374 01       		.uleb128 0x1
 15771 2375 51       		.byte	0x51
 15772 2376 9F       		.byte	0x9f
 15773 2377 00000000 		.4byte	0
 15774 237b 00000000 		.4byte	0
 15775              	.LLST255:
 15776 237f 14000000 		.4byte	.LVL385
 15777 2383 1A000000 		.4byte	.LVL386
 15778 2387 0100     		.2byte	0x1
 15779 2389 50       		.byte	0x50
 15780 238a 1A000000 		.4byte	.LVL386
 15781 238e 2B000000 		.4byte	.LVL388-1
 15782 2392 0100     		.2byte	0x1
 15783 2394 53       		.byte	0x53
 15784 2395 2C000000 		.4byte	.LVL388
 15785 2399 32000000 		.4byte	.LVL389
 15786 239d 0100     		.2byte	0x1
 15787 239f 50       		.byte	0x50
 15788 23a0 32000000 		.4byte	.LVL389
 15789 23a4 34000000 		.4byte	.LFE57
ARM GAS  /tmp/ccoI4Tqz.s 			page 278


 15790 23a8 0100     		.2byte	0x1
 15791 23aa 53       		.byte	0x53
 15792 23ab 00000000 		.4byte	0
 15793 23af 00000000 		.4byte	0
 15794              	.LLST256:
 15795 23b3 04000000 		.4byte	.LVL382
 15796 23b7 0A000000 		.4byte	.LVL383
 15797 23bb 0100     		.2byte	0x1
 15798 23bd 50       		.byte	0x50
 15799 23be 0A000000 		.4byte	.LVL383
 15800 23c2 28000000 		.4byte	.LVL387
 15801 23c6 0100     		.2byte	0x1
 15802 23c8 54       		.byte	0x54
 15803 23c9 28000000 		.4byte	.LVL387
 15804 23cd 2C000000 		.4byte	.LVL388
 15805 23d1 0400     		.2byte	0x4
 15806 23d3 F3       		.byte	0xf3
 15807 23d4 01       		.uleb128 0x1
 15808 23d5 50       		.byte	0x50
 15809 23d6 9F       		.byte	0x9f
 15810 23d7 2C000000 		.4byte	.LVL388
 15811 23db 34000000 		.4byte	.LFE57
 15812 23df 0100     		.2byte	0x1
 15813 23e1 54       		.byte	0x54
 15814 23e2 00000000 		.4byte	0
 15815 23e6 00000000 		.4byte	0
 15816              	.LLST257:
 15817 23ea 1A000000 		.4byte	.LVL386
 15818 23ee 2B000000 		.4byte	.LVL388-1
 15819 23f2 0100     		.2byte	0x1
 15820 23f4 53       		.byte	0x53
 15821 23f5 00000000 		.4byte	0
 15822 23f9 00000000 		.4byte	0
 15823              	.LLST258:
 15824 23fd 1A000000 		.4byte	.LVL386
 15825 2401 2C000000 		.4byte	.LVL388
 15826 2405 0300     		.2byte	0x3
 15827 2407 08       		.byte	0x8
 15828 2408 23       		.byte	0x23
 15829 2409 9F       		.byte	0x9f
 15830 240a 00000000 		.4byte	0
 15831 240e 00000000 		.4byte	0
 15832              	.LLST259:
 15833 2412 1A000000 		.4byte	.LVL386
 15834 2416 28000000 		.4byte	.LVL387
 15835 241a 0100     		.2byte	0x1
 15836 241c 54       		.byte	0x54
 15837 241d 28000000 		.4byte	.LVL387
 15838 2421 2C000000 		.4byte	.LVL388
 15839 2425 0400     		.2byte	0x4
 15840 2427 F3       		.byte	0xf3
 15841 2428 01       		.uleb128 0x1
 15842 2429 50       		.byte	0x50
 15843 242a 9F       		.byte	0x9f
 15844 242b 00000000 		.4byte	0
 15845 242f 00000000 		.4byte	0
 15846              	.LLST260:
ARM GAS  /tmp/ccoI4Tqz.s 			page 279


 15847 2433 00000000 		.4byte	.LVL390
 15848 2437 1A000000 		.4byte	.LVL393
 15849 243b 0100     		.2byte	0x1
 15850 243d 50       		.byte	0x50
 15851 243e 1A000000 		.4byte	.LVL393
 15852 2442 1C000000 		.4byte	.LVL394
 15853 2446 0100     		.2byte	0x1
 15854 2448 52       		.byte	0x52
 15855 2449 1C000000 		.4byte	.LVL394
 15856 244d 20000000 		.4byte	.LFE58
 15857 2451 0400     		.2byte	0x4
 15858 2453 F3       		.byte	0xf3
 15859 2454 01       		.uleb128 0x1
 15860 2455 50       		.byte	0x50
 15861 2456 9F       		.byte	0x9f
 15862 2457 00000000 		.4byte	0
 15863 245b 00000000 		.4byte	0
 15864              	.LLST261:
 15865 245f 00000000 		.4byte	.LVL390
 15866 2463 02000000 		.4byte	.LVL391
 15867 2467 0100     		.2byte	0x1
 15868 2469 51       		.byte	0x51
 15869 246a 02000000 		.4byte	.LVL391
 15870 246e 20000000 		.4byte	.LFE58
 15871 2472 0400     		.2byte	0x4
 15872 2474 F3       		.byte	0xf3
 15873 2475 01       		.uleb128 0x1
 15874 2476 51       		.byte	0x51
 15875 2477 9F       		.byte	0x9f
 15876 2478 00000000 		.4byte	0
 15877 247c 00000000 		.4byte	0
 15878              	.LLST262:
 15879 2480 00000000 		.4byte	.LVL390
 15880 2484 10000000 		.4byte	.LVL392
 15881 2488 0100     		.2byte	0x1
 15882 248a 52       		.byte	0x52
 15883 248b 10000000 		.4byte	.LVL392
 15884 248f 20000000 		.4byte	.LFE58
 15885 2493 0400     		.2byte	0x4
 15886 2495 F3       		.byte	0xf3
 15887 2496 01       		.uleb128 0x1
 15888 2497 52       		.byte	0x52
 15889 2498 9F       		.byte	0x9f
 15890 2499 00000000 		.4byte	0
 15891 249d 00000000 		.4byte	0
 15892              	.LLST263:
 15893 24a1 00000000 		.4byte	.LVL390
 15894 24a5 10000000 		.4byte	.LVL392
 15895 24a9 1300     		.2byte	0x13
 15896 24ab 72       		.byte	0x72
 15897 24ac 00       		.sleb128 0
 15898 24ad 12       		.byte	0x12
 15899 24ae 08       		.byte	0x8
 15900 24af FF       		.byte	0xff
 15901 24b0 1A       		.byte	0x1a
 15902 24b1 4F       		.byte	0x4f
 15903 24b2 16       		.byte	0x16
ARM GAS  /tmp/ccoI4Tqz.s 			page 280


 15904 24b3 14       		.byte	0x14
 15905 24b4 08       		.byte	0x8
 15906 24b5 FF       		.byte	0xff
 15907 24b6 1A       		.byte	0x1a
 15908 24b7 2D       		.byte	0x2d
 15909 24b8 28       		.byte	0x28
 15910 24b9 0100     		.2byte	0x1
 15911 24bb 16       		.byte	0x16
 15912 24bc 13       		.byte	0x13
 15913 24bd 9F       		.byte	0x9f
 15914 24be 10000000 		.4byte	.LVL392
 15915 24c2 20000000 		.4byte	.LFE58
 15916 24c6 1400     		.2byte	0x14
 15917 24c8 F3       		.byte	0xf3
 15918 24c9 01       		.uleb128 0x1
 15919 24ca 52       		.byte	0x52
 15920 24cb 12       		.byte	0x12
 15921 24cc 08       		.byte	0x8
 15922 24cd FF       		.byte	0xff
 15923 24ce 1A       		.byte	0x1a
 15924 24cf 4F       		.byte	0x4f
 15925 24d0 16       		.byte	0x16
 15926 24d1 14       		.byte	0x14
 15927 24d2 08       		.byte	0x8
 15928 24d3 FF       		.byte	0xff
 15929 24d4 1A       		.byte	0x1a
 15930 24d5 2D       		.byte	0x2d
 15931 24d6 28       		.byte	0x28
 15932 24d7 0100     		.2byte	0x1
 15933 24d9 16       		.byte	0x16
 15934 24da 13       		.byte	0x13
 15935 24db 9F       		.byte	0x9f
 15936 24dc 00000000 		.4byte	0
 15937 24e0 00000000 		.4byte	0
 15938              	.LLST264:
 15939 24e4 10000000 		.4byte	.LVL392
 15940 24e8 1A000000 		.4byte	.LVL393
 15941 24ec 0100     		.2byte	0x1
 15942 24ee 50       		.byte	0x50
 15943 24ef 1A000000 		.4byte	.LVL393
 15944 24f3 1C000000 		.4byte	.LVL394
 15945 24f7 0100     		.2byte	0x1
 15946 24f9 52       		.byte	0x52
 15947 24fa 1C000000 		.4byte	.LVL394
 15948 24fe 20000000 		.4byte	.LFE58
 15949 2502 0400     		.2byte	0x4
 15950 2504 F3       		.byte	0xf3
 15951 2505 01       		.uleb128 0x1
 15952 2506 50       		.byte	0x50
 15953 2507 9F       		.byte	0x9f
 15954 2508 00000000 		.4byte	0
 15955 250c 00000000 		.4byte	0
 15956              	.LLST265:
 15957 2510 00000000 		.4byte	.LVL396
 15958 2514 0F000000 		.4byte	.LVL398-1
 15959 2518 0100     		.2byte	0x1
 15960 251a 50       		.byte	0x50
ARM GAS  /tmp/ccoI4Tqz.s 			page 281


 15961 251b 0F000000 		.4byte	.LVL398-1
 15962 251f 38010000 		.4byte	.LVL425
 15963 2523 0100     		.2byte	0x1
 15964 2525 54       		.byte	0x54
 15965 2526 38010000 		.4byte	.LVL425
 15966 252a 3C010000 		.4byte	.LFE17
 15967 252e 0400     		.2byte	0x4
 15968 2530 F3       		.byte	0xf3
 15969 2531 01       		.uleb128 0x1
 15970 2532 50       		.byte	0x50
 15971 2533 9F       		.byte	0x9f
 15972 2534 00000000 		.4byte	0
 15973 2538 00000000 		.4byte	0
 15974              	.LLST266:
 15975 253c 00000000 		.4byte	.LVL396
 15976 2540 0C000000 		.4byte	.LVL397
 15977 2544 0100     		.2byte	0x1
 15978 2546 51       		.byte	0x51
 15979 2547 0C000000 		.4byte	.LVL397
 15980 254b 3C010000 		.4byte	.LFE17
 15981 254f 0400     		.2byte	0x4
 15982 2551 F3       		.byte	0xf3
 15983 2552 01       		.uleb128 0x1
 15984 2553 51       		.byte	0x51
 15985 2554 9F       		.byte	0x9f
 15986 2555 00000000 		.4byte	0
 15987 2559 00000000 		.4byte	0
 15988              	.LLST267:
 15989 255d 00000000 		.4byte	.LVL396
 15990 2561 2C000000 		.4byte	.LVL401
 15991 2565 0200     		.2byte	0x2
 15992 2567 30       		.byte	0x30
 15993 2568 9F       		.byte	0x9f
 15994 2569 2C000000 		.4byte	.LVL401
 15995 256d 40000000 		.4byte	.LVL403
 15996 2571 0100     		.2byte	0x1
 15997 2573 50       		.byte	0x50
 15998 2574 40000000 		.4byte	.LVL403
 15999 2578 38010000 		.4byte	.LVL425
 16000 257c 0300     		.2byte	0x3
 16001 257e 91       		.byte	0x91
 16002 257f B87F     		.sleb128 -72
 16003 2581 38010000 		.4byte	.LVL425
 16004 2585 3C010000 		.4byte	.LFE17
 16005 2589 0300     		.2byte	0x3
 16006 258b 7D       		.byte	0x7d
 16007 258c B87F     		.sleb128 -72
 16008 258e 00000000 		.4byte	0
 16009 2592 00000000 		.4byte	0
 16010              	.LLST268:
 16011 2596 30000000 		.4byte	.LVL402
 16012 259a 40000000 		.4byte	.LVL403
 16013 259e 0200     		.2byte	0x2
 16014 25a0 30       		.byte	0x30
 16015 25a1 9F       		.byte	0x9f
 16016 25a2 40000000 		.4byte	.LVL403
 16017 25a6 B8000000 		.4byte	.LVL410
ARM GAS  /tmp/ccoI4Tqz.s 			page 282


 16018 25aa 0100     		.2byte	0x1
 16019 25ac 5B       		.byte	0x5b
 16020 25ad BE000000 		.4byte	.LVL411
 16021 25b1 C6000000 		.4byte	.LVL412
 16022 25b5 0200     		.2byte	0x2
 16023 25b7 30       		.byte	0x30
 16024 25b8 9F       		.byte	0x9f
 16025 25b9 C6000000 		.4byte	.LVL412
 16026 25bd 38010000 		.4byte	.LVL425
 16027 25c1 0100     		.2byte	0x1
 16028 25c3 5A       		.byte	0x5a
 16029 25c4 00000000 		.4byte	0
 16030 25c8 00000000 		.4byte	0
 16031              	.LLST269:
 16032 25cc 1A000000 		.4byte	.LVL399
 16033 25d0 38010000 		.4byte	.LVL425
 16034 25d4 0100     		.2byte	0x1
 16035 25d6 54       		.byte	0x54
 16036 25d7 38010000 		.4byte	.LVL425
 16037 25db 3C010000 		.4byte	.LFE17
 16038 25df 0400     		.2byte	0x4
 16039 25e1 F3       		.byte	0xf3
 16040 25e2 01       		.uleb128 0x1
 16041 25e3 50       		.byte	0x50
 16042 25e4 9F       		.byte	0x9f
 16043 25e5 00000000 		.4byte	0
 16044 25e9 00000000 		.4byte	0
 16045              	.LLST270:
 16046 25ed D0000000 		.4byte	.LVL413
 16047 25f1 D2000000 		.4byte	.LVL414
 16048 25f5 0100     		.2byte	0x1
 16049 25f7 50       		.byte	0x50
 16050 25f8 D2000000 		.4byte	.LVL414
 16051 25fc D5000000 		.4byte	.LVL415-1
 16052 2600 0200     		.2byte	0x2
 16053 2602 75       		.byte	0x75
 16054 2603 00       		.sleb128 0
 16055 2604 00000000 		.4byte	0
 16056 2608 00000000 		.4byte	0
 16057              	.LLST271:
 16058 260c EA000000 		.4byte	.LVL417
 16059 2610 14010000 		.4byte	.LVL421
 16060 2614 0100     		.2byte	0x1
 16061 2616 56       		.byte	0x56
 16062 2617 16010000 		.4byte	.LVL422
 16063 261b 38010000 		.4byte	.LVL425
 16064 261f 0100     		.2byte	0x1
 16065 2621 56       		.byte	0x56
 16066 2622 00000000 		.4byte	0
 16067 2626 00000000 		.4byte	0
 16068              	.LLST272:
 16069 262a 00000000 		.4byte	.LVL426
 16070 262e 0E000000 		.4byte	.LVL428
 16071 2632 0100     		.2byte	0x1
 16072 2634 50       		.byte	0x50
 16073 2635 0E000000 		.4byte	.LVL428
 16074 2639 11000000 		.4byte	.LVL429-1
ARM GAS  /tmp/ccoI4Tqz.s 			page 283


 16075 263d 0100     		.2byte	0x1
 16076 263f 53       		.byte	0x53
 16077 2640 11000000 		.4byte	.LVL429-1
 16078 2644 18000000 		.4byte	.LFE59
 16079 2648 0400     		.2byte	0x4
 16080 264a F3       		.byte	0xf3
 16081 264b 01       		.uleb128 0x1
 16082 264c 50       		.byte	0x50
 16083 264d 9F       		.byte	0x9f
 16084 264e 00000000 		.4byte	0
 16085 2652 00000000 		.4byte	0
 16086              	.LLST273:
 16087 2656 04000000 		.4byte	.LVL427
 16088 265a 0E000000 		.4byte	.LVL428
 16089 265e 0100     		.2byte	0x1
 16090 2660 50       		.byte	0x50
 16091 2661 0E000000 		.4byte	.LVL428
 16092 2665 11000000 		.4byte	.LVL429-1
 16093 2669 0100     		.2byte	0x1
 16094 266b 53       		.byte	0x53
 16095 266c 11000000 		.4byte	.LVL429-1
 16096 2670 18000000 		.4byte	.LFE59
 16097 2674 0400     		.2byte	0x4
 16098 2676 F3       		.byte	0xf3
 16099 2677 01       		.uleb128 0x1
 16100 2678 50       		.byte	0x50
 16101 2679 9F       		.byte	0x9f
 16102 267a 00000000 		.4byte	0
 16103 267e 00000000 		.4byte	0
 16104              	.LLST274:
 16105 2682 00000000 		.4byte	.LVL431
 16106 2686 13000000 		.4byte	.LVL432-1
 16107 268a 0100     		.2byte	0x1
 16108 268c 50       		.byte	0x50
 16109 268d 13000000 		.4byte	.LVL432-1
 16110 2691 80000000 		.4byte	.LFE14
 16111 2695 0100     		.2byte	0x1
 16112 2697 54       		.byte	0x54
 16113 2698 00000000 		.4byte	0
 16114 269c 00000000 		.4byte	0
 16115              	.LLST275:
 16116 26a0 4E000000 		.4byte	.LVL440
 16117 26a4 62000000 		.4byte	.LVL443
 16118 26a8 0100     		.2byte	0x1
 16119 26aa 55       		.byte	0x55
 16120 26ab 00000000 		.4byte	0
 16121 26af 00000000 		.4byte	0
 16122              	.LLST276:
 16123 26b3 58000000 		.4byte	.LVL441
 16124 26b7 60000000 		.4byte	.LVL442
 16125 26bb 0100     		.2byte	0x1
 16126 26bd 50       		.byte	0x50
 16127 26be 00000000 		.4byte	0
 16128 26c2 00000000 		.4byte	0
 16129              	.LLST277:
 16130 26c6 58000000 		.4byte	.LVL441
 16131 26ca 60000000 		.4byte	.LVL442
ARM GAS  /tmp/ccoI4Tqz.s 			page 284


 16132 26ce 0E00     		.2byte	0xe
 16133 26d0 70       		.byte	0x70
 16134 26d1 00       		.sleb128 0
 16135 26d2 08       		.byte	0x8
 16136 26d3 FF       		.byte	0xff
 16137 26d4 1A       		.byte	0x1a
 16138 26d5 38       		.byte	0x38
 16139 26d6 24       		.byte	0x24
 16140 26d7 75       		.byte	0x75
 16141 26d8 00       		.sleb128 0
 16142 26d9 08       		.byte	0x8
 16143 26da FF       		.byte	0xff
 16144 26db 1A       		.byte	0x1a
 16145 26dc 21       		.byte	0x21
 16146 26dd 9F       		.byte	0x9f
 16147 26de 00000000 		.4byte	0
 16148 26e2 00000000 		.4byte	0
 16149              	.LLST278:
 16150 26e6 00000000 		.4byte	.LVL448
 16151 26ea 0A000000 		.4byte	.LVL449
 16152 26ee 0100     		.2byte	0x1
 16153 26f0 50       		.byte	0x50
 16154 26f1 0A000000 		.4byte	.LVL449
 16155 26f5 14000000 		.4byte	.LVL452
 16156 26f9 0100     		.2byte	0x1
 16157 26fb 54       		.byte	0x54
 16158 26fc 14000000 		.4byte	.LVL452
 16159 2700 18000000 		.4byte	.LFE61
 16160 2704 0400     		.2byte	0x4
 16161 2706 F3       		.byte	0xf3
 16162 2707 01       		.uleb128 0x1
 16163 2708 50       		.byte	0x50
 16164 2709 9F       		.byte	0x9f
 16165 270a 00000000 		.4byte	0
 16166 270e 00000000 		.4byte	0
 16167              	.LLST279:
 16168 2712 00000000 		.4byte	.LVL448
 16169 2716 10000000 		.4byte	.LVL451
 16170 271a 0100     		.2byte	0x1
 16171 271c 51       		.byte	0x51
 16172 271d 10000000 		.4byte	.LVL451
 16173 2721 18000000 		.4byte	.LFE61
 16174 2725 0400     		.2byte	0x4
 16175 2727 F3       		.byte	0xf3
 16176 2728 01       		.uleb128 0x1
 16177 2729 51       		.byte	0x51
 16178 272a 9F       		.byte	0x9f
 16179 272b 00000000 		.4byte	0
 16180 272f 00000000 		.4byte	0
 16181              	.LLST280:
 16182 2733 00000000 		.4byte	.LVL448
 16183 2737 0C000000 		.4byte	.LVL450
 16184 273b 0100     		.2byte	0x1
 16185 273d 52       		.byte	0x52
 16186 273e 0C000000 		.4byte	.LVL450
 16187 2742 18000000 		.4byte	.LFE61
 16188 2746 0400     		.2byte	0x4
ARM GAS  /tmp/ccoI4Tqz.s 			page 285


 16189 2748 F3       		.byte	0xf3
 16190 2749 01       		.uleb128 0x1
 16191 274a 52       		.byte	0x52
 16192 274b 9F       		.byte	0x9f
 16193 274c 00000000 		.4byte	0
 16194 2750 00000000 		.4byte	0
 16195              	.LLST281:
 16196 2754 00000000 		.4byte	.LVL454
 16197 2758 0A000000 		.4byte	.LVL455
 16198 275c 0100     		.2byte	0x1
 16199 275e 50       		.byte	0x50
 16200 275f 0A000000 		.4byte	.LVL455
 16201 2763 14000000 		.4byte	.LVL458
 16202 2767 0100     		.2byte	0x1
 16203 2769 54       		.byte	0x54
 16204 276a 14000000 		.4byte	.LVL458
 16205 276e 18000000 		.4byte	.LFE62
 16206 2772 0400     		.2byte	0x4
 16207 2774 F3       		.byte	0xf3
 16208 2775 01       		.uleb128 0x1
 16209 2776 50       		.byte	0x50
 16210 2777 9F       		.byte	0x9f
 16211 2778 00000000 		.4byte	0
 16212 277c 00000000 		.4byte	0
 16213              	.LLST282:
 16214 2780 00000000 		.4byte	.LVL454
 16215 2784 10000000 		.4byte	.LVL457
 16216 2788 0100     		.2byte	0x1
 16217 278a 51       		.byte	0x51
 16218 278b 10000000 		.4byte	.LVL457
 16219 278f 18000000 		.4byte	.LFE62
 16220 2793 0400     		.2byte	0x4
 16221 2795 F3       		.byte	0xf3
 16222 2796 01       		.uleb128 0x1
 16223 2797 51       		.byte	0x51
 16224 2798 9F       		.byte	0x9f
 16225 2799 00000000 		.4byte	0
 16226 279d 00000000 		.4byte	0
 16227              	.LLST283:
 16228 27a1 00000000 		.4byte	.LVL454
 16229 27a5 0C000000 		.4byte	.LVL456
 16230 27a9 0100     		.2byte	0x1
 16231 27ab 52       		.byte	0x52
 16232 27ac 0C000000 		.4byte	.LVL456
 16233 27b0 18000000 		.4byte	.LFE62
 16234 27b4 0400     		.2byte	0x4
 16235 27b6 F3       		.byte	0xf3
 16236 27b7 01       		.uleb128 0x1
 16237 27b8 52       		.byte	0x52
 16238 27b9 9F       		.byte	0x9f
 16239 27ba 00000000 		.4byte	0
 16240 27be 00000000 		.4byte	0
 16241              	.LLST284:
 16242 27c2 00000000 		.4byte	.LVL460
 16243 27c6 08000000 		.4byte	.LVL461
 16244 27ca 0100     		.2byte	0x1
 16245 27cc 50       		.byte	0x50
ARM GAS  /tmp/ccoI4Tqz.s 			page 286


 16246 27cd 08000000 		.4byte	.LVL461
 16247 27d1 0F000000 		.4byte	.LVL463-1
 16248 27d5 0100     		.2byte	0x1
 16249 27d7 53       		.byte	0x53
 16250 27d8 0F000000 		.4byte	.LVL463-1
 16251 27dc 10000000 		.4byte	.LFE63
 16252 27e0 0400     		.2byte	0x4
 16253 27e2 F3       		.byte	0xf3
 16254 27e3 01       		.uleb128 0x1
 16255 27e4 50       		.byte	0x50
 16256 27e5 9F       		.byte	0x9f
 16257 27e6 00000000 		.4byte	0
 16258 27ea 00000000 		.4byte	0
 16259              	.LLST285:
 16260 27ee 00000000 		.4byte	.LVL460
 16261 27f2 0C000000 		.4byte	.LVL462
 16262 27f6 0100     		.2byte	0x1
 16263 27f8 51       		.byte	0x51
 16264 27f9 0C000000 		.4byte	.LVL462
 16265 27fd 10000000 		.4byte	.LFE63
 16266 2801 0400     		.2byte	0x4
 16267 2803 F3       		.byte	0xf3
 16268 2804 01       		.uleb128 0x1
 16269 2805 51       		.byte	0x51
 16270 2806 9F       		.byte	0x9f
 16271 2807 00000000 		.4byte	0
 16272 280b 00000000 		.4byte	0
 16273              	.LLST286:
 16274 280f 00000000 		.4byte	.LVL464
 16275 2813 16000000 		.4byte	.LVL467
 16276 2817 0100     		.2byte	0x1
 16277 2819 50       		.byte	0x50
 16278 281a 16000000 		.4byte	.LVL467
 16279 281e 20000000 		.4byte	.LFE64
 16280 2822 0400     		.2byte	0x4
 16281 2824 F3       		.byte	0xf3
 16282 2825 01       		.uleb128 0x1
 16283 2826 50       		.byte	0x50
 16284 2827 9F       		.byte	0x9f
 16285 2828 00000000 		.4byte	0
 16286 282c 00000000 		.4byte	0
 16287              	.LLST287:
 16288 2830 00000000 		.4byte	.LVL464
 16289 2834 10000000 		.4byte	.LVL465
 16290 2838 0100     		.2byte	0x1
 16291 283a 51       		.byte	0x51
 16292 283b 10000000 		.4byte	.LVL465
 16293 283f 20000000 		.4byte	.LFE64
 16294 2843 0400     		.2byte	0x4
 16295 2845 F3       		.byte	0xf3
 16296 2846 01       		.uleb128 0x1
 16297 2847 51       		.byte	0x51
 16298 2848 9F       		.byte	0x9f
 16299 2849 00000000 		.4byte	0
 16300 284d 00000000 		.4byte	0
 16301              	.LLST288:
 16302 2851 00000000 		.4byte	.LVL464
ARM GAS  /tmp/ccoI4Tqz.s 			page 287


 16303 2855 12000000 		.4byte	.LVL466
 16304 2859 0100     		.2byte	0x1
 16305 285b 52       		.byte	0x52
 16306 285c 12000000 		.4byte	.LVL466
 16307 2860 20000000 		.4byte	.LFE64
 16308 2864 0100     		.2byte	0x1
 16309 2866 54       		.byte	0x54
 16310 2867 00000000 		.4byte	0
 16311 286b 00000000 		.4byte	0
 16312              	.LLST289:
 16313 286f 00000000 		.4byte	.LVL464
 16314 2873 18000000 		.4byte	.LVL468
 16315 2877 0100     		.2byte	0x1
 16316 2879 53       		.byte	0x53
 16317 287a 18000000 		.4byte	.LVL468
 16318 287e 20000000 		.4byte	.LFE64
 16319 2882 0400     		.2byte	0x4
 16320 2884 F3       		.byte	0xf3
 16321 2885 01       		.uleb128 0x1
 16322 2886 53       		.byte	0x53
 16323 2887 9F       		.byte	0x9f
 16324 2888 00000000 		.4byte	0
 16325 288c 00000000 		.4byte	0
 16326              	.LLST290:
 16327 2890 00000000 		.4byte	.LVL470
 16328 2894 08000000 		.4byte	.LVL471
 16329 2898 0100     		.2byte	0x1
 16330 289a 50       		.byte	0x50
 16331 289b 08000000 		.4byte	.LVL471
 16332 289f 0F000000 		.4byte	.LVL473-1
 16333 28a3 0100     		.2byte	0x1
 16334 28a5 53       		.byte	0x53
 16335 28a6 0F000000 		.4byte	.LVL473-1
 16336 28aa 10000000 		.4byte	.LFE65
 16337 28ae 0400     		.2byte	0x4
 16338 28b0 F3       		.byte	0xf3
 16339 28b1 01       		.uleb128 0x1
 16340 28b2 50       		.byte	0x50
 16341 28b3 9F       		.byte	0x9f
 16342 28b4 00000000 		.4byte	0
 16343 28b8 00000000 		.4byte	0
 16344              	.LLST291:
 16345 28bc 00000000 		.4byte	.LVL470
 16346 28c0 0C000000 		.4byte	.LVL472
 16347 28c4 0100     		.2byte	0x1
 16348 28c6 51       		.byte	0x51
 16349 28c7 0C000000 		.4byte	.LVL472
 16350 28cb 10000000 		.4byte	.LFE65
 16351 28cf 0400     		.2byte	0x4
 16352 28d1 F3       		.byte	0xf3
 16353 28d2 01       		.uleb128 0x1
 16354 28d3 51       		.byte	0x51
 16355 28d4 9F       		.byte	0x9f
 16356 28d5 00000000 		.4byte	0
 16357 28d9 00000000 		.4byte	0
 16358              	.LLST292:
 16359 28dd 00000000 		.4byte	.LVL474
ARM GAS  /tmp/ccoI4Tqz.s 			page 288


 16360 28e1 16000000 		.4byte	.LVL477
 16361 28e5 0100     		.2byte	0x1
 16362 28e7 50       		.byte	0x50
 16363 28e8 16000000 		.4byte	.LVL477
 16364 28ec 20000000 		.4byte	.LFE66
 16365 28f0 0400     		.2byte	0x4
 16366 28f2 F3       		.byte	0xf3
 16367 28f3 01       		.uleb128 0x1
 16368 28f4 50       		.byte	0x50
 16369 28f5 9F       		.byte	0x9f
 16370 28f6 00000000 		.4byte	0
 16371 28fa 00000000 		.4byte	0
 16372              	.LLST293:
 16373 28fe 00000000 		.4byte	.LVL474
 16374 2902 10000000 		.4byte	.LVL475
 16375 2906 0100     		.2byte	0x1
 16376 2908 51       		.byte	0x51
 16377 2909 10000000 		.4byte	.LVL475
 16378 290d 20000000 		.4byte	.LFE66
 16379 2911 0400     		.2byte	0x4
 16380 2913 F3       		.byte	0xf3
 16381 2914 01       		.uleb128 0x1
 16382 2915 51       		.byte	0x51
 16383 2916 9F       		.byte	0x9f
 16384 2917 00000000 		.4byte	0
 16385 291b 00000000 		.4byte	0
 16386              	.LLST294:
 16387 291f 00000000 		.4byte	.LVL474
 16388 2923 12000000 		.4byte	.LVL476
 16389 2927 0100     		.2byte	0x1
 16390 2929 52       		.byte	0x52
 16391 292a 12000000 		.4byte	.LVL476
 16392 292e 20000000 		.4byte	.LFE66
 16393 2932 0100     		.2byte	0x1
 16394 2934 54       		.byte	0x54
 16395 2935 00000000 		.4byte	0
 16396 2939 00000000 		.4byte	0
 16397              	.LLST295:
 16398 293d 00000000 		.4byte	.LVL474
 16399 2941 18000000 		.4byte	.LVL478
 16400 2945 0100     		.2byte	0x1
 16401 2947 53       		.byte	0x53
 16402 2948 18000000 		.4byte	.LVL478
 16403 294c 20000000 		.4byte	.LFE66
 16404 2950 0400     		.2byte	0x4
 16405 2952 F3       		.byte	0xf3
 16406 2953 01       		.uleb128 0x1
 16407 2954 53       		.byte	0x53
 16408 2955 9F       		.byte	0x9f
 16409 2956 00000000 		.4byte	0
 16410 295a 00000000 		.4byte	0
 16411              		.section	.debug_aranges,"",%progbits
 16412 0000 DC010000 		.4byte	0x1dc
 16413 0004 0200     		.2byte	0x2
 16414 0006 00000000 		.4byte	.Ldebug_info0
 16415 000a 04       		.byte	0x4
 16416 000b 00       		.byte	0
ARM GAS  /tmp/ccoI4Tqz.s 			page 289


 16417 000c 0000     		.2byte	0
 16418 000e 0000     		.2byte	0
 16419 0010 00000000 		.4byte	.LFB67
 16420 0014 38000000 		.4byte	.LFE67-.LFB67
 16421 0018 00000000 		.4byte	.LFB13
 16422 001c BC000000 		.4byte	.LFE13-.LFB13
 16423 0020 00000000 		.4byte	.LFB8
 16424 0024 16000000 		.4byte	.LFE8-.LFB8
 16425 0028 00000000 		.4byte	.LFB11
 16426 002c 1A000000 		.4byte	.LFE11-.LFB11
 16427 0030 00000000 		.4byte	.LFB15
 16428 0034 D6000000 		.4byte	.LFE15-.LFB15
 16429 0038 00000000 		.4byte	.LFB16
 16430 003c 9A000000 		.4byte	.LFE16-.LFB16
 16431 0040 00000000 		.4byte	.LFB19
 16432 0044 0A000000 		.4byte	.LFE19-.LFB19
 16433 0048 00000000 		.4byte	.LFB20
 16434 004c AC000000 		.4byte	.LFE20-.LFB20
 16435 0050 00000000 		.4byte	.LFB21
 16436 0054 18000000 		.4byte	.LFE21-.LFB21
 16437 0058 00000000 		.4byte	.LFB22
 16438 005c 18000000 		.4byte	.LFE22-.LFB22
 16439 0060 00000000 		.4byte	.LFB23
 16440 0064 18000000 		.4byte	.LFE23-.LFB23
 16441 0068 00000000 		.4byte	.LFB24
 16442 006c 20000000 		.4byte	.LFE24-.LFB24
 16443 0070 00000000 		.4byte	.LFB25
 16444 0074 66000000 		.4byte	.LFE25-.LFB25
 16445 0078 00000000 		.4byte	.LFB26
 16446 007c 48000000 		.4byte	.LFE26-.LFB26
 16447 0080 00000000 		.4byte	.LFB27
 16448 0084 48000000 		.4byte	.LFE27-.LFB27
 16449 0088 00000000 		.4byte	.LFB18
 16450 008c CC000000 		.4byte	.LFE18-.LFB18
 16451 0090 00000000 		.4byte	.LFB28
 16452 0094 36000000 		.4byte	.LFE28-.LFB28
 16453 0098 00000000 		.4byte	.LFB29
 16454 009c 2C000000 		.4byte	.LFE29-.LFB29
 16455 00a0 00000000 		.4byte	.LFB30
 16456 00a4 66000000 		.4byte	.LFE30-.LFB30
 16457 00a8 00000000 		.4byte	.LFB31
 16458 00ac 46000000 		.4byte	.LFE31-.LFB31
 16459 00b0 00000000 		.4byte	.LFB32
 16460 00b4 12000000 		.4byte	.LFE32-.LFB32
 16461 00b8 00000000 		.4byte	.LFB33
 16462 00bc 12000000 		.4byte	.LFE33-.LFB33
 16463 00c0 00000000 		.4byte	.LFB34
 16464 00c4 12000000 		.4byte	.LFE34-.LFB34
 16465 00c8 00000000 		.4byte	.LFB35
 16466 00cc 58000000 		.4byte	.LFE35-.LFB35
 16467 00d0 00000000 		.4byte	.LFB36
 16468 00d4 60000000 		.4byte	.LFE36-.LFB36
 16469 00d8 00000000 		.4byte	.LFB38
 16470 00dc 3A000000 		.4byte	.LFE38-.LFB38
 16471 00e0 00000000 		.4byte	.LFB39
 16472 00e4 3A000000 		.4byte	.LFE39-.LFB39
 16473 00e8 00000000 		.4byte	.LFB40
ARM GAS  /tmp/ccoI4Tqz.s 			page 290


 16474 00ec 38000000 		.4byte	.LFE40-.LFB40
 16475 00f0 00000000 		.4byte	.LFB41
 16476 00f4 16000000 		.4byte	.LFE41-.LFB41
 16477 00f8 00000000 		.4byte	.LFB42
 16478 00fc 16000000 		.4byte	.LFE42-.LFB42
 16479 0100 00000000 		.4byte	.LFB43
 16480 0104 40000000 		.4byte	.LFE43-.LFB43
 16481 0108 00000000 		.4byte	.LFB37
 16482 010c 60000000 		.4byte	.LFE37-.LFB37
 16483 0110 00000000 		.4byte	.LFB44
 16484 0114 58000000 		.4byte	.LFE44-.LFB44
 16485 0118 00000000 		.4byte	.LFB45
 16486 011c 34000000 		.4byte	.LFE45-.LFB45
 16487 0120 00000000 		.4byte	.LFB46
 16488 0124 18000000 		.4byte	.LFE46-.LFB46
 16489 0128 00000000 		.4byte	.LFB47
 16490 012c 1E000000 		.4byte	.LFE47-.LFB47
 16491 0130 00000000 		.4byte	.LFB48
 16492 0134 38000000 		.4byte	.LFE48-.LFB48
 16493 0138 00000000 		.4byte	.LFB49
 16494 013c 24000000 		.4byte	.LFE49-.LFB49
 16495 0140 00000000 		.4byte	.LFB50
 16496 0144 24000000 		.4byte	.LFE50-.LFB50
 16497 0148 00000000 		.4byte	.LFB51
 16498 014c 5E000000 		.4byte	.LFE51-.LFB51
 16499 0150 00000000 		.4byte	.LFB52
 16500 0154 24000000 		.4byte	.LFE52-.LFB52
 16501 0158 00000000 		.4byte	.LFB53
 16502 015c 2E000000 		.4byte	.LFE53-.LFB53
 16503 0160 00000000 		.4byte	.LFB54
 16504 0164 2C000000 		.4byte	.LFE54-.LFB54
 16505 0168 00000000 		.4byte	.LFB55
 16506 016c 20000000 		.4byte	.LFE55-.LFB55
 16507 0170 00000000 		.4byte	.LFB56
 16508 0174 34000000 		.4byte	.LFE56-.LFB56
 16509 0178 00000000 		.4byte	.LFB57
 16510 017c 34000000 		.4byte	.LFE57-.LFB57
 16511 0180 00000000 		.4byte	.LFB58
 16512 0184 20000000 		.4byte	.LFE58-.LFB58
 16513 0188 00000000 		.4byte	.LFB17
 16514 018c 3C010000 		.4byte	.LFE17-.LFB17
 16515 0190 00000000 		.4byte	.LFB59
 16516 0194 18000000 		.4byte	.LFE59-.LFB59
 16517 0198 00000000 		.4byte	.LFB60
 16518 019c 48000000 		.4byte	.LFE60-.LFB60
 16519 01a0 00000000 		.4byte	.LFB14
 16520 01a4 80000000 		.4byte	.LFE14-.LFB14
 16521 01a8 00000000 		.4byte	.LFB61
 16522 01ac 18000000 		.4byte	.LFE61-.LFB61
 16523 01b0 00000000 		.4byte	.LFB62
 16524 01b4 18000000 		.4byte	.LFE62-.LFB62
 16525 01b8 00000000 		.4byte	.LFB63
 16526 01bc 10000000 		.4byte	.LFE63-.LFB63
 16527 01c0 00000000 		.4byte	.LFB64
 16528 01c4 20000000 		.4byte	.LFE64-.LFB64
 16529 01c8 00000000 		.4byte	.LFB65
 16530 01cc 10000000 		.4byte	.LFE65-.LFB65
ARM GAS  /tmp/ccoI4Tqz.s 			page 291


 16531 01d0 00000000 		.4byte	.LFB66
 16532 01d4 20000000 		.4byte	.LFE66-.LFB66
 16533 01d8 00000000 		.4byte	0
 16534 01dc 00000000 		.4byte	0
 16535              		.section	.debug_ranges,"",%progbits
 16536              	.Ldebug_ranges0:
 16537 0000 08000000 		.4byte	.LBB203
 16538 0004 30000000 		.4byte	.LBE203
 16539 0008 34000000 		.4byte	.LBB210
 16540 000c 38000000 		.4byte	.LBE210
 16541 0010 00000000 		.4byte	0
 16542 0014 00000000 		.4byte	0
 16543 0018 20000000 		.4byte	.LBB206
 16544 001c 30000000 		.4byte	.LBE206
 16545 0020 34000000 		.4byte	.LBB209
 16546 0024 38000000 		.4byte	.LBE209
 16547 0028 00000000 		.4byte	0
 16548 002c 00000000 		.4byte	0
 16549 0030 0C000000 		.4byte	.LBB212
 16550 0034 10000000 		.4byte	.LBE212
 16551 0038 76000000 		.4byte	.LBB213
 16552 003c 7A000000 		.4byte	.LBE213
 16553 0040 8A000000 		.4byte	.LBB214
 16554 0044 B4000000 		.4byte	.LBE214
 16555 0048 00000000 		.4byte	0
 16556 004c 00000000 		.4byte	0
 16557 0050 02000000 		.4byte	.LBB217
 16558 0054 04000000 		.4byte	.LBE217
 16559 0058 06000000 		.4byte	.LBB232
 16560 005c C2000000 		.4byte	.LBE232
 16561 0060 C6000000 		.4byte	.LBB233
 16562 0064 D6000000 		.4byte	.LBE233
 16563 0068 00000000 		.4byte	0
 16564 006c 00000000 		.4byte	0
 16565 0070 1E000000 		.4byte	.LBB218
 16566 0074 22000000 		.4byte	.LBE218
 16567 0078 26000000 		.4byte	.LBB221
 16568 007c 32000000 		.4byte	.LBE221
 16569 0080 00000000 		.4byte	0
 16570 0084 00000000 		.4byte	0
 16571 0088 B8000000 		.4byte	.LBB228
 16572 008c C2000000 		.4byte	.LBE228
 16573 0090 C6000000 		.4byte	.LBB231
 16574 0094 CA000000 		.4byte	.LBE231
 16575 0098 00000000 		.4byte	0
 16576 009c 00000000 		.4byte	0
 16577 00a0 02000000 		.4byte	.LBB234
 16578 00a4 08000000 		.4byte	.LBE234
 16579 00a8 0A000000 		.4byte	.LBB243
 16580 00ac 80000000 		.4byte	.LBE243
 16581 00b0 84000000 		.4byte	.LBB244
 16582 00b4 9A000000 		.4byte	.LBE244
 16583 00b8 00000000 		.4byte	0
 16584 00bc 00000000 		.4byte	0
 16585 00c0 76000000 		.4byte	.LBB239
 16586 00c4 80000000 		.4byte	.LBE239
 16587 00c8 84000000 		.4byte	.LBB242
ARM GAS  /tmp/ccoI4Tqz.s 			page 292


 16588 00cc 88000000 		.4byte	.LBE242
 16589 00d0 00000000 		.4byte	0
 16590 00d4 00000000 		.4byte	0
 16591 00d8 04000000 		.4byte	.LBB246
 16592 00dc A0000000 		.4byte	.LBE246
 16593 00e0 A4000000 		.4byte	.LBB263
 16594 00e4 AC000000 		.4byte	.LBE263
 16595 00e8 00000000 		.4byte	0
 16596 00ec 00000000 		.4byte	0
 16597 00f0 3C000000 		.4byte	.LBB249
 16598 00f4 4A000000 		.4byte	.LBE249
 16599 00f8 4E000000 		.4byte	.LBB252
 16600 00fc 58000000 		.4byte	.LBE252
 16601 0100 00000000 		.4byte	0
 16602 0104 00000000 		.4byte	0
 16603 0108 80000000 		.4byte	.LBB255
 16604 010c 84000000 		.4byte	.LBE255
 16605 0110 88000000 		.4byte	.LBB258
 16606 0114 94000000 		.4byte	.LBE258
 16607 0118 00000000 		.4byte	0
 16608 011c 00000000 		.4byte	0
 16609 0120 94000000 		.4byte	.LBB259
 16610 0124 A0000000 		.4byte	.LBE259
 16611 0128 A4000000 		.4byte	.LBB262
 16612 012c AC000000 		.4byte	.LBE262
 16613 0130 00000000 		.4byte	0
 16614 0134 00000000 		.4byte	0
 16615 0138 04000000 		.4byte	.LBB273
 16616 013c 06000000 		.4byte	.LBE273
 16617 0140 08000000 		.4byte	.LBB278
 16618 0144 1C000000 		.4byte	.LBE278
 16619 0148 00000000 		.4byte	0
 16620 014c 00000000 		.4byte	0
 16621 0150 04000000 		.4byte	.LBB274
 16622 0154 06000000 		.4byte	.LBE274
 16623 0158 08000000 		.4byte	.LBB277
 16624 015c 14000000 		.4byte	.LBE277
 16625 0160 00000000 		.4byte	0
 16626 0164 00000000 		.4byte	0
 16627 0168 04000000 		.4byte	.LBB282
 16628 016c 08000000 		.4byte	.LBE282
 16629 0170 0A000000 		.4byte	.LBB289
 16630 0174 16000000 		.4byte	.LBE289
 16631 0178 18000000 		.4byte	.LBB290
 16632 017c 42000000 		.4byte	.LBE290
 16633 0180 00000000 		.4byte	0
 16634 0184 00000000 		.4byte	0
 16635 0188 0A000000 		.4byte	.LBB283
 16636 018c 0C000000 		.4byte	.LBE283
 16637 0190 0E000000 		.4byte	.LBB287
 16638 0194 16000000 		.4byte	.LBE287
 16639 0198 18000000 		.4byte	.LBB288
 16640 019c 24000000 		.4byte	.LBE288
 16641 01a0 00000000 		.4byte	0
 16642 01a4 00000000 		.4byte	0
 16643 01a8 9A000000 		.4byte	.LBB301
 16644 01ac 9E000000 		.4byte	.LBE301
ARM GAS  /tmp/ccoI4Tqz.s 			page 293


 16645 01b0 A2000000 		.4byte	.LBB304
 16646 01b4 B0000000 		.4byte	.LBE304
 16647 01b8 00000000 		.4byte	0
 16648 01bc 00000000 		.4byte	0
 16649 01c0 B0000000 		.4byte	.LBB305
 16650 01c4 B2000000 		.4byte	.LBE305
 16651 01c8 BA000000 		.4byte	.LBB308
 16652 01cc C2000000 		.4byte	.LBE308
 16653 01d0 00000000 		.4byte	0
 16654 01d4 00000000 		.4byte	0
 16655 01d8 04000000 		.4byte	.LBB309
 16656 01dc 08000000 		.4byte	.LBE309
 16657 01e0 0A000000 		.4byte	.LBB314
 16658 01e4 2E000000 		.4byte	.LBE314
 16659 01e8 00000000 		.4byte	0
 16660 01ec 00000000 		.4byte	0
 16661 01f0 0A000000 		.4byte	.LBB310
 16662 01f4 0E000000 		.4byte	.LBE310
 16663 01f8 10000000 		.4byte	.LBB313
 16664 01fc 22000000 		.4byte	.LBE313
 16665 0200 00000000 		.4byte	0
 16666 0204 00000000 		.4byte	0
 16667 0208 04000000 		.4byte	.LBB321
 16668 020c 08000000 		.4byte	.LBE321
 16669 0210 0A000000 		.4byte	.LBB328
 16670 0214 16000000 		.4byte	.LBE328
 16671 0218 18000000 		.4byte	.LBB329
 16672 021c 40000000 		.4byte	.LBE329
 16673 0220 00000000 		.4byte	0
 16674 0224 00000000 		.4byte	0
 16675 0228 0A000000 		.4byte	.LBB322
 16676 022c 0C000000 		.4byte	.LBE322
 16677 0230 0E000000 		.4byte	.LBB326
 16678 0234 16000000 		.4byte	.LBE326
 16679 0238 18000000 		.4byte	.LBB327
 16680 023c 24000000 		.4byte	.LBE327
 16681 0240 00000000 		.4byte	0
 16682 0244 00000000 		.4byte	0
 16683 0248 0E000000 		.4byte	.LBB345
 16684 024c 32000000 		.4byte	.LBE345
 16685 0250 36000000 		.4byte	.LBB352
 16686 0254 3A000000 		.4byte	.LBE352
 16687 0258 00000000 		.4byte	0
 16688 025c 00000000 		.4byte	0
 16689 0260 26000000 		.4byte	.LBB348
 16690 0264 32000000 		.4byte	.LBE348
 16691 0268 36000000 		.4byte	.LBB351
 16692 026c 3A000000 		.4byte	.LBE351
 16693 0270 00000000 		.4byte	0
 16694 0274 00000000 		.4byte	0
 16695 0278 0E000000 		.4byte	.LBB355
 16696 027c 32000000 		.4byte	.LBE355
 16697 0280 36000000 		.4byte	.LBB362
 16698 0284 3A000000 		.4byte	.LBE362
 16699 0288 00000000 		.4byte	0
 16700 028c 00000000 		.4byte	0
 16701 0290 26000000 		.4byte	.LBB358
ARM GAS  /tmp/ccoI4Tqz.s 			page 294


 16702 0294 32000000 		.4byte	.LBE358
 16703 0298 36000000 		.4byte	.LBB361
 16704 029c 3A000000 		.4byte	.LBE361
 16705 02a0 00000000 		.4byte	0
 16706 02a4 00000000 		.4byte	0
 16707 02a8 06000000 		.4byte	.LBB364
 16708 02ac 30000000 		.4byte	.LBE364
 16709 02b0 34000000 		.4byte	.LBB371
 16710 02b4 38000000 		.4byte	.LBE371
 16711 02b8 00000000 		.4byte	0
 16712 02bc 00000000 		.4byte	0
 16713 02c0 24000000 		.4byte	.LBB367
 16714 02c4 30000000 		.4byte	.LBE367
 16715 02c8 34000000 		.4byte	.LBB370
 16716 02cc 38000000 		.4byte	.LBE370
 16717 02d0 00000000 		.4byte	0
 16718 02d4 00000000 		.4byte	0
 16719 02d8 06000000 		.4byte	.LBB372
 16720 02dc 3A000000 		.4byte	.LBE372
 16721 02e0 3E000000 		.4byte	.LBB377
 16722 02e4 60000000 		.4byte	.LBE377
 16723 02e8 00000000 		.4byte	0
 16724 02ec 00000000 		.4byte	0
 16725 02f0 08000000 		.4byte	.LBB378
 16726 02f4 14000000 		.4byte	.LBE378
 16727 02f8 18000000 		.4byte	.LBB389
 16728 02fc 42000000 		.4byte	.LBE389
 16729 0300 46000000 		.4byte	.LBB390
 16730 0304 58000000 		.4byte	.LBE390
 16731 0308 00000000 		.4byte	0
 16732 030c 00000000 		.4byte	0
 16733 0310 08000000 		.4byte	.LBB379
 16734 0314 14000000 		.4byte	.LBE379
 16735 0318 18000000 		.4byte	.LBB382
 16736 031c 1C000000 		.4byte	.LBE382
 16737 0320 00000000 		.4byte	0
 16738 0324 00000000 		.4byte	0
 16739 0328 38000000 		.4byte	.LBB385
 16740 032c 42000000 		.4byte	.LBE385
 16741 0330 46000000 		.4byte	.LBB388
 16742 0334 4A000000 		.4byte	.LBE388
 16743 0338 00000000 		.4byte	0
 16744 033c 00000000 		.4byte	0
 16745 0340 02000000 		.4byte	.LBB391
 16746 0344 06000000 		.4byte	.LBE391
 16747 0348 0A000000 		.4byte	.LBB398
 16748 034c 2C000000 		.4byte	.LBE398
 16749 0350 30000000 		.4byte	.LBB399
 16750 0354 34000000 		.4byte	.LBE399
 16751 0358 00000000 		.4byte	0
 16752 035c 00000000 		.4byte	0
 16753 0360 20000000 		.4byte	.LBB394
 16754 0364 2C000000 		.4byte	.LBE394
 16755 0368 30000000 		.4byte	.LBB397
 16756 036c 34000000 		.4byte	.LBE397
 16757 0370 00000000 		.4byte	0
 16758 0374 00000000 		.4byte	0
ARM GAS  /tmp/ccoI4Tqz.s 			page 295


 16759 0378 06000000 		.4byte	.LBB403
 16760 037c 16000000 		.4byte	.LBE403
 16761 0380 1A000000 		.4byte	.LBB408
 16762 0384 1E000000 		.4byte	.LBE408
 16763 0388 00000000 		.4byte	0
 16764 038c 00000000 		.4byte	0
 16765 0390 0C000000 		.4byte	.LBB404
 16766 0394 16000000 		.4byte	.LBE404
 16767 0398 1A000000 		.4byte	.LBB407
 16768 039c 1E000000 		.4byte	.LBE407
 16769 03a0 00000000 		.4byte	0
 16770 03a4 00000000 		.4byte	0
 16771 03a8 06000000 		.4byte	.LBB409
 16772 03ac 08000000 		.4byte	.LBE409
 16773 03b0 0C000000 		.4byte	.LBB416
 16774 03b4 30000000 		.4byte	.LBE416
 16775 03b8 34000000 		.4byte	.LBB417
 16776 03bc 38000000 		.4byte	.LBE417
 16777 03c0 00000000 		.4byte	0
 16778 03c4 00000000 		.4byte	0
 16779 03c8 26000000 		.4byte	.LBB412
 16780 03cc 30000000 		.4byte	.LBE412
 16781 03d0 34000000 		.4byte	.LBB415
 16782 03d4 38000000 		.4byte	.LBE415
 16783 03d8 00000000 		.4byte	0
 16784 03dc 00000000 		.4byte	0
 16785 03e0 04000000 		.4byte	.LBB421
 16786 03e4 1C000000 		.4byte	.LBE421
 16787 03e8 20000000 		.4byte	.LBB426
 16788 03ec 24000000 		.4byte	.LBE426
 16789 03f0 00000000 		.4byte	0
 16790 03f4 00000000 		.4byte	0
 16791 03f8 10000000 		.4byte	.LBB422
 16792 03fc 1C000000 		.4byte	.LBE422
 16793 0400 20000000 		.4byte	.LBB425
 16794 0404 24000000 		.4byte	.LBE425
 16795 0408 00000000 		.4byte	0
 16796 040c 00000000 		.4byte	0
 16797 0410 0C000000 		.4byte	.LBB427
 16798 0414 1E000000 		.4byte	.LBE427
 16799 0418 22000000 		.4byte	.LBB438
 16800 041c 56000000 		.4byte	.LBE438
 16801 0420 5A000000 		.4byte	.LBB439
 16802 0424 5E000000 		.4byte	.LBE439
 16803 0428 00000000 		.4byte	0
 16804 042c 00000000 		.4byte	0
 16805 0430 10000000 		.4byte	.LBB428
 16806 0434 1E000000 		.4byte	.LBE428
 16807 0438 22000000 		.4byte	.LBB431
 16808 043c 26000000 		.4byte	.LBE431
 16809 0440 00000000 		.4byte	0
 16810 0444 00000000 		.4byte	0
 16811 0448 4C000000 		.4byte	.LBB434
 16812 044c 56000000 		.4byte	.LBE434
 16813 0450 5A000000 		.4byte	.LBB437
 16814 0454 5E000000 		.4byte	.LBE437
 16815 0458 00000000 		.4byte	0
ARM GAS  /tmp/ccoI4Tqz.s 			page 296


 16816 045c 00000000 		.4byte	0
 16817 0460 06000000 		.4byte	.LBB443
 16818 0464 26000000 		.4byte	.LBE443
 16819 0468 2A000000 		.4byte	.LBB448
 16820 046c 2E000000 		.4byte	.LBE448
 16821 0470 00000000 		.4byte	0
 16822 0474 00000000 		.4byte	0
 16823 0478 1C000000 		.4byte	.LBB444
 16824 047c 26000000 		.4byte	.LBE444
 16825 0480 2A000000 		.4byte	.LBB447
 16826 0484 2E000000 		.4byte	.LBE447
 16827 0488 00000000 		.4byte	0
 16828 048c 00000000 		.4byte	0
 16829 0490 18000000 		.4byte	.LBB451
 16830 0494 24000000 		.4byte	.LBE451
 16831 0498 28000000 		.4byte	.LBB454
 16832 049c 2C000000 		.4byte	.LBE454
 16833 04a0 00000000 		.4byte	0
 16834 04a4 00000000 		.4byte	0
 16835 04a8 06000000 		.4byte	.LBB458
 16836 04ac 24000000 		.4byte	.LBE458
 16837 04b0 28000000 		.4byte	.LBB465
 16838 04b4 34000000 		.4byte	.LBE465
 16839 04b8 00000000 		.4byte	0
 16840 04bc 00000000 		.4byte	0
 16841 04c0 1A000000 		.4byte	.LBB461
 16842 04c4 24000000 		.4byte	.LBE461
 16843 04c8 28000000 		.4byte	.LBB464
 16844 04cc 2C000000 		.4byte	.LBE464
 16845 04d0 00000000 		.4byte	0
 16846 04d4 00000000 		.4byte	0
 16847 04d8 06000000 		.4byte	.LBB466
 16848 04dc 24000000 		.4byte	.LBE466
 16849 04e0 28000000 		.4byte	.LBB473
 16850 04e4 34000000 		.4byte	.LBE473
 16851 04e8 00000000 		.4byte	0
 16852 04ec 00000000 		.4byte	0
 16853 04f0 1A000000 		.4byte	.LBB469
 16854 04f4 24000000 		.4byte	.LBE469
 16855 04f8 28000000 		.4byte	.LBB472
 16856 04fc 2C000000 		.4byte	.LBE472
 16857 0500 00000000 		.4byte	0
 16858 0504 00000000 		.4byte	0
 16859 0508 00000000 		.4byte	.LBB474
 16860 050c 0E000000 		.4byte	.LBE474
 16861 0510 10000000 		.4byte	.LBB477
 16862 0514 20000000 		.4byte	.LBE477
 16863 0518 00000000 		.4byte	0
 16864 051c 00000000 		.4byte	0
 16865 0520 D0000000 		.4byte	.LBB481
 16866 0524 D6000000 		.4byte	.LBE481
 16867 0528 DA000000 		.4byte	.LBB484
 16868 052c E0000000 		.4byte	.LBE484
 16869 0530 00000000 		.4byte	0
 16870 0534 00000000 		.4byte	0
 16871 0538 04000000 		.4byte	.LBB489
 16872 053c 68000000 		.4byte	.LBE489
ARM GAS  /tmp/ccoI4Tqz.s 			page 297


 16873 0540 6A000000 		.4byte	.LBB506
 16874 0544 80000000 		.4byte	.LBE506
 16875 0548 00000000 		.4byte	0
 16876 054c 00000000 		.4byte	0
 16877 0550 2A000000 		.4byte	.LBB492
 16878 0554 38000000 		.4byte	.LBE492
 16879 0558 3C000000 		.4byte	.LBB499
 16880 055c 3E000000 		.4byte	.LBE499
 16881 0560 00000000 		.4byte	0
 16882 0564 00000000 		.4byte	0
 16883 0568 38000000 		.4byte	.LBB495
 16884 056c 3C000000 		.4byte	.LBE495
 16885 0570 3E000000 		.4byte	.LBB500
 16886 0574 48000000 		.4byte	.LBE500
 16887 0578 4C000000 		.4byte	.LBB504
 16888 057c 4E000000 		.4byte	.LBE504
 16889 0580 00000000 		.4byte	0
 16890 0584 00000000 		.4byte	0
 16891 0588 48000000 		.4byte	.LBB501
 16892 058c 4C000000 		.4byte	.LBE501
 16893 0590 4E000000 		.4byte	.LBB505
 16894 0594 58000000 		.4byte	.LBE505
 16895 0598 00000000 		.4byte	0
 16896 059c 00000000 		.4byte	0
 16897 05a0 00000000 		.4byte	.LFB67
 16898 05a4 38000000 		.4byte	.LFE67
 16899 05a8 00000000 		.4byte	.LFB13
 16900 05ac BC000000 		.4byte	.LFE13
 16901 05b0 00000000 		.4byte	.LFB8
 16902 05b4 16000000 		.4byte	.LFE8
 16903 05b8 00000000 		.4byte	.LFB11
 16904 05bc 1A000000 		.4byte	.LFE11
 16905 05c0 00000000 		.4byte	.LFB15
 16906 05c4 D6000000 		.4byte	.LFE15
 16907 05c8 00000000 		.4byte	.LFB16
 16908 05cc 9A000000 		.4byte	.LFE16
 16909 05d0 00000000 		.4byte	.LFB19
 16910 05d4 0A000000 		.4byte	.LFE19
 16911 05d8 00000000 		.4byte	.LFB20
 16912 05dc AC000000 		.4byte	.LFE20
 16913 05e0 00000000 		.4byte	.LFB21
 16914 05e4 18000000 		.4byte	.LFE21
 16915 05e8 00000000 		.4byte	.LFB22
 16916 05ec 18000000 		.4byte	.LFE22
 16917 05f0 00000000 		.4byte	.LFB23
 16918 05f4 18000000 		.4byte	.LFE23
 16919 05f8 00000000 		.4byte	.LFB24
 16920 05fc 20000000 		.4byte	.LFE24
 16921 0600 00000000 		.4byte	.LFB25
 16922 0604 66000000 		.4byte	.LFE25
 16923 0608 00000000 		.4byte	.LFB26
 16924 060c 48000000 		.4byte	.LFE26
 16925 0610 00000000 		.4byte	.LFB27
 16926 0614 48000000 		.4byte	.LFE27
 16927 0618 00000000 		.4byte	.LFB18
 16928 061c CC000000 		.4byte	.LFE18
 16929 0620 00000000 		.4byte	.LFB28
ARM GAS  /tmp/ccoI4Tqz.s 			page 298


 16930 0624 36000000 		.4byte	.LFE28
 16931 0628 00000000 		.4byte	.LFB29
 16932 062c 2C000000 		.4byte	.LFE29
 16933 0630 00000000 		.4byte	.LFB30
 16934 0634 66000000 		.4byte	.LFE30
 16935 0638 00000000 		.4byte	.LFB31
 16936 063c 46000000 		.4byte	.LFE31
 16937 0640 00000000 		.4byte	.LFB32
 16938 0644 12000000 		.4byte	.LFE32
 16939 0648 00000000 		.4byte	.LFB33
 16940 064c 12000000 		.4byte	.LFE33
 16941 0650 00000000 		.4byte	.LFB34
 16942 0654 12000000 		.4byte	.LFE34
 16943 0658 00000000 		.4byte	.LFB35
 16944 065c 58000000 		.4byte	.LFE35
 16945 0660 00000000 		.4byte	.LFB36
 16946 0664 60000000 		.4byte	.LFE36
 16947 0668 00000000 		.4byte	.LFB38
 16948 066c 3A000000 		.4byte	.LFE38
 16949 0670 00000000 		.4byte	.LFB39
 16950 0674 3A000000 		.4byte	.LFE39
 16951 0678 00000000 		.4byte	.LFB40
 16952 067c 38000000 		.4byte	.LFE40
 16953 0680 00000000 		.4byte	.LFB41
 16954 0684 16000000 		.4byte	.LFE41
 16955 0688 00000000 		.4byte	.LFB42
 16956 068c 16000000 		.4byte	.LFE42
 16957 0690 00000000 		.4byte	.LFB43
 16958 0694 40000000 		.4byte	.LFE43
 16959 0698 00000000 		.4byte	.LFB37
 16960 069c 60000000 		.4byte	.LFE37
 16961 06a0 00000000 		.4byte	.LFB44
 16962 06a4 58000000 		.4byte	.LFE44
 16963 06a8 00000000 		.4byte	.LFB45
 16964 06ac 34000000 		.4byte	.LFE45
 16965 06b0 00000000 		.4byte	.LFB46
 16966 06b4 18000000 		.4byte	.LFE46
 16967 06b8 00000000 		.4byte	.LFB47
 16968 06bc 1E000000 		.4byte	.LFE47
 16969 06c0 00000000 		.4byte	.LFB48
 16970 06c4 38000000 		.4byte	.LFE48
 16971 06c8 00000000 		.4byte	.LFB49
 16972 06cc 24000000 		.4byte	.LFE49
 16973 06d0 00000000 		.4byte	.LFB50
 16974 06d4 24000000 		.4byte	.LFE50
 16975 06d8 00000000 		.4byte	.LFB51
 16976 06dc 5E000000 		.4byte	.LFE51
 16977 06e0 00000000 		.4byte	.LFB52
 16978 06e4 24000000 		.4byte	.LFE52
 16979 06e8 00000000 		.4byte	.LFB53
 16980 06ec 2E000000 		.4byte	.LFE53
 16981 06f0 00000000 		.4byte	.LFB54
 16982 06f4 2C000000 		.4byte	.LFE54
 16983 06f8 00000000 		.4byte	.LFB55
 16984 06fc 20000000 		.4byte	.LFE55
 16985 0700 00000000 		.4byte	.LFB56
 16986 0704 34000000 		.4byte	.LFE56
ARM GAS  /tmp/ccoI4Tqz.s 			page 299


 16987 0708 00000000 		.4byte	.LFB57
 16988 070c 34000000 		.4byte	.LFE57
 16989 0710 00000000 		.4byte	.LFB58
 16990 0714 20000000 		.4byte	.LFE58
 16991 0718 00000000 		.4byte	.LFB17
 16992 071c 3C010000 		.4byte	.LFE17
 16993 0720 00000000 		.4byte	.LFB59
 16994 0724 18000000 		.4byte	.LFE59
 16995 0728 00000000 		.4byte	.LFB60
 16996 072c 48000000 		.4byte	.LFE60
 16997 0730 00000000 		.4byte	.LFB14
 16998 0734 80000000 		.4byte	.LFE14
 16999 0738 00000000 		.4byte	.LFB61
 17000 073c 18000000 		.4byte	.LFE61
 17001 0740 00000000 		.4byte	.LFB62
 17002 0744 18000000 		.4byte	.LFE62
 17003 0748 00000000 		.4byte	.LFB63
 17004 074c 10000000 		.4byte	.LFE63
 17005 0750 00000000 		.4byte	.LFB64
 17006 0754 20000000 		.4byte	.LFE64
 17007 0758 00000000 		.4byte	.LFB65
 17008 075c 10000000 		.4byte	.LFE65
 17009 0760 00000000 		.4byte	.LFB66
 17010 0764 20000000 		.4byte	.LFE66
 17011 0768 00000000 		.4byte	0
 17012 076c 00000000 		.4byte	0
 17013              		.section	.debug_line,"",%progbits
 17014              	.Ldebug_line0:
 17015 0000 4E0A0000 		.section	.debug_str,"MS",%progbits,1
 17015      0200FA00 
 17015      00000201 
 17015      FB0E0D00 
 17015      01010101 
 17016              	.LASF139:
 17017 0000 4C534D39 		.ascii	"LSM9DS1\000"
 17017      44533100 
 17018              	.LASF204:
 17019 0008 5F5A4E37 		.ascii	"_ZN7LSM9DS114getAccelIntSrcEv\000"
 17019      4C534D39 
 17019      44533131 
 17019      34676574 
 17019      41636365 
 17020              	.LASF264:
 17021 0026 6D416464 		.ascii	"mAddr\000"
 17021      7200
 17022              	.LASF161:
 17023 002c 5F5A4E37 		.ascii	"_ZN7LSM9DS19readAccelE12lsm9ds1_axis\000"
 17023      4C534D39 
 17023      44533139 
 17023      72656164 
 17023      41636365 
 17024              	.LASF14:
 17025 0051 696E7438 		.ascii	"int8_t\000"
 17025      5F7400
 17026              	.LASF71:
 17027 0058 73697A65 		.ascii	"sizetype\000"
 17027      74797065 
ARM GAS  /tmp/ccoI4Tqz.s 			page 300


 17027      00
 17028              	.LASF136:
 17029 0061 6D526573 		.ascii	"mRes\000"
 17029      00
 17030              	.LASF33:
 17031 0066 4649464F 		.ascii	"FIFO_THS\000"
 17031      5F544853 
 17031      00
 17032              	.LASF27:
 17033 006f 494E545F 		.ascii	"INT_ACTIVE_LOW\000"
 17033      41435449 
 17033      56455F4C 
 17033      4F5700
 17034              	.LASF303:
 17035 007e 474E5520 		.ascii	"GNU C++ 4.9.3 20150529 (prerelease) -mcpu=cortex-m3"
 17035      432B2B20 
 17035      342E392E 
 17035      33203230 
 17035      31353035 
 17036 00b1 202D6D6E 		.ascii	" -mno-thumb-interwork -mthumb -ggdb -O2 -fomit-fram"
 17036      6F2D7468 
 17036      756D622D 
 17036      696E7465 
 17036      72776F72 
 17037 00e4 652D706F 		.ascii	"e-pointer -falign-functions=16 -ffunction-sections "
 17037      696E7465 
 17037      72202D66 
 17037      616C6967 
 17037      6E2D6675 
 17038 0117 2D666461 		.ascii	"-fdata-sections -fno-common -fno-rtti\000"
 17038      74612D73 
 17038      65637469 
 17038      6F6E7320 
 17038      2D666E6F 
 17039              	.LASF41:
 17040 013d 6C6F7750 		.ascii	"lowPowerEnable\000"
 17040      6F776572 
 17040      456E6162 
 17040      6C6500
 17041              	.LASF175:
 17042 014c 73657441 		.ascii	"setAccelScale\000"
 17042      6363656C 
 17042      5363616C 
 17042      6500
 17043              	.LASF241:
 17044 015a 63616C63 		.ascii	"calcaRes\000"
 17044      61526573 
 17044      00
 17045              	.LASF147:
 17046 0163 5F5A4E37 		.ascii	"_ZN7LSM9DS19magOffsetEhs\000"
 17046      4C534D39 
 17046      44533139 
 17046      6D61674F 
 17046      66667365 
 17047              	.LASF74:
 17048 017c 576F5265 		.ascii	"WoReg\000"
 17048      6700
ARM GAS  /tmp/ccoI4Tqz.s 			page 301


 17049              	.LASF197:
 17050 0182 636F6E66 		.ascii	"configMagInt\000"
 17050      69674D61 
 17050      67496E74 
 17050      00
 17051              	.LASF165:
 17052 018f 72656164 		.ascii	"readTemp\000"
 17052      54656D70 
 17052      00
 17053              	.LASF212:
 17054 0198 5F5A4E37 		.ascii	"_ZN7LSM9DS110enableFIFOEb\000"
 17054      4C534D39 
 17054      44533131 
 17054      30656E61 
 17054      626C6546 
 17055              	.LASF289:
 17056 01b2 696E7453 		.ascii	"intSrc\000"
 17056      726300
 17057              	.LASF98:
 17058 01b9 5457495F 		.ascii	"TWI_PTSR\000"
 17058      50545352 
 17058      00
 17059              	.LASF292:
 17060 01c2 636F6E66 		.ascii	"config\000"
 17060      696700
 17061              	.LASF199:
 17062 01c9 636F6E66 		.ascii	"configMagThs\000"
 17062      69674D61 
 17062      67546873 
 17062      00
 17063              	.LASF237:
 17064 01d6 63616C63 		.ascii	"calcgRes\000"
 17064      67526573 
 17064      00
 17065              	.LASF223:
 17066 01df 696E6974 		.ascii	"initMag\000"
 17066      4D616700 
 17067              	.LASF124:
 17068 01e7 73657474 		.ascii	"settings\000"
 17068      696E6773 
 17068      00
 17069              	.LASF242:
 17070 01f0 5F5A4E37 		.ascii	"_ZN7LSM9DS18calcaResEv\000"
 17070      4C534D39 
 17070      44533138 
 17070      63616C63 
 17070      61526573 
 17071              	.LASF178:
 17072 0207 5F5A4E37 		.ascii	"_ZN7LSM9DS111setMagScaleEh\000"
 17072      4C534D39 
 17072      44533131 
 17072      31736574 
 17072      4D616753 
 17073              	.LASF151:
 17074 0222 5F5A4E37 		.ascii	"_ZN7LSM9DS113gyroAvailableEv\000"
 17074      4C534D39 
 17074      44533131 
ARM GAS  /tmp/ccoI4Tqz.s 			page 302


 17074      33677972 
 17074      6F417661 
 17075              	.LASF275:
 17076 023f 6153636C 		.ascii	"aScl\000"
 17076      00
 17077              	.LASF42:
 17078 0244 48504645 		.ascii	"HPFEnable\000"
 17078      6E61626C 
 17078      6500
 17079              	.LASF57:
 17080 024e 61636365 		.ascii	"accelSettings\000"
 17080      6C536574 
 17080      74696E67 
 17080      7300
 17081              	.LASF25:
 17082 025c 685F6C61 		.ascii	"h_lactive\000"
 17082      63746976 
 17082      6500
 17083              	.LASF215:
 17084 0266 67657446 		.ascii	"getFIFOSamples\000"
 17084      49464F53 
 17084      616D706C 
 17084      657300
 17085              	.LASF82:
 17086 0275 5457495F 		.ascii	"TWI_SR\000"
 17086      535200
 17087              	.LASF210:
 17088 027c 5F5A4E37 		.ascii	"_ZN7LSM9DS19sleepGyroEb\000"
 17088      4C534D39 
 17088      44533139 
 17088      736C6565 
 17088      70477972 
 17089              	.LASF239:
 17090 0294 63616C63 		.ascii	"calcmRes\000"
 17090      6D526573 
 17090      00
 17091              	.LASF101:
 17092 029d 63616C6C 		.ascii	"callback\000"
 17092      6261636B 
 17092      00
 17093              	.LASF243:
 17094 02a6 636F6E73 		.ascii	"constrainScales\000"
 17094      74726169 
 17094      6E536361 
 17094      6C657300 
 17095              	.LASF304:
 17096 02b6 6C736D39 		.ascii	"lsm9ds1.cpp\000"
 17096      6473312E 
 17096      63707000 
 17097              	.LASF149:
 17098 02c2 5F5A4E37 		.ascii	"_ZN7LSM9DS114accelAvailableEv\000"
 17098      4C534D39 
 17098      44533131 
 17098      34616363 
 17098      656C4176 
 17099              	.LASF273:
 17100 02e0 6753636C 		.ascii	"gScl\000"
ARM GAS  /tmp/ccoI4Tqz.s 			page 303


 17100      00
 17101              	.LASF3:
 17102 02e5 5F5F7569 		.ascii	"__uint8_t\000"
 17102      6E74385F 
 17102      7400
 17103              	.LASF282:
 17104 02ef 61637469 		.ascii	"activeLow\000"
 17104      76654C6F 
 17104      7700
 17105              	.LASF146:
 17106 02f9 6D61674F 		.ascii	"magOffset\000"
 17106      66667365 
 17106      7400
 17107              	.LASF299:
 17108 0303 67426961 		.ascii	"gBiasRawTemp\000"
 17108      73526177 
 17108      54656D70 
 17108      00
 17109              	.LASF193:
 17110 0310 5F5A4E37 		.ascii	"_ZN7LSM9DS113configGyroIntEhbb\000"
 17110      4C534D39 
 17110      44533131 
 17110      33636F6E 
 17110      66696747 
 17111              	.LASF9:
 17112 032f 6C6F6E67 		.ascii	"long int\000"
 17112      20696E74 
 17112      00
 17113              	.LASF91:
 17114 0338 5457495F 		.ascii	"TWI_TPR\000"
 17114      54505200 
 17115              	.LASF305:
 17116 0340 2F686F6D 		.ascii	"/home/gaby/Documentos/Tesis/PruebaMatrixPWM/mcu/cre"
 17116      652F6761 
 17116      62792F44 
 17116      6F63756D 
 17116      656E746F 
 17117 0373 61746F72 		.ascii	"ator\000"
 17117      00
 17118              	.LASF110:
 17119 0378 57726974 		.ascii	"WriteByte\000"
 17119      65427974 
 17119      6500
 17120              	.LASF283:
 17121 0382 70757368 		.ascii	"pushPull\000"
 17121      50756C6C 
 17121      00
 17122              	.LASF63:
 17123 038b 5A506572 		.ascii	"ZPerformance\000"
 17123      666F726D 
 17123      616E6365 
 17123      00
 17124              	.LASF236:
 17125 0398 5F5A4E37 		.ascii	"_ZN7LSM9DS111xgWriteByteEhh\000"
 17125      4C534D39 
 17125      44533131 
 17125      31786757 
ARM GAS  /tmp/ccoI4Tqz.s 			page 304


 17125      72697465 
 17126              	.LASF294:
 17127 03b4 6669666F 		.ascii	"fifoMode\000"
 17127      4D6F6465 
 17127      00
 17128              	.LASF60:
 17129 03bd 6D616753 		.ascii	"magSettings\000"
 17129      65747469 
 17129      6E677300 
 17130              	.LASF155:
 17131 03c9 5F5A4E37 		.ascii	"_ZN7LSM9DS112magAvailableE12lsm9ds1_axis\000"
 17131      4C534D39 
 17131      44533131 
 17131      326D6167 
 17131      41766169 
 17132              	.LASF145:
 17133 03f2 5F5A4E37 		.ascii	"_ZN7LSM9DS112calibrateMagEb\000"
 17133      4C534D39 
 17133      44533131 
 17133      3263616C 
 17133      69627261 
 17134              	.LASF120:
 17135 040e 585F4158 		.ascii	"X_AXIS\000"
 17135      495300
 17136              	.LASF170:
 17137 0415 5F5A4E37 		.ascii	"_ZN7LSM9DS19calcAccelEs\000"
 17137      4C534D39 
 17137      44533139 
 17137      63616C63 
 17137      41636365 
 17138              	.LASF167:
 17139 042d 63616C63 		.ascii	"calcGyro\000"
 17139      4779726F 
 17139      00
 17140              	.LASF44:
 17141 0436 666C6970 		.ascii	"flipX\000"
 17141      5800
 17142              	.LASF45:
 17143 043c 666C6970 		.ascii	"flipY\000"
 17143      5900
 17144              	.LASF46:
 17145 0442 666C6970 		.ascii	"flipZ\000"
 17145      5A00
 17146              	.LASF1:
 17147 0448 7369676E 		.ascii	"signed char\000"
 17147      65642063 
 17147      68617200 
 17148              	.LASF15:
 17149 0454 75696E74 		.ascii	"uint8_t\000"
 17149      385F7400 
 17150              	.LASF79:
 17151 045c 5457495F 		.ascii	"TWI_IADR\000"
 17151      49414452 
 17151      00
 17152              	.LASF179:
 17153 0465 73657447 		.ascii	"setGyroODR\000"
 17153      79726F4F 
ARM GAS  /tmp/ccoI4Tqz.s 			page 305


 17153      445200
 17154              	.LASF263:
 17155 0470 78674164 		.ascii	"xgAddr\000"
 17155      647200
 17156              	.LASF284:
 17157 0477 64757261 		.ascii	"duration\000"
 17157      74696F6E 
 17157      00
 17158              	.LASF296:
 17159 0480 6175746F 		.ascii	"autoCalc\000"
 17159      43616C63 
 17159      00
 17160              	.LASF38:
 17161 0489 7363616C 		.ascii	"scale\000"
 17161      6500
 17162              	.LASF198:
 17163 048f 5F5A4E37 		.ascii	"_ZN7LSM9DS112configMagIntEh9h_lactiveb\000"
 17163      4C534D39 
 17163      44533131 
 17163      32636F6E 
 17163      6669674D 
 17164              	.LASF4:
 17165 04b6 756E7369 		.ascii	"unsigned char\000"
 17165      676E6564 
 17165      20636861 
 17165      7200
 17166              	.LASF218:
 17167 04c4 5F5A4E37 		.ascii	"_ZN7LSM9DS14initE14interface_modehh\000"
 17167      4C534D39 
 17167      44533134 
 17167      696E6974 
 17167      45313469 
 17168              	.LASF232:
 17169 04e8 5F5A4E37 		.ascii	"_ZN7LSM9DS110xgReadByteEh\000"
 17169      4C534D39 
 17169      44533131 
 17169      30786752 
 17169      65616442 
 17170              	.LASF137:
 17171 0502 5F617574 		.ascii	"_autoCalc\000"
 17171      6F43616C 
 17171      6300
 17172              	.LASF205:
 17173 050c 6765744D 		.ascii	"getMagIntSrc\000"
 17173      6167496E 
 17173      74537263 
 17173      00
 17174              	.LASF176:
 17175 0519 5F5A4E37 		.ascii	"_ZN7LSM9DS113setAccelScaleEh\000"
 17175      4C534D39 
 17175      44533131 
 17175      33736574 
 17175      41636365 
 17176              	.LASF268:
 17177 0536 76616C75 		.ascii	"value\000"
 17177      6500
 17178              	.LASF247:
ARM GAS  /tmp/ccoI4Tqz.s 			page 306


 17179 053c 49324377 		.ascii	"I2CwriteByte\000"
 17179      72697465 
 17179      42797465 
 17179      00
 17180              	.LASF59:
 17181 0549 68696768 		.ascii	"highResBandwidth\000"
 17181      52657342 
 17181      616E6477 
 17181      69647468 
 17181      00
 17182              	.LASF72:
 17183 055a 63686172 		.ascii	"char\000"
 17183      00
 17184              	.LASF158:
 17185 055f 5F5A4E37 		.ascii	"_ZN7LSM9DS18readGyroE12lsm9ds1_axis\000"
 17185      4C534D39 
 17185      44533138 
 17185      72656164 
 17185      4779726F 
 17186              	.LASF68:
 17187 0583 6779726F 		.ascii	"gyro\000"
 17187      00
 17188              	.LASF53:
 17189 0588 64657669 		.ascii	"deviceSettings\000"
 17189      63655365 
 17189      7474696E 
 17189      677300
 17190              	.LASF26:
 17191 0597 494E545F 		.ascii	"INT_ACTIVE_HIGH\000"
 17191      41435449 
 17191      56455F48 
 17191      49474800 
 17192              	.LASF163:
 17193 05a7 5F5A4E37 		.ascii	"_ZN7LSM9DS17readMagEv\000"
 17193      4C534D39 
 17193      44533137 
 17193      72656164 
 17193      4D616745 
 17194              	.LASF7:
 17195 05bd 5F5F7569 		.ascii	"__uint16_t\000"
 17195      6E743136 
 17195      5F7400
 17196              	.LASF266:
 17197 05c8 5F5A4E37 		.ascii	"_ZN7LSM9DS1C2EPN7creator3I2CE14interface_modehh\000"
 17197      4C534D39 
 17197      44533143 
 17197      3245504E 
 17197      37637265 
 17198              	.LASF148:
 17199 05f8 61636365 		.ascii	"accelAvailable\000"
 17199      6C417661 
 17199      696C6162 
 17199      6C6500
 17200              	.LASF228:
 17201 0607 5F5A4E37 		.ascii	"_ZN7LSM9DS110mReadBytesEhPhh\000"
 17201      4C534D39 
 17201      44533131 
ARM GAS  /tmp/ccoI4Tqz.s 			page 307


 17201      306D5265 
 17201      61644279 
 17202              	.LASF300:
 17203 0624 6D546573 		.ascii	"mTest\000"
 17203      7400
 17204              	.LASF76:
 17205 062a 5457495F 		.ascii	"TWI_CR\000"
 17205      435200
 17206              	.LASF90:
 17207 0631 5457495F 		.ascii	"TWI_RCR\000"
 17207      52435200 
 17208              	.LASF301:
 17209 0639 78675465 		.ascii	"xgTest\000"
 17209      737400
 17210              	.LASF102:
 17211 0640 7053746F 		.ascii	"pStorage\000"
 17211      72616765 
 17211      00
 17212              	.LASF168:
 17213 0649 5F5A4E37 		.ascii	"_ZN7LSM9DS18calcGyroEs\000"
 17213      4C534D39 
 17213      44533138 
 17213      63616C63 
 17213      4779726F 
 17214              	.LASF127:
 17215 0660 61426961 		.ascii	"aBias\000"
 17215      7300
 17216              	.LASF206:
 17217 0666 5F5A4E37 		.ascii	"_ZN7LSM9DS112getMagIntSrcEv\000"
 17217      4C534D39 
 17217      44533131 
 17217      32676574 
 17217      4D616749 
 17218              	.LASF258:
 17219 0682 61786973 		.ascii	"axis\000"
 17219      00
 17220              	.LASF290:
 17221 0687 6C617463 		.ascii	"latch\000"
 17221      6800
 17222              	.LASF297:
 17223 068d 73616D70 		.ascii	"samples\000"
 17223      6C657300 
 17224              	.LASF94:
 17225 0695 5457495F 		.ascii	"TWI_RNCR\000"
 17225      524E4352 
 17225      00
 17226              	.LASF36:
 17227 069e 4649464F 		.ascii	"FIFO_CONT\000"
 17227      5F434F4E 
 17227      5400
 17228              	.LASF152:
 17229 06a8 74656D70 		.ascii	"tempAvailable\000"
 17229      41766169 
 17229      6C61626C 
 17229      6500
 17230              	.LASF126:
 17231 06b6 67426961 		.ascii	"gBias\000"
ARM GAS  /tmp/ccoI4Tqz.s 			page 308


 17231      7300
 17232              	.LASF96:
 17233 06bc 5457495F 		.ascii	"TWI_TNCR\000"
 17233      544E4352 
 17233      00
 17234              	.LASF272:
 17235 06c5 6D616754 		.ascii	"magTemp\000"
 17235      656D7000 
 17236              	.LASF291:
 17237 06cd 62756666 		.ascii	"buffer\000"
 17237      657200
 17238              	.LASF277:
 17239 06d4 61526174 		.ascii	"aRate\000"
 17239      6500
 17240              	.LASF62:
 17241 06da 58595065 		.ascii	"XYPerformance\000"
 17241      72666F72 
 17241      6D616E63 
 17241      6500
 17242              	.LASF150:
 17243 06e8 6779726F 		.ascii	"gyroAvailable\000"
 17243      41766169 
 17243      6C61626C 
 17243      6500
 17244              	.LASF251:
 17245 06f6 49324372 		.ascii	"I2CreadBytes\000"
 17245      65616442 
 17245      79746573 
 17245      00
 17246              	.LASF224:
 17247 0703 5F5A4E37 		.ascii	"_ZN7LSM9DS17initMagEv\000"
 17247      4C534D39 
 17247      44533137 
 17247      696E6974 
 17247      4D616745 
 17248              	.LASF202:
 17249 0719 67657441 		.ascii	"getAccelIntSrc\000"
 17249      6363656C 
 17249      496E7453 
 17249      726300
 17250              	.LASF262:
 17251 0728 696E7465 		.ascii	"interface\000"
 17251      72666163 
 17251      6500
 17252              	.LASF256:
 17253 0732 64617461 		.ascii	"data\000"
 17253      00
 17254              	.LASF48:
 17255 0737 656E6162 		.ascii	"enableX\000"
 17255      6C655800 
 17256              	.LASF49:
 17257 073f 656E6162 		.ascii	"enableY\000"
 17257      6C655900 
 17258              	.LASF50:
 17259 0747 656E6162 		.ascii	"enableZ\000"
 17259      6C655A00 
 17260              	.LASF37:
ARM GAS  /tmp/ccoI4Tqz.s 			page 309


 17261 074f 656E6162 		.ascii	"enabled\000"
 17261      6C656400 
 17262              	.LASF11:
 17263 0757 6C6F6E67 		.ascii	"long unsigned int\000"
 17263      20756E73 
 17263      69676E65 
 17263      6420696E 
 17263      7400
 17264              	.LASF128:
 17265 0769 6D426961 		.ascii	"mBias\000"
 17265      7300
 17266              	.LASF100:
 17267 076f 73746174 		.ascii	"status\000"
 17267      757300
 17268              	.LASF171:
 17269 0776 63616C63 		.ascii	"calcMag\000"
 17269      4D616700 
 17270              	.LASF122:
 17271 077e 5A5F4158 		.ascii	"Z_AXIS\000"
 17271      495300
 17272              	.LASF238:
 17273 0785 5F5A4E37 		.ascii	"_ZN7LSM9DS18calcgResEv\000"
 17273      4C534D39 
 17273      44533138 
 17273      63616C63 
 17273      67526573 
 17274              	.LASF111:
 17275 079c 5F5A4E37 		.ascii	"_ZN7creator3I2C4InitEv\000"
 17275      63726561 
 17275      746F7233 
 17275      49324334 
 17275      496E6974 
 17276              	.LASF308:
 17277 07b3 6D616753 		.ascii	"magSensitivity\000"
 17277      656E7369 
 17277      74697669 
 17277      747900
 17278              	.LASF276:
 17279 07c2 67526174 		.ascii	"gRate\000"
 17279      6500
 17280              	.LASF196:
 17281 07c8 5F5A4E37 		.ascii	"_ZN7LSM9DS19configIntE16interrupt_selecth9h_lactive"
 17281      4C534D39 
 17281      44533139 
 17281      636F6E66 
 17281      6967496E 
 17282 07fb 3570705F 		.ascii	"5pp_od\000"
 17282      6F6400
 17283              	.LASF257:
 17284 0802 74686973 		.ascii	"this\000"
 17284      00
 17285              	.LASF195:
 17286 0807 636F6E66 		.ascii	"configInt\000"
 17286      6967496E 
 17286      7400
 17287              	.LASF34:
 17288 0811 4649464F 		.ascii	"FIFO_CONT_TRIGGER\000"
ARM GAS  /tmp/ccoI4Tqz.s 			page 310


 17288      5F434F4E 
 17288      545F5452 
 17288      49474745 
 17288      5200
 17289              	.LASF216:
 17290 0823 5F5A4E37 		.ascii	"_ZN7LSM9DS114getFIFOSamplesEv\000"
 17290      4C534D39 
 17290      44533131 
 17290      34676574 
 17290      4649464F 
 17291              	.LASF54:
 17292 0841 636F6D6D 		.ascii	"commInterface\000"
 17292      496E7465 
 17292      72666163 
 17292      6500
 17293              	.LASF190:
 17294 084f 5F5A4E37 		.ascii	"_ZN7LSM9DS114configAccelThsEh12lsm9ds1_axishb\000"
 17294      4C534D39 
 17294      44533131 
 17294      34636F6E 
 17294      66696741 
 17295              	.LASF164:
 17296 087d 5F5A4E37 		.ascii	"_ZN7LSM9DS17readMagE12lsm9ds1_axis\000"
 17296      4C534D39 
 17296      44533137 
 17296      72656164 
 17296      4D616745 
 17297              	.LASF234:
 17298 08a0 5F5A4E37 		.ascii	"_ZN7LSM9DS111xgReadBytesEhPhh\000"
 17298      4C534D39 
 17298      44533131 
 17298      31786752 
 17298      65616442 
 17299              	.LASF138:
 17300 08be 6932635F 		.ascii	"i2c_\000"
 17300      00
 17301              	.LASF154:
 17302 08c3 6D616741 		.ascii	"magAvailable\000"
 17302      7661696C 
 17302      61626C65 
 17302      00
 17303              	.LASF106:
 17304 08d0 70547261 		.ascii	"pTransfer\000"
 17304      6E736665 
 17304      7200
 17305              	.LASF65:
 17306 08da 74656D70 		.ascii	"temperatureSettings\000"
 17306      65726174 
 17306      75726553 
 17306      65747469 
 17306      6E677300 
 17307              	.LASF86:
 17308 08ee 5457495F 		.ascii	"TWI_RHR\000"
 17308      52485200 
 17309              	.LASF194:
 17310 08f6 5F5A4E37 		.ascii	"_ZN7LSM9DS113configGyroThsEs12lsm9ds1_axishb\000"
 17310      4C534D39 
ARM GAS  /tmp/ccoI4Tqz.s 			page 311


 17310      44533131 
 17310      33636F6E 
 17310      66696747 
 17311              	.LASF10:
 17312 0923 5F5F7569 		.ascii	"__uint32_t\000"
 17312      6E743332 
 17312      5F7400
 17313              	.LASF162:
 17314 092e 72656164 		.ascii	"readMag\000"
 17314      4D616700 
 17315              	.LASF12:
 17316 0936 6C6F6E67 		.ascii	"long long int\000"
 17316      206C6F6E 
 17316      6720696E 
 17316      7400
 17317              	.LASF219:
 17318 0944 696E6974 		.ascii	"initGyro\000"
 17318      4779726F 
 17318      00
 17319              	.LASF230:
 17320 094d 5F5A4E37 		.ascii	"_ZN7LSM9DS110mWriteByteEhh\000"
 17320      4C534D39 
 17320      44533131 
 17320      306D5772 
 17320      69746542 
 17321              	.LASF293:
 17322 0968 656E6162 		.ascii	"enable\000"
 17322      6C6500
 17323              	.LASF278:
 17324 096f 6D526174 		.ascii	"mRate\000"
 17324      6500
 17325              	.LASF64:
 17326 0975 6F706572 		.ascii	"operatingMode\000"
 17326      6174696E 
 17326      674D6F64 
 17326      6500
 17327              	.LASF115:
 17328 0983 5F5A4E37 		.ascii	"_ZN7creator3I2C8ReadByteEhh\000"
 17328      63726561 
 17328      746F7233 
 17328      49324338 
 17328      52656164 
 17329              	.LASF172:
 17330 099f 5F5A4E37 		.ascii	"_ZN7LSM9DS17calcMagEs\000"
 17330      4C534D39 
 17330      44533137 
 17330      63616C63 
 17330      4D616745 
 17331              	.LASF186:
 17332 09b5 5F5A4E37 		.ascii	"_ZN7LSM9DS116configInactivityEhhb\000"
 17332      4C534D39 
 17332      44533131 
 17332      36636F6E 
 17332      66696749 
 17333              	.LASF255:
 17334 09d7 73756241 		.ascii	"subAddress\000"
 17334      64647265 
ARM GAS  /tmp/ccoI4Tqz.s 			page 312


 17334      737300
 17335              	.LASF108:
 17336 09e2 74776964 		.ascii	"twid_\000"
 17336      5F00
 17337              	.LASF105:
 17338 09e8 70547769 		.ascii	"pTwi\000"
 17338      00
 17339              	.LASF225:
 17340 09ed 6D526561 		.ascii	"mReadByte\000"
 17340      64427974 
 17340      6500
 17341              	.LASF39:
 17342 09f7 73616D70 		.ascii	"sampleRate\000"
 17342      6C655261 
 17342      746500
 17343              	.LASF123:
 17344 0a02 414C4C5F 		.ascii	"ALL_AXIS\000"
 17344      41584953 
 17344      00
 17345              	.LASF214:
 17346 0a0b 5F5A4E37 		.ascii	"_ZN7LSM9DS17setFIFOE13fifoMode_typeh\000"
 17346      4C534D39 
 17346      44533137 
 17346      73657446 
 17346      49464F45 
 17347              	.LASF84:
 17348 0a30 5457495F 		.ascii	"TWI_IDR\000"
 17348      49445200 
 17349              	.LASF271:
 17350 0a38 6D61674D 		.ascii	"magMax\000"
 17350      617800
 17351              	.LASF253:
 17352 0a3f 666C6F61 		.ascii	"float\000"
 17352      7400
 17353              	.LASF97:
 17354 0a45 5457495F 		.ascii	"TWI_PTCR\000"
 17354      50544352 
 17354      00
 17355              	.LASF261:
 17356 0a4e 636F756E 		.ascii	"count\000"
 17356      7400
 17357              	.LASF201:
 17358 0a54 67657447 		.ascii	"getGyroIntSrc\000"
 17358      79726F49 
 17358      6E745372 
 17358      6300
 17359              	.LASF285:
 17360 0a62 74687265 		.ascii	"threshold\000"
 17360      73686F6C 
 17360      6400
 17361              	.LASF0:
 17362 0a6c 756E7369 		.ascii	"unsigned int\000"
 17362      676E6564 
 17362      20696E74 
 17362      00
 17363              	.LASF269:
 17364 0a79 6C6F6164 		.ascii	"loadIn\000"
ARM GAS  /tmp/ccoI4Tqz.s 			page 313


 17364      496E00
 17365              	.LASF114:
 17366 0a80 52656164 		.ascii	"ReadByte\000"
 17366      42797465 
 17366      00
 17367              	.LASF83:
 17368 0a89 5457495F 		.ascii	"TWI_IER\000"
 17368      49455200 
 17369              	.LASF182:
 17370 0a91 5F5A4E37 		.ascii	"_ZN7LSM9DS111setAccelODREh\000"
 17370      4C534D39 
 17370      44533131 
 17370      31736574 
 17370      41636365 
 17371              	.LASF287:
 17372 0aac 616E6449 		.ascii	"andInterrupts\000"
 17372      6E746572 
 17372      72757074 
 17372      7300
 17373              	.LASF31:
 17374 0aba 6669666F 		.ascii	"fifoMode_type\000"
 17374      4D6F6465 
 17374      5F747970 
 17374      6500
 17375              	.LASF51:
 17376 0ac8 6C617463 		.ascii	"latchInterrupt\000"
 17376      68496E74 
 17376      65727275 
 17376      707400
 17377              	.LASF23:
 17378 0ad7 58475F49 		.ascii	"XG_INT1\000"
 17378      4E543100 
 17379              	.LASF24:
 17380 0adf 58475F49 		.ascii	"XG_INT2\000"
 17380      4E543200 
 17381              	.LASF40:
 17382 0ae7 62616E64 		.ascii	"bandwidth\000"
 17382      77696474 
 17382      6800
 17383              	.LASF141:
 17384 0af1 5F5A4E37 		.ascii	"_ZN7LSM9DS15beginEv\000"
 17384      4C534D39 
 17384      44533135 
 17384      62656769 
 17384      6E457600 
 17385              	.LASF221:
 17386 0b05 696E6974 		.ascii	"initAccel\000"
 17386      41636365 
 17386      6C00
 17387              	.LASF21:
 17388 0b0f 696E7465 		.ascii	"interface_mode\000"
 17388      72666163 
 17388      655F6D6F 
 17388      646500
 17389              	.LASF109:
 17390 0b1e 496E6974 		.ascii	"Init\000"
 17390      00
ARM GAS  /tmp/ccoI4Tqz.s 			page 314


 17391              	.LASF233:
 17392 0b23 78675265 		.ascii	"xgReadBytes\000"
 17392      61644279 
 17392      74657300 
 17393              	.LASF252:
 17394 0b2f 5F5A4E37 		.ascii	"_ZN7LSM9DS112I2CreadBytesEhhPhh\000"
 17394      4C534D39 
 17394      44533131 
 17394      32493243 
 17394      72656164 
 17395              	.LASF265:
 17396 0b4f 5F5A4E37 		.ascii	"_ZN7LSM9DS1C2EPN7creator3I2CE\000"
 17396      4C534D39 
 17396      44533143 
 17396      3245504E 
 17396      37637265 
 17397              	.LASF113:
 17398 0b6d 5F5A4E37 		.ascii	"_ZN7creator3I2C9WriteByteEhh\000"
 17398      63726561 
 17398      746F7233 
 17398      49324339 
 17398      57726974 
 17399              	.LASF66:
 17400 0b8a 494D5553 		.ascii	"IMUSettings\000"
 17400      65747469 
 17400      6E677300 
 17401              	.LASF142:
 17402 0b96 63616C69 		.ascii	"calibrate\000"
 17402      62726174 
 17402      6500
 17403              	.LASF28:
 17404 0ba0 70705F6F 		.ascii	"pp_od\000"
 17404      6400
 17405              	.LASF254:
 17406 0ba6 626F6F6C 		.ascii	"bool\000"
 17406      00
 17407              	.LASF103:
 17408 0bab 4173796E 		.ascii	"Async\000"
 17408      6300
 17409              	.LASF56:
 17410 0bb1 6D416464 		.ascii	"mAddress\000"
 17410      72657373 
 17410      00
 17411              	.LASF77:
 17412 0bba 5457495F 		.ascii	"TWI_MMR\000"
 17412      4D4D5200 
 17413              	.LASF118:
 17414 0bc2 5F5A4E37 		.ascii	"_ZN7creator3I2C9ReadBytesEhhPhh\000"
 17414      63726561 
 17414      746F7233 
 17414      49324339 
 17414      52656164 
 17415              	.LASF132:
 17416 0be2 5F6D4164 		.ascii	"_mAddress\000"
 17416      64726573 
 17416      7300
 17417              	.LASF244:
ARM GAS  /tmp/ccoI4Tqz.s 			page 315


 17418 0bec 5F5A4E37 		.ascii	"_ZN7LSM9DS115constrainScalesEv\000"
 17418      4C534D39 
 17418      44533131 
 17418      35636F6E 
 17418      73747261 
 17419              	.LASF20:
 17420 0c0b 494D555F 		.ascii	"IMU_MODE_I2C\000"
 17420      4D4F4445 
 17420      5F493243 
 17420      00
 17421              	.LASF140:
 17422 0c18 62656769 		.ascii	"begin\000"
 17422      6E00
 17423              	.LASF19:
 17424 0c1e 494D555F 		.ascii	"IMU_MODE_SPI\000"
 17424      4D4F4445 
 17424      5F535049 
 17424      00
 17425              	.LASF183:
 17426 0c2b 7365744D 		.ascii	"setMagODR\000"
 17426      61674F44 
 17426      5200
 17427              	.LASF159:
 17428 0c35 72656164 		.ascii	"readAccel\000"
 17428      41636365 
 17428      6C00
 17429              	.LASF207:
 17430 0c3f 67657449 		.ascii	"getInactivity\000"
 17430      6E616374 
 17430      69766974 
 17430      7900
 17431              	.LASF35:
 17432 0c4d 4649464F 		.ascii	"FIFO_OFF_TRIGGER\000"
 17432      5F4F4646 
 17432      5F545249 
 17432      47474552 
 17432      00
 17433              	.LASF181:
 17434 0c5e 73657441 		.ascii	"setAccelODR\000"
 17434      6363656C 
 17434      4F445200 
 17435              	.LASF130:
 17436 0c6a 61426961 		.ascii	"aBiasRaw\000"
 17436      73526177 
 17436      00
 17437              	.LASF2:
 17438 0c73 5F5F696E 		.ascii	"__int8_t\000"
 17438      74385F74 
 17438      00
 17439              	.LASF67:
 17440 0c7c 64657669 		.ascii	"device\000"
 17440      636500
 17441              	.LASF156:
 17442 0c83 72656164 		.ascii	"readGyro\000"
 17442      4779726F 
 17442      00
 17443              	.LASF13:
ARM GAS  /tmp/ccoI4Tqz.s 			page 316


 17444 0c8c 6C6F6E67 		.ascii	"long long unsigned int\000"
 17444      206C6F6E 
 17444      6720756E 
 17444      7369676E 
 17444      65642069 
 17445              	.LASF188:
 17446 0ca3 5F5A4E37 		.ascii	"_ZN7LSM9DS114configAccelIntEhb\000"
 17446      4C534D39 
 17446      44533131 
 17446      34636F6E 
 17446      66696741 
 17447              	.LASF17:
 17448 0cc2 75696E74 		.ascii	"uint16_t\000"
 17448      31365F74 
 17448      00
 17449              	.LASF227:
 17450 0ccb 6D526561 		.ascii	"mReadBytes\000"
 17450      64427974 
 17450      657300
 17451              	.LASF29:
 17452 0cd6 494E545F 		.ascii	"INT_PUSH_PULL\000"
 17452      50555348 
 17452      5F50554C 
 17452      4C00
 17453              	.LASF274:
 17454 0ce4 6374726C 		.ascii	"ctrl1RegValue\000"
 17454      31526567 
 17454      56616C75 
 17454      6500
 17455              	.LASF200:
 17456 0cf2 5F5A4E37 		.ascii	"_ZN7LSM9DS112configMagThsEt\000"
 17456      4C534D39 
 17456      44533131 
 17456      32636F6E 
 17456      6669674D 
 17457              	.LASF208:
 17458 0d0e 5F5A4E37 		.ascii	"_ZN7LSM9DS113getInactivityEv\000"
 17458      4C534D39 
 17458      44533131 
 17458      33676574 
 17458      496E6163 
 17459              	.LASF306:
 17460 0d2b 33547769 		.ascii	"3Twi\000"
 17460      00
 17461              	.LASF245:
 17462 0d30 696E6974 		.ascii	"initI2C\000"
 17462      49324300 
 17463              	.LASF80:
 17464 0d38 5457495F 		.ascii	"TWI_CWGR\000"
 17464      43574752 
 17464      00
 17465              	.LASF153:
 17466 0d41 5F5A4E37 		.ascii	"_ZN7LSM9DS113tempAvailableEv\000"
 17466      4C534D39 
 17466      44533131 
 17466      3374656D 
 17466      70417661 
ARM GAS  /tmp/ccoI4Tqz.s 			page 317


 17467              	.LASF226:
 17468 0d5e 5F5A4E37 		.ascii	"_ZN7LSM9DS19mReadByteEh\000"
 17468      4C534D39 
 17468      44533139 
 17468      6D526561 
 17468      64427974 
 17469              	.LASF92:
 17470 0d76 5457495F 		.ascii	"TWI_TCR\000"
 17470      54435200 
 17471              	.LASF250:
 17472 0d7e 5F5A4E37 		.ascii	"_ZN7LSM9DS111I2CreadByteEhh\000"
 17472      4C534D39 
 17472      44533131 
 17472      31493243 
 17472      72656164 
 17473              	.LASF169:
 17474 0d9a 63616C63 		.ascii	"calcAccel\000"
 17474      41636365 
 17474      6C00
 17475              	.LASF213:
 17476 0da4 73657446 		.ascii	"setFIFO\000"
 17476      49464F00 
 17477              	.LASF112:
 17478 0dac 5F5A4E37 		.ascii	"_ZN7creator3I2C9WriteByteEhhh\000"
 17478      63726561 
 17478      746F7233 
 17478      49324339 
 17478      57726974 
 17479              	.LASF184:
 17480 0dca 5F5A4E37 		.ascii	"_ZN7LSM9DS19setMagODREh\000"
 17480      4C534D39 
 17480      44533139 
 17480      7365744D 
 17480      61674F44 
 17481              	.LASF89:
 17482 0de2 5457495F 		.ascii	"TWI_RPR\000"
 17482      52505200 
 17483              	.LASF5:
 17484 0dea 5F5F696E 		.ascii	"__int16_t\000"
 17484      7431365F 
 17484      7400
 17485              	.LASF125:
 17486 0df4 74656D70 		.ascii	"temperature\000"
 17486      65726174 
 17486      75726500 
 17487              	.LASF173:
 17488 0e00 73657447 		.ascii	"setGyroScale\000"
 17488      79726F53 
 17488      63616C65 
 17488      00
 17489              	.LASF260:
 17490 0e0d 64657374 		.ascii	"dest\000"
 17490      00
 17491              	.LASF104:
 17492 0e12 5F547769 		.ascii	"_Twid\000"
 17492      6400
 17493              	.LASF191:
ARM GAS  /tmp/ccoI4Tqz.s 			page 318


 17494 0e18 636F6E66 		.ascii	"configGyroInt\000"
 17494      69674779 
 17494      726F496E 
 17494      7400
 17495              	.LASF93:
 17496 0e26 5457495F 		.ascii	"TWI_RNPR\000"
 17496      524E5052 
 17496      00
 17497              	.LASF185:
 17498 0e2f 636F6E66 		.ascii	"configInactivity\000"
 17498      6967496E 
 17498      61637469 
 17498      76697479 
 17498      00
 17499              	.LASF240:
 17500 0e40 5F5A4E37 		.ascii	"_ZN7LSM9DS18calcmResEv\000"
 17500      4C534D39 
 17500      44533138 
 17500      63616C63 
 17500      6D526573 
 17501              	.LASF231:
 17502 0e57 78675265 		.ascii	"xgReadByte\000"
 17502      61644279 
 17502      746500
 17503              	.LASF217:
 17504 0e62 696E6974 		.ascii	"init\000"
 17504      00
 17505              	.LASF81:
 17506 0e67 52657365 		.ascii	"Reserved1\000"
 17506      72766564 
 17506      3100
 17507              	.LASF88:
 17508 0e71 52657365 		.ascii	"Reserved2\000"
 17508      72766564 
 17508      3200
 17509              	.LASF192:
 17510 0e7b 636F6E66 		.ascii	"configGyroThs\000"
 17510      69674779 
 17510      726F5468 
 17510      7300
 17511              	.LASF95:
 17512 0e89 5457495F 		.ascii	"TWI_TNPR\000"
 17512      544E5052 
 17512      00
 17513              	.LASF259:
 17514 0e92 6F666673 		.ascii	"offset\000"
 17514      657400
 17515              	.LASF157:
 17516 0e99 5F5A4E37 		.ascii	"_ZN7LSM9DS18readGyroEv\000"
 17516      4C534D39 
 17516      44533138 
 17516      72656164 
 17516      4779726F 
 17517              	.LASF295:
 17518 0eb0 6669666F 		.ascii	"fifoThs\000"
 17518      54687300 
 17519              	.LASF30:
ARM GAS  /tmp/ccoI4Tqz.s 			page 319


 17520 0eb8 494E545F 		.ascii	"INT_OPEN_DRAIN\000"
 17520      4F50454E 
 17520      5F445241 
 17520      494E00
 17521              	.LASF235:
 17522 0ec7 78675772 		.ascii	"xgWriteByte\000"
 17522      69746542 
 17522      79746500 
 17523              	.LASF43:
 17524 0ed3 48504643 		.ascii	"HPFCutoff\000"
 17524      75746F66 
 17524      6600
 17525              	.LASF222:
 17526 0edd 5F5A4E37 		.ascii	"_ZN7LSM9DS19initAccelEv\000"
 17526      4C534D39 
 17526      44533139 
 17526      696E6974 
 17526      41636365 
 17527              	.LASF270:
 17528 0ef5 6D61674D 		.ascii	"magMin\000"
 17528      696E00
 17529              	.LASF61:
 17530 0efc 74656D70 		.ascii	"tempCompensationEnable\000"
 17530      436F6D70 
 17530      656E7361 
 17530      74696F6E 
 17530      456E6162 
 17531              	.LASF279:
 17532 0f13 6D53636C 		.ascii	"mScl\000"
 17532      00
 17533              	.LASF174:
 17534 0f18 5F5A4E37 		.ascii	"_ZN7LSM9DS112setGyroScaleEt\000"
 17534      4C534D39 
 17534      44533131 
 17534      32736574 
 17534      4779726F 
 17535              	.LASF121:
 17536 0f34 595F4158 		.ascii	"Y_AXIS\000"
 17536      495300
 17537              	.LASF116:
 17538 0f3b 5F5A4E37 		.ascii	"_ZN7creator3I2C8ReadByteEh\000"
 17538      63726561 
 17538      746F7233 
 17538      49324338 
 17538      52656164 
 17539              	.LASF6:
 17540 0f56 73686F72 		.ascii	"short int\000"
 17540      7420696E 
 17540      7400
 17541              	.LASF129:
 17542 0f60 67426961 		.ascii	"gBiasRaw\000"
 17542      73526177 
 17542      00
 17543              	.LASF47:
 17544 0f69 6F726965 		.ascii	"orientation\000"
 17544      6E746174 
 17544      696F6E00 
ARM GAS  /tmp/ccoI4Tqz.s 			page 320


 17545              	.LASF73:
 17546 0f75 526F5265 		.ascii	"RoReg\000"
 17546      6700
 17547              	.LASF16:
 17548 0f7b 696E7431 		.ascii	"int16_t\000"
 17548      365F7400 
 17549              	.LASF85:
 17550 0f83 5457495F 		.ascii	"TWI_IMR\000"
 17550      494D5200 
 17551              	.LASF144:
 17552 0f8b 63616C69 		.ascii	"calibrateMag\000"
 17552      62726174 
 17552      654D6167 
 17552      00
 17553              	.LASF177:
 17554 0f98 7365744D 		.ascii	"setMagScale\000"
 17554      61675363 
 17554      616C6500 
 17555              	.LASF58:
 17556 0fa4 68696768 		.ascii	"highResEnable\000"
 17556      52657345 
 17556      6E61626C 
 17556      6500
 17557              	.LASF180:
 17558 0fb2 5F5A4E37 		.ascii	"_ZN7LSM9DS110setGyroODREh\000"
 17558      4C534D39 
 17558      44533131 
 17558      30736574 
 17558      4779726F 
 17559              	.LASF211:
 17560 0fcc 656E6162 		.ascii	"enableFIFO\000"
 17560      6C654649 
 17560      464F00
 17561              	.LASF78:
 17562 0fd7 5457495F 		.ascii	"TWI_SMR\000"
 17562      534D5200 
 17563              	.LASF286:
 17564 0fdf 736C6565 		.ascii	"sleepOn\000"
 17564      704F6E00 
 17565              	.LASF166:
 17566 0fe7 5F5A4E37 		.ascii	"_ZN7LSM9DS18readTempEv\000"
 17566      4C534D39 
 17566      44533138 
 17566      72656164 
 17566      54656D70 
 17567              	.LASF75:
 17568 0ffe 52775265 		.ascii	"RwReg\000"
 17568      6700
 17569              	.LASF69:
 17570 1004 61636365 		.ascii	"accel\000"
 17570      6C00
 17571              	.LASF298:
 17572 100a 61426961 		.ascii	"aBiasRawTemp\000"
 17572      73526177 
 17572      54656D70 
 17572      00
 17573              	.LASF229:
ARM GAS  /tmp/ccoI4Tqz.s 			page 321


 17574 1017 6D577269 		.ascii	"mWriteByte\000"
 17574      74654279 
 17574      746500
 17575              	.LASF87:
 17576 1022 5457495F 		.ascii	"TWI_THR\000"
 17576      54485200 
 17577              	.LASF302:
 17578 102a 77686F41 		.ascii	"whoAmICombined\000"
 17578      6D49436F 
 17578      6D62696E 
 17578      656400
 17579              	.LASF267:
 17580 1039 74656D70 		.ascii	"tempRegValue\000"
 17580      52656756 
 17580      616C7565 
 17580      00
 17581              	.LASF107:
 17582 1046 54776964 		.ascii	"Twid\000"
 17582      00
 17583              	.LASF18:
 17584 104b 75696E74 		.ascii	"uint32_t\000"
 17584      33325F74 
 17584      00
 17585              	.LASF307:
 17586 1054 63726561 		.ascii	"creator\000"
 17586      746F7200 
 17587              	.LASF143:
 17588 105c 5F5A4E37 		.ascii	"_ZN7LSM9DS19calibrateEb\000"
 17588      4C534D39 
 17588      44533139 
 17588      63616C69 
 17588      62726174 
 17589              	.LASF280:
 17590 1074 696E7465 		.ascii	"interrupt\000"
 17590      72727570 
 17590      7400
 17591              	.LASF209:
 17592 107e 736C6565 		.ascii	"sleepGyro\000"
 17592      70477972 
 17592      6F00
 17593              	.LASF288:
 17594 1088 77616974 		.ascii	"wait\000"
 17594      00
 17595              	.LASF8:
 17596 108d 73686F72 		.ascii	"short unsigned int\000"
 17596      7420756E 
 17596      7369676E 
 17596      65642069 
 17596      6E7400
 17597              	.LASF99:
 17598 10a0 5F417379 		.ascii	"_Async\000"
 17598      6E6300
 17599              	.LASF133:
 17600 10a7 5F786741 		.ascii	"_xgAddress\000"
 17600      64647265 
 17600      737300
 17601              	.LASF220:
ARM GAS  /tmp/ccoI4Tqz.s 			page 322


 17602 10b2 5F5A4E37 		.ascii	"_ZN7LSM9DS18initGyroEv\000"
 17602      4C534D39 
 17602      44533138 
 17602      696E6974 
 17602      4779726F 
 17603              	.LASF52:
 17604 10c9 6779726F 		.ascii	"gyroSettings\000"
 17604      53657474 
 17604      696E6773 
 17604      00
 17605              	.LASF32:
 17606 10d6 4649464F 		.ascii	"FIFO_OFF\000"
 17606      5F4F4646 
 17606      00
 17607              	.LASF119:
 17608 10df 6C736D39 		.ascii	"lsm9ds1_axis\000"
 17608      6473315F 
 17608      61786973 
 17608      00
 17609              	.LASF203:
 17610 10ec 5F5A4E37 		.ascii	"_ZN7LSM9DS113getGyroIntSrcEv\000"
 17610      4C534D39 
 17610      44533131 
 17610      33676574 
 17610      4779726F 
 17611              	.LASF187:
 17612 1109 636F6E66 		.ascii	"configAccelInt\000"
 17612      69674163 
 17612      63656C49 
 17612      6E7400
 17613              	.LASF160:
 17614 1118 5F5A4E37 		.ascii	"_ZN7LSM9DS19readAccelEv\000"
 17614      4C534D39 
 17614      44533139 
 17614      72656164 
 17614      41636365 
 17615              	.LASF135:
 17616 1130 61526573 		.ascii	"aRes\000"
 17616      00
 17617              	.LASF249:
 17618 1135 49324372 		.ascii	"I2CreadByte\000"
 17618      65616442 
 17618      79746500 
 17619              	.LASF55:
 17620 1141 61674164 		.ascii	"agAddress\000"
 17620      64726573 
 17620      7300
 17621              	.LASF131:
 17622 114b 6D426961 		.ascii	"mBiasRaw\000"
 17622      73526177 
 17622      00
 17623              	.LASF70:
 17624 1154 74656D70 		.ascii	"temp\000"
 17624      00
 17625              	.LASF189:
 17626 1159 636F6E66 		.ascii	"configAccelThs\000"
 17626      69674163 
ARM GAS  /tmp/ccoI4Tqz.s 			page 323


 17626      63656C54 
 17626      687300
 17627              	.LASF22:
 17628 1168 696E7465 		.ascii	"interrupt_select\000"
 17628      72727570 
 17628      745F7365 
 17628      6C656374 
 17628      00
 17629              	.LASF281:
 17630 1179 67656E65 		.ascii	"generator\000"
 17630      7261746F 
 17630      7200
 17631              	.LASF117:
 17632 1183 52656164 		.ascii	"ReadBytes\000"
 17632      42797465 
 17632      7300
 17633              	.LASF134:
 17634 118d 67526573 		.ascii	"gRes\000"
 17634      00
 17635              	.LASF248:
 17636 1192 5F5A4E37 		.ascii	"_ZN7LSM9DS112I2CwriteByteEhhh\000"
 17636      4C534D39 
 17636      44533131 
 17636      32493243 
 17636      77726974 
 17637              	.LASF246:
 17638 11b0 5F5A4E37 		.ascii	"_ZN7LSM9DS17initI2CEv\000"
 17638      4C534D39 
 17638      44533137 
 17638      696E6974 
 17638      49324345 
 17639              		.ident	"GCC: (15:4.9.3+svn231177-1) 4.9.3 20150529 (prerelease)"
ARM GAS  /tmp/ccoI4Tqz.s 			page 324


DEFINED SYMBOLS
                            *ABS*:0000000000000000 lsm9ds1.cpp
     /tmp/ccoI4Tqz.s:19     .text._ZN7LSM9DS19magOffsetEhs.part.0:0000000000000000 $t
     /tmp/ccoI4Tqz.s:24     .text._ZN7LSM9DS19magOffsetEhs.part.0:0000000000000000 _ZN7LSM9DS19magOffsetEhs.part.0
.ARM.exidx.text._ZN7LSM9DS19magOffsetEhs.part.0:0000000000000000 $d
     /tmp/ccoI4Tqz.s:98     .text._ZN7LSM9DS14initE14interface_modehh:0000000000000000 $t
     /tmp/ccoI4Tqz.s:104    .text._ZN7LSM9DS14initE14interface_modehh:0000000000000000 _ZN7LSM9DS14initE14interface_modehh
.ARM.exidx.text._ZN7LSM9DS14initE14interface_modehh:0000000000000000 $d
     /tmp/ccoI4Tqz.s:266    .text._ZN7LSM9DS1C2EPN7creator3I2CE:0000000000000000 $t
     /tmp/ccoI4Tqz.s:272    .text._ZN7LSM9DS1C2EPN7creator3I2CE:0000000000000000 _ZN7LSM9DS1C2EPN7creator3I2CE
.ARM.exidx.text._ZN7LSM9DS1C2EPN7creator3I2CE:0000000000000000 $d
     /tmp/ccoI4Tqz.s:272    .text._ZN7LSM9DS1C2EPN7creator3I2CE:0000000000000000 _ZN7LSM9DS1C1EPN7creator3I2CE
     /tmp/ccoI4Tqz.s:307    .text._ZN7LSM9DS1C2EPN7creator3I2CE14interface_modehh:0000000000000000 $t
     /tmp/ccoI4Tqz.s:313    .text._ZN7LSM9DS1C2EPN7creator3I2CE14interface_modehh:0000000000000000 _ZN7LSM9DS1C2EPN7creator3I2CE14interface_modehh
.ARM.exidx.text._ZN7LSM9DS1C2EPN7creator3I2CE14interface_modehh:0000000000000000 $d
     /tmp/ccoI4Tqz.s:313    .text._ZN7LSM9DS1C2EPN7creator3I2CE14interface_modehh:0000000000000000 _ZN7LSM9DS1C1EPN7creator3I2CE14interface_modehh
     /tmp/ccoI4Tqz.s:354    .text._ZN7LSM9DS18initGyroEv:0000000000000000 $t
     /tmp/ccoI4Tqz.s:360    .text._ZN7LSM9DS18initGyroEv:0000000000000000 _ZN7LSM9DS18initGyroEv
.ARM.exidx.text._ZN7LSM9DS18initGyroEv:0000000000000000 $d
     /tmp/ccoI4Tqz.s:568    .text._ZN7LSM9DS19initAccelEv:0000000000000000 $t
     /tmp/ccoI4Tqz.s:574    .text._ZN7LSM9DS19initAccelEv:0000000000000000 _ZN7LSM9DS19initAccelEv
.ARM.exidx.text._ZN7LSM9DS19initAccelEv:0000000000000000 $d
     /tmp/ccoI4Tqz.s:730    .text._ZN7LSM9DS19magOffsetEhs:0000000000000000 $t
     /tmp/ccoI4Tqz.s:736    .text._ZN7LSM9DS19magOffsetEhs:0000000000000000 _ZN7LSM9DS19magOffsetEhs
.ARM.exidx.text._ZN7LSM9DS19magOffsetEhs:0000000000000000 $d
     /tmp/ccoI4Tqz.s:760    .text._ZN7LSM9DS17initMagEv:0000000000000000 $t
     /tmp/ccoI4Tqz.s:766    .text._ZN7LSM9DS17initMagEv:0000000000000000 _ZN7LSM9DS17initMagEv
     /tmp/ccoI4Tqz.s:906    .text._ZN7LSM9DS17initMagEv:00000000000000a8 $d
.ARM.exidx.text._ZN7LSM9DS17initMagEv:0000000000000000 $d
     /tmp/ccoI4Tqz.s:915    .text._ZN7LSM9DS114accelAvailableEv:0000000000000000 $t
     /tmp/ccoI4Tqz.s:921    .text._ZN7LSM9DS114accelAvailableEv:0000000000000000 _ZN7LSM9DS114accelAvailableEv
.ARM.extab.text._ZN7LSM9DS114accelAvailableEv:0000000000000000 $d
.ARM.exidx.text._ZN7LSM9DS114accelAvailableEv:0000000000000000 $d
     /tmp/ccoI4Tqz.s:959    .text._ZN7LSM9DS113gyroAvailableEv:0000000000000000 $t
     /tmp/ccoI4Tqz.s:965    .text._ZN7LSM9DS113gyroAvailableEv:0000000000000000 _ZN7LSM9DS113gyroAvailableEv
.ARM.extab.text._ZN7LSM9DS113gyroAvailableEv:0000000000000000 $d
.ARM.exidx.text._ZN7LSM9DS113gyroAvailableEv:0000000000000000 $d
     /tmp/ccoI4Tqz.s:1003   .text._ZN7LSM9DS113tempAvailableEv:0000000000000000 $t
     /tmp/ccoI4Tqz.s:1009   .text._ZN7LSM9DS113tempAvailableEv:0000000000000000 _ZN7LSM9DS113tempAvailableEv
.ARM.extab.text._ZN7LSM9DS113tempAvailableEv:0000000000000000 $d
.ARM.exidx.text._ZN7LSM9DS113tempAvailableEv:0000000000000000 $d
     /tmp/ccoI4Tqz.s:1047   .text._ZN7LSM9DS112magAvailableE12lsm9ds1_axis:0000000000000000 $t
     /tmp/ccoI4Tqz.s:1053   .text._ZN7LSM9DS112magAvailableE12lsm9ds1_axis:0000000000000000 _ZN7LSM9DS112magAvailableE12lsm9ds1_axis
.ARM.exidx.text._ZN7LSM9DS112magAvailableE12lsm9ds1_axis:0000000000000000 $d
     /tmp/ccoI4Tqz.s:1105   .text._ZN7LSM9DS19readAccelEv:0000000000000000 $t
     /tmp/ccoI4Tqz.s:1111   .text._ZN7LSM9DS19readAccelEv:0000000000000000 _ZN7LSM9DS19readAccelEv
.ARM.exidx.text._ZN7LSM9DS19readAccelEv:0000000000000000 $d
     /tmp/ccoI4Tqz.s:1204   .text._ZN7LSM9DS19readAccelE12lsm9ds1_axis:0000000000000000 $t
     /tmp/ccoI4Tqz.s:1210   .text._ZN7LSM9DS19readAccelE12lsm9ds1_axis:0000000000000000 _ZN7LSM9DS19readAccelE12lsm9ds1_axis
.ARM.exidx.text._ZN7LSM9DS19readAccelE12lsm9ds1_axis:0000000000000000 $d
     /tmp/ccoI4Tqz.s:1299   .text._ZN7LSM9DS17readMagEv:0000000000000000 $t
     /tmp/ccoI4Tqz.s:1305   .text._ZN7LSM9DS17readMagEv:0000000000000000 _ZN7LSM9DS17readMagEv
.ARM.exidx.text._ZN7LSM9DS17readMagEv:0000000000000000 $d
     /tmp/ccoI4Tqz.s:1376   .text._ZN7LSM9DS112calibrateMagEb:0000000000000000 $t
     /tmp/ccoI4Tqz.s:1382   .text._ZN7LSM9DS112calibrateMagEb:0000000000000000 _ZN7LSM9DS112calibrateMagEb
.ARM.exidx.text._ZN7LSM9DS112calibrateMagEb:0000000000000000 $d
     /tmp/ccoI4Tqz.s:1557   .text._ZN7LSM9DS17readMagE12lsm9ds1_axis:0000000000000000 $t
ARM GAS  /tmp/ccoI4Tqz.s 			page 325


     /tmp/ccoI4Tqz.s:1563   .text._ZN7LSM9DS17readMagE12lsm9ds1_axis:0000000000000000 _ZN7LSM9DS17readMagE12lsm9ds1_axis
.ARM.exidx.text._ZN7LSM9DS17readMagE12lsm9ds1_axis:0000000000000000 $d
     /tmp/ccoI4Tqz.s:1626   .text._ZN7LSM9DS18readTempEv:0000000000000000 $t
     /tmp/ccoI4Tqz.s:1632   .text._ZN7LSM9DS18readTempEv:0000000000000000 _ZN7LSM9DS18readTempEv
.ARM.exidx.text._ZN7LSM9DS18readTempEv:0000000000000000 $d
     /tmp/ccoI4Tqz.s:1683   .text._ZN7LSM9DS18readGyroEv:0000000000000000 $t
     /tmp/ccoI4Tqz.s:1689   .text._ZN7LSM9DS18readGyroEv:0000000000000000 _ZN7LSM9DS18readGyroEv
.ARM.exidx.text._ZN7LSM9DS18readGyroEv:0000000000000000 $d
     /tmp/ccoI4Tqz.s:1782   .text._ZN7LSM9DS18readGyroE12lsm9ds1_axis:0000000000000000 $t
     /tmp/ccoI4Tqz.s:1788   .text._ZN7LSM9DS18readGyroE12lsm9ds1_axis:0000000000000000 _ZN7LSM9DS18readGyroE12lsm9ds1_axis
.ARM.exidx.text._ZN7LSM9DS18readGyroE12lsm9ds1_axis:0000000000000000 $d
     /tmp/ccoI4Tqz.s:1876   .text._ZN7LSM9DS18calcGyroEs:0000000000000000 $t
     /tmp/ccoI4Tqz.s:1882   .text._ZN7LSM9DS18calcGyroEs:0000000000000000 _ZN7LSM9DS18calcGyroEs
.ARM.exidx.text._ZN7LSM9DS18calcGyroEs:0000000000000000 $d
     /tmp/ccoI4Tqz.s:1912   .text._ZN7LSM9DS19calcAccelEs:0000000000000000 $t
     /tmp/ccoI4Tqz.s:1918   .text._ZN7LSM9DS19calcAccelEs:0000000000000000 _ZN7LSM9DS19calcAccelEs
.ARM.exidx.text._ZN7LSM9DS19calcAccelEs:0000000000000000 $d
     /tmp/ccoI4Tqz.s:1948   .text._ZN7LSM9DS17calcMagEs:0000000000000000 $t
     /tmp/ccoI4Tqz.s:1954   .text._ZN7LSM9DS17calcMagEs:0000000000000000 _ZN7LSM9DS17calcMagEs
.ARM.exidx.text._ZN7LSM9DS17calcMagEs:0000000000000000 $d
     /tmp/ccoI4Tqz.s:1985   .text._ZN7LSM9DS112setGyroScaleEt:0000000000000000 $t
     /tmp/ccoI4Tqz.s:1991   .text._ZN7LSM9DS112setGyroScaleEt:0000000000000000 _ZN7LSM9DS112setGyroScaleEt
.ARM.exidx.text._ZN7LSM9DS112setGyroScaleEt:0000000000000000 $d
     /tmp/ccoI4Tqz.s:2083   .text._ZN7LSM9DS113setAccelScaleEh:0000000000000000 $t
     /tmp/ccoI4Tqz.s:2089   .text._ZN7LSM9DS113setAccelScaleEh:0000000000000000 _ZN7LSM9DS113setAccelScaleEh
.ARM.exidx.text._ZN7LSM9DS113setAccelScaleEh:0000000000000000 $d
     /tmp/ccoI4Tqz.s:2191   .text._ZN7LSM9DS110setGyroODREh:0000000000000000 $t
     /tmp/ccoI4Tqz.s:2197   .text._ZN7LSM9DS110setGyroODREh:0000000000000000 _ZN7LSM9DS110setGyroODREh
.ARM.exidx.text._ZN7LSM9DS110setGyroODREh:0000000000000000 $d
     /tmp/ccoI4Tqz.s:2279   .text._ZN7LSM9DS111setAccelODREh:0000000000000000 $t
     /tmp/ccoI4Tqz.s:2285   .text._ZN7LSM9DS111setAccelODREh:0000000000000000 _ZN7LSM9DS111setAccelODREh
.ARM.exidx.text._ZN7LSM9DS111setAccelODREh:0000000000000000 $d
     /tmp/ccoI4Tqz.s:2367   .text._ZN7LSM9DS19setMagODREh:0000000000000000 $t
     /tmp/ccoI4Tqz.s:2373   .text._ZN7LSM9DS19setMagODREh:0000000000000000 _ZN7LSM9DS19setMagODREh
.ARM.exidx.text._ZN7LSM9DS19setMagODREh:0000000000000000 $d
     /tmp/ccoI4Tqz.s:2449   .text._ZN7LSM9DS18calcgResEv:0000000000000000 $t
     /tmp/ccoI4Tqz.s:2455   .text._ZN7LSM9DS18calcgResEv:0000000000000000 _ZN7LSM9DS18calcgResEv
.ARM.exidx.text._ZN7LSM9DS18calcgResEv:0000000000000000 $d
     /tmp/ccoI4Tqz.s:2484   .text._ZN7LSM9DS18calcaResEv:0000000000000000 $t
     /tmp/ccoI4Tqz.s:2490   .text._ZN7LSM9DS18calcaResEv:0000000000000000 _ZN7LSM9DS18calcaResEv
.ARM.exidx.text._ZN7LSM9DS18calcaResEv:0000000000000000 $d
     /tmp/ccoI4Tqz.s:2519   .text._ZN7LSM9DS18calcmResEv:0000000000000000 $t
     /tmp/ccoI4Tqz.s:2525   .text._ZN7LSM9DS18calcmResEv:0000000000000000 _ZN7LSM9DS18calcmResEv
     /tmp/ccoI4Tqz.s:2541   .text._ZN7LSM9DS18calcmResEv:000000000000000e $d
     /tmp/ccoI4Tqz.s:2586   .text._ZN7LSM9DS18calcmResEv:000000000000003c $d
.ARM.exidx.text._ZN7LSM9DS18calcmResEv:0000000000000000 $d
     /tmp/ccoI4Tqz.s:2593   .text._ZN7LSM9DS111setMagScaleEh:0000000000000000 $t
     /tmp/ccoI4Tqz.s:2599   .text._ZN7LSM9DS111setMagScaleEh:0000000000000000 _ZN7LSM9DS111setMagScaleEh
.ARM.exidx.text._ZN7LSM9DS111setMagScaleEh:0000000000000000 $d
     /tmp/ccoI4Tqz.s:2704   .text._ZN7LSM9DS19configIntE16interrupt_selecth9h_lactive5pp_od:0000000000000000 $t
     /tmp/ccoI4Tqz.s:2710   .text._ZN7LSM9DS19configIntE16interrupt_selecth9h_lactive5pp_od:0000000000000000 _ZN7LSM9DS19configIntE16interrupt_selecth9h_lactive5pp_od
.ARM.exidx.text._ZN7LSM9DS19configIntE16interrupt_selecth9h_lactive5pp_od:0000000000000000 $d
     /tmp/ccoI4Tqz.s:2824   .text._ZN7LSM9DS116configInactivityEhhb:0000000000000000 $t
     /tmp/ccoI4Tqz.s:2830   .text._ZN7LSM9DS116configInactivityEhhb:0000000000000000 _ZN7LSM9DS116configInactivityEhhb
.ARM.exidx.text._ZN7LSM9DS116configInactivityEhhb:0000000000000000 $d
     /tmp/ccoI4Tqz.s:2906   .text._ZN7LSM9DS113getInactivityEv:0000000000000000 $t
     /tmp/ccoI4Tqz.s:2912   .text._ZN7LSM9DS113getInactivityEv:0000000000000000 _ZN7LSM9DS113getInactivityEv
ARM GAS  /tmp/ccoI4Tqz.s 			page 326


.ARM.extab.text._ZN7LSM9DS113getInactivityEv:0000000000000000 $d
.ARM.exidx.text._ZN7LSM9DS113getInactivityEv:0000000000000000 $d
     /tmp/ccoI4Tqz.s:2950   .text._ZN7LSM9DS114configAccelIntEhb:0000000000000000 $t
     /tmp/ccoI4Tqz.s:2956   .text._ZN7LSM9DS114configAccelIntEhb:0000000000000000 _ZN7LSM9DS114configAccelIntEhb
.ARM.exidx.text._ZN7LSM9DS114configAccelIntEhb:0000000000000000 $d
     /tmp/ccoI4Tqz.s:3011   .text._ZN7LSM9DS114configAccelThsEh12lsm9ds1_axishb:0000000000000000 $t
     /tmp/ccoI4Tqz.s:3017   .text._ZN7LSM9DS114configAccelThsEh12lsm9ds1_axishb:0000000000000000 _ZN7LSM9DS114configAccelThsEh12lsm9ds1_axishb
.ARM.exidx.text._ZN7LSM9DS114configAccelThsEh12lsm9ds1_axishb:0000000000000000 $d
     /tmp/ccoI4Tqz.s:3098   .text._ZN7LSM9DS114getAccelIntSrcEv:0000000000000000 $t
     /tmp/ccoI4Tqz.s:3104   .text._ZN7LSM9DS114getAccelIntSrcEv:0000000000000000 _ZN7LSM9DS114getAccelIntSrcEv
.ARM.extab.text._ZN7LSM9DS114getAccelIntSrcEv:0000000000000000 $d
.ARM.exidx.text._ZN7LSM9DS114getAccelIntSrcEv:0000000000000000 $d
     /tmp/ccoI4Tqz.s:3149   .text._ZN7LSM9DS113configGyroIntEhbb:0000000000000000 $t
     /tmp/ccoI4Tqz.s:3155   .text._ZN7LSM9DS113configGyroIntEhbb:0000000000000000 _ZN7LSM9DS113configGyroIntEhbb
.ARM.exidx.text._ZN7LSM9DS113configGyroIntEhbb:0000000000000000 $d
     /tmp/ccoI4Tqz.s:3217   .text._ZN7LSM9DS113configGyroThsEs12lsm9ds1_axishb:0000000000000000 $t
     /tmp/ccoI4Tqz.s:3223   .text._ZN7LSM9DS113configGyroThsEs12lsm9ds1_axishb:0000000000000000 _ZN7LSM9DS113configGyroThsEs12lsm9ds1_axishb
.ARM.exidx.text._ZN7LSM9DS113configGyroThsEs12lsm9ds1_axishb:0000000000000000 $d
     /tmp/ccoI4Tqz.s:3331   .text._ZN7LSM9DS113getGyroIntSrcEv:0000000000000000 $t
     /tmp/ccoI4Tqz.s:3337   .text._ZN7LSM9DS113getGyroIntSrcEv:0000000000000000 _ZN7LSM9DS113getGyroIntSrcEv
.ARM.extab.text._ZN7LSM9DS113getGyroIntSrcEv:0000000000000000 $d
.ARM.exidx.text._ZN7LSM9DS113getGyroIntSrcEv:0000000000000000 $d
     /tmp/ccoI4Tqz.s:3382   .text._ZN7LSM9DS112configMagIntEh9h_lactiveb:0000000000000000 $t
     /tmp/ccoI4Tqz.s:3388   .text._ZN7LSM9DS112configMagIntEh9h_lactiveb:0000000000000000 _ZN7LSM9DS112configMagIntEh9h_lactiveb
.ARM.exidx.text._ZN7LSM9DS112configMagIntEh9h_lactiveb:0000000000000000 $d
     /tmp/ccoI4Tqz.s:3457   .text._ZN7LSM9DS112configMagThsEt:0000000000000000 $t
     /tmp/ccoI4Tqz.s:3463   .text._ZN7LSM9DS112configMagThsEt:0000000000000000 _ZN7LSM9DS112configMagThsEt
.ARM.exidx.text._ZN7LSM9DS112configMagThsEt:0000000000000000 $d
     /tmp/ccoI4Tqz.s:3524   .text._ZN7LSM9DS112getMagIntSrcEv:0000000000000000 $t
     /tmp/ccoI4Tqz.s:3530   .text._ZN7LSM9DS112getMagIntSrcEv:0000000000000000 _ZN7LSM9DS112getMagIntSrcEv
.ARM.extab.text._ZN7LSM9DS112getMagIntSrcEv:0000000000000000 $d
.ARM.exidx.text._ZN7LSM9DS112getMagIntSrcEv:0000000000000000 $d
     /tmp/ccoI4Tqz.s:3574   .text._ZN7LSM9DS19sleepGyroEb:0000000000000000 $t
     /tmp/ccoI4Tqz.s:3580   .text._ZN7LSM9DS19sleepGyroEb:0000000000000000 _ZN7LSM9DS19sleepGyroEb
.ARM.exidx.text._ZN7LSM9DS19sleepGyroEb:0000000000000000 $d
     /tmp/ccoI4Tqz.s:3657   .text._ZN7LSM9DS110enableFIFOEb:0000000000000000 $t
     /tmp/ccoI4Tqz.s:3663   .text._ZN7LSM9DS110enableFIFOEb:0000000000000000 _ZN7LSM9DS110enableFIFOEb
.ARM.exidx.text._ZN7LSM9DS110enableFIFOEb:0000000000000000 $d
     /tmp/ccoI4Tqz.s:3740   .text._ZN7LSM9DS17setFIFOE13fifoMode_typeh:0000000000000000 $t
     /tmp/ccoI4Tqz.s:3746   .text._ZN7LSM9DS17setFIFOE13fifoMode_typeh:0000000000000000 _ZN7LSM9DS17setFIFOE13fifoMode_typeh
.ARM.exidx.text._ZN7LSM9DS17setFIFOE13fifoMode_typeh:0000000000000000 $d
     /tmp/ccoI4Tqz.s:3791   .text._ZN7LSM9DS19calibrateEb:0000000000000000 $t
     /tmp/ccoI4Tqz.s:3797   .text._ZN7LSM9DS19calibrateEb:0000000000000000 _ZN7LSM9DS19calibrateEb
     /tmp/ccoI4Tqz.s:4035   .text._ZN7LSM9DS19calibrateEb:0000000000000138 $d
.ARM.exidx.text._ZN7LSM9DS19calibrateEb:0000000000000000 $d
     /tmp/ccoI4Tqz.s:4041   .text._ZN7LSM9DS114getFIFOSamplesEv:0000000000000000 $t
     /tmp/ccoI4Tqz.s:4047   .text._ZN7LSM9DS114getFIFOSamplesEv:0000000000000000 _ZN7LSM9DS114getFIFOSamplesEv
.ARM.extab.text._ZN7LSM9DS114getFIFOSamplesEv:0000000000000000 $d
.ARM.exidx.text._ZN7LSM9DS114getFIFOSamplesEv:0000000000000000 $d
     /tmp/ccoI4Tqz.s:4082   .text._ZN7LSM9DS115constrainScalesEv:0000000000000000 $t
     /tmp/ccoI4Tqz.s:4088   .text._ZN7LSM9DS115constrainScalesEv:0000000000000000 _ZN7LSM9DS115constrainScalesEv
.ARM.exidx.text._ZN7LSM9DS115constrainScalesEv:0000000000000000 $d
     /tmp/ccoI4Tqz.s:4150   .text._ZN7LSM9DS15beginEv:0000000000000000 $t
     /tmp/ccoI4Tqz.s:4156   .text._ZN7LSM9DS15beginEv:0000000000000000 _ZN7LSM9DS15beginEv
.ARM.exidx.text._ZN7LSM9DS15beginEv:0000000000000000 $d
     /tmp/ccoI4Tqz.s:4294   .text._ZN7LSM9DS111xgWriteByteEhh:0000000000000000 $t
     /tmp/ccoI4Tqz.s:4300   .text._ZN7LSM9DS111xgWriteByteEhh:0000000000000000 _ZN7LSM9DS111xgWriteByteEhh
ARM GAS  /tmp/ccoI4Tqz.s 			page 327


.ARM.exidx.text._ZN7LSM9DS111xgWriteByteEhh:0000000000000000 $d
     /tmp/ccoI4Tqz.s:4336   .text._ZN7LSM9DS110mWriteByteEhh:0000000000000000 $t
     /tmp/ccoI4Tqz.s:4342   .text._ZN7LSM9DS110mWriteByteEhh:0000000000000000 _ZN7LSM9DS110mWriteByteEhh
.ARM.exidx.text._ZN7LSM9DS110mWriteByteEhh:0000000000000000 $d
     /tmp/ccoI4Tqz.s:4378   .text._ZN7LSM9DS110xgReadByteEh:0000000000000000 $t
     /tmp/ccoI4Tqz.s:4384   .text._ZN7LSM9DS110xgReadByteEh:0000000000000000 _ZN7LSM9DS110xgReadByteEh
.ARM.exidx.text._ZN7LSM9DS110xgReadByteEh:0000000000000000 $d
     /tmp/ccoI4Tqz.s:4409   .text._ZN7LSM9DS111xgReadBytesEhPhh:0000000000000000 $t
     /tmp/ccoI4Tqz.s:4415   .text._ZN7LSM9DS111xgReadBytesEhPhh:0000000000000000 _ZN7LSM9DS111xgReadBytesEhPhh
.ARM.exidx.text._ZN7LSM9DS111xgReadBytesEhPhh:0000000000000000 $d
     /tmp/ccoI4Tqz.s:4460   .text._ZN7LSM9DS19mReadByteEh:0000000000000000 $t
     /tmp/ccoI4Tqz.s:4466   .text._ZN7LSM9DS19mReadByteEh:0000000000000000 _ZN7LSM9DS19mReadByteEh
.ARM.exidx.text._ZN7LSM9DS19mReadByteEh:0000000000000000 $d
     /tmp/ccoI4Tqz.s:4491   .text._ZN7LSM9DS110mReadBytesEhPhh:0000000000000000 $t
     /tmp/ccoI4Tqz.s:4497   .text._ZN7LSM9DS110mReadBytesEhPhh:0000000000000000 _ZN7LSM9DS110mReadBytesEhPhh
.ARM.exidx.text._ZN7LSM9DS110mReadBytesEhPhh:0000000000000000 $d
     /tmp/ccoI4Tqz.s:4562   .data.magSensitivity:0000000000000000 magSensitivity
     /tmp/ccoI4Tqz.s:4543   .rodata.CSWTCH.36:0000000000000000 $d
     /tmp/ccoI4Tqz.s:4547   .rodata.CSWTCH.36:0000000000000000 CSWTCH.36
     /tmp/ccoI4Tqz.s:4558   .data.magSensitivity:0000000000000000 $d
                     .debug_frame:0000000000000010 $d
     /tmp/ccoI4Tqz.s:2554   .text._ZN7LSM9DS18calcmResEv:000000000000001b $d
     /tmp/ccoI4Tqz.s:2554   .text._ZN7LSM9DS18calcmResEv:000000000000001c $t

UNDEFINED SYMBOLS
_ZN7creator3I2C9WriteByteEhhh
__aeabi_unwind_cpp_pr0
_ZN7creator3I2C8ReadByteEhh
__aeabi_unwind_cpp_pr1
_ZN7creator3I2C9ReadBytesEhhPhh
__aeabi_i2f
__aeabi_fmul
__aeabi_ui2f
__aeabi_f2d
__aeabi_ddiv
__aeabi_d2iz
